 Gamex86

 Timestamp is 66e363ea (Thu Sep 12 17:58:02 2024)

 Preferred load address is 20000000

 Start         Length     Name                   Class
 0001:00000000 0000cb80H .text$di                CODE
 0001:0000cb80 00339ce0H .text$mn                CODE
 0001:00346860 0000f300H .text$x                 CODE
 0001:00355b60 0000339bH .text$yd                CODE
 0002:00000000 0000013cH .idata$5                DATA
 0002:0000013c 00000008H .00cfg                  DATA
 0002:00000144 00000004H .CRT$XCA                DATA
 0002:00000148 00000ff8H .CRT$XCU                DATA
 0002:00001140 00000004H .CRT$XCZ                DATA
 0002:00001144 00000004H .CRT$XIA                DATA
 0002:00001148 00000010H .CRT$XIC                DATA
 0002:00001158 00000004H .CRT$XIZ                DATA
 0002:0000115c 00000004H .CRT$XLA                DATA
 0002:00001160 00000004H .CRT$XLZ                DATA
 0002:00001164 00000004H .CRT$XPA                DATA
 0002:00001168 00000008H .CRT$XPX                DATA
 0002:00001170 00000004H .CRT$XPXA               DATA
 0002:00001174 00000004H .CRT$XPZ                DATA
 0002:00001178 00000004H .CRT$XTA                DATA
 0002:0000117c 00000004H .CRT$XTZ                DATA
 0002:00001180 00000000H .gfids$y                DATA
 0002:00001180 00053880H .rdata                  DATA
 0002:00054a00 00000000H .rdata$CastGuardVftablesA DATA
 0002:00054a00 00000000H .rdata$CastGuardVftablesC DATA
 0002:00054a00 00000018H .rdata$T                DATA
 0002:00054a18 00007170H .rdata$r                DATA
 0002:0005bb88 00001948H .rdata$sxdata           DATA
 0002:0005d4d0 000000e0H .rdata$voltmd           DATA
 0002:0005d5b0 000003d4H .rdata$zzzdbg           DATA
 0002:0005d984 00000004H .rtc$IAA                DATA
 0002:0005d988 00000004H .rtc$IZZ                DATA
 0002:0005d98c 00000004H .rtc$TAA                DATA
 0002:0005d990 00000004H .rtc$TZZ                DATA
 0002:0005d994 00000004H .tls                    DATA
 0002:0005d998 00000004H .tls$                   DATA
 0002:0005d99c 00000004H .tls$ZZZ                DATA
 0002:0005d9a0 00021590H .xdata$x                DATA
 0002:0007ef30 0000004cH .edata                  DATA
 0002:0007ef7c 00000028H .idata$2                DATA
 0002:0007efa4 00000014H .idata$3                DATA
 0002:0007efb8 0000013cH .idata$4                DATA
 0002:0007f0f4 000005daH .idata$6                DATA
 0003:00000000 0000a8d0H .data                   DATA
 0003:0000a8d0 000001acH .data$r                 DATA
 0003:0000aa7c 00002b34H .data$rs                DATA
 0003:0000d5b0 006ce704H .bss                    DATA
 0004:00000000 00000060H .rsrc$01                DATA
 0004:00000060 00000180H .rsrc$02                DATA

  Address         Publics by Value              Rva+Base       Lib:Object

 0000:00000000       ___AbsoluteZero            00000000     <absolute>
 0000:00000000       ___arm64x_extra_rfe_table  00000000     <absolute>
 0000:00000000       ___arm64x_extra_rfe_table_size 00000000     <absolute>
 0000:00000000       ___arm64x_native_entrypoint 00000000     <absolute>
 0000:00000000       ___arm64x_redirection_metadata 00000000     <absolute>
 0000:00000000       ___arm64x_redirection_metadata_count 00000000     <absolute>
 0000:00000000       ___dynamic_value_reloc_table 00000000     <absolute>
 0000:00000000       ___enclave_config          00000000     <absolute>
 0000:00000000       ___guard_check_icall_a64n_fptr 00000000     <absolute>
 0000:00000000       ___guard_eh_cont_count     00000000     <absolute>
 0000:00000000       ___guard_eh_cont_table     00000000     <absolute>
 0000:00000000       ___guard_fids_count        00000000     <absolute>
 0000:00000000       ___guard_fids_table        00000000     <absolute>
 0000:00000000       ___guard_iat_count         00000000     <absolute>
 0000:00000000       ___guard_iat_table         00000000     <absolute>
 0000:00000000       ___guard_longjmp_count     00000000     <absolute>
 0000:00000000       ___guard_longjmp_table     00000000     <absolute>
 0000:00000000       ___hybrid_auxiliary_delayload_iat 00000000     <absolute>
 0000:00000000       ___hybrid_auxiliary_delayload_iat_copy 00000000     <absolute>
 0000:00000000       ___hybrid_auxiliary_iat    00000000     <absolute>
 0000:00000000       ___hybrid_auxiliary_iat_copy 00000000     <absolute>
 0000:00000000       ___hybrid_code_map         00000000     <absolute>
 0000:00000000       ___hybrid_code_map_count   00000000     <absolute>
 0000:00000000       ___hybrid_image_info_bitfield 00000000     <absolute>
 0000:00000000       ___x64_code_ranges_to_entry_points 00000000     <absolute>
 0000:00000000       ___x64_code_ranges_to_entry_points_count 00000000     <absolute>
 0000:00000000       __except_list              00000000     <absolute>
 0000:0000002c       __tls_array                0000002c     <absolute>
 0000:00000100       ___guard_flags             00000100     <absolute>
 0000:00000652       ___safe_se_handler_count   00000652     <absolute>
 0000:00000000       ___ImageBase               20000000     <linker-defined>
 0001:0000cb80       ??_9idActor@@$BBNI@AE      2000db80 f i Actor.obj
 0001:0000cb90       ??0idAnimState@@QAE@XZ     2000db90 f   Actor.obj
 0001:0000cbe0       ??1idAnimState@@QAE@XZ     2000dbe0 f   Actor.obj
 0001:0000cbf0       ?Save@idAnimState@@QBEXPAVidSaveGame@@@Z 2000dbf0 f   Actor.obj
 0001:0000cc60       ?Restore@idAnimState@@QAEXPAVidRestoreGame@@@Z 2000dc60 f   Actor.obj
 0001:0000cce0       ?Init@idAnimState@@QAEXPAVidEntity@@PAVidAnimator@@H@Z 2000dce0 f   Actor.obj
 0001:0000cd30       ?Shutdown@idAnimState@@QAEXXZ 2000dd30 f   Actor.obj
 0001:0000cd40       ?SetState@idAnimState@@QAEXPBDHH@Z 2000dd40 f   Actor.obj
 0001:0000cd90       ?PostState@idAnimState@@QAEXPBDHHH@Z 2000dd90 f   Actor.obj
 0001:0000cde0       ?StopAnim@idAnimState@@QAEXH@Z 2000dde0 f   Actor.obj
 0001:0000ce20       ?PlayAnim@idAnimState@@QAEXH@Z 2000de20 f   Actor.obj
 0001:0000ce70       ?CycleAnim@idAnimState@@QAEXH@Z 2000de70 f   Actor.obj
 0001:0000cec0       ?BecomeIdle@idAnimState@@QAEXXZ 2000dec0 f   Actor.obj
 0001:0000ced0       ?UpdateState@idAnimState@@QAE_NXZ 2000ded0 f   Actor.obj
 0001:0000cef0       ?Disabled@idAnimState@@QBE_NXZ 2000def0 f   Actor.obj
 0001:0000cf00       ?Enable@idAnimState@@QAEXH@Z 2000df00 f   Actor.obj
 0001:0000cf20       ?Disable@idAnimState@@QAEXXZ 2000df20 f   Actor.obj
 0001:0000cf30       ?AnimDone@idAnimState@@QBE_NH@Z 2000df30 f   Actor.obj
 0001:0000cf80       ?IsIdle@idAnimState@@QBE_NXZ 2000df80 f   Actor.obj
 0001:0000cfa0       ?GetAnimFlags@idAnimState@@QBE?AUanimFlags_t@@XZ 2000dfa0 f   Actor.obj
 0001:0000cff0       ?RegisterClassA@idActor@@SAXXZ 2000dff0 f   Actor.obj
 0001:0000d0b0       ?CreateInstance@idActor@@SAPAVidClass@@XZ 2000e0b0 f   Actor.obj
 0001:0000d150       ?GetClassType@idActor@@SAAAVidTypeInfo@@XZ 2000e150 f   Actor.obj
 0001:0000d160       ?GetType@idActor@@UBEPAVidTypeInfo@@XZ 2000e160 f   Actor.obj
 0001:0000d170       ??0idActor@@QAE@XZ         2000e170 f   Actor.obj
 0001:0000d6c0       ??1idActor@@UAE@XZ         2000e6c0 f   Actor.obj
 0001:0000d9a0       ?Spawn@idActor@@QAEXXZ     2000e9a0 f   Actor.obj
 0001:0000e410       ?Restart@idActor@@UAEXXZ   2000f410 f   Actor.obj
 0001:0000e460       ?Save@idActor@@QBEXPAVidSaveGame@@@Z 2000f460 f   Actor.obj
 0001:0000e850       ?Restore@idActor@@QAEXPAVidRestoreGame@@@Z 2000f850 f   Actor.obj
 0001:0000f3b0       ?Hide@idActor@@UAEXXZ      200103b0 f   Actor.obj
 0001:0000f450       ?Show@idActor@@UAEXXZ      20010450 f   Actor.obj
 0001:0000f4f0       ?GetDefaultSurfaceType@idActor@@UBEHXZ 200104f0 f   Actor.obj
 0001:0000f500       ?ProjectOverlay@idActor@@UAEXABVidVec3@@0MPBD@Z 20010500 f   Actor.obj
 0001:0000f5a0       ?LoadAF@idActor@@UAE_NPBD_N@Z 200105a0 f   Actor.obj
 0001:0000f690       ?SetupBody@idActor@@QAEXXZ 20010690 f   Actor.obj
 0001:0000f930       ?CheckBlink@idActor@@UAEXXZ 20010930 f   Actor.obj
 0001:0000fa20       ?GetPhysicsToVisualTransform@idActor@@UAE_NAAVidVec3@@AAVidMat3@@@Z 20010a20 f   Actor.obj
 0001:0000faf0       ?GetPhysicsToSoundTransform@idActor@@UAE_NAAVidVec3@@AAVidMat3@@@Z 20010af0 f   Actor.obj
 0001:0000fc90       ?ShutdownThreads@idActor@@QAEXXZ 20010c90 f   Actor.obj
 0001:0000fcc0       ?UpdateState@idActor@@QAEXXZ 20010cc0 f   Actor.obj
 0001:0000fcd0       ?OnStateThreadClear@idActor@@UAEXPBDH@Z 20010cd0 f   Actor.obj
 0001:0000fce0       ?SetState@idActor@@QAEXPBDH@Z 20010ce0 f   Actor.obj
 0001:0000fd10       ?PostState@idActor@@QAEXPBDHH@Z 20010d10 f   Actor.obj
 0001:0000fd60       ?InterruptState@idActor@@QAEXPBDHH@Z 20010d60 f   Actor.obj
 0001:0000fdb0       ?SetEyeHeight@idActor@@QAEXM@Z 20010db0 f   Actor.obj
 0001:0000fe20       ?SetChestHeight@idActor@@QAEXM@Z 20010e20 f   Actor.obj
 0001:0000fe90       ?EyeHeight@idActor@@QBEMXZ 20010e90 f   Actor.obj
 0001:0000fea0       ?GetEyePosition@idActor@@UBE?AVidVec3@@XZ 20010ea0 f   Actor.obj
 0001:0000fff0       ?GetChestPosition@idActor@@UBE?AVidVec3@@XZ 20010ff0 f   Actor.obj
 0001:00010140       ?GetGroundEntity@idActor@@QBEPAVidEntity@@XZ 20011140 f   Actor.obj
 0001:00010150       ?GetGroundElevator@idActor@@UBEPAVidEntity@@PAV2@@Z 20011150 f   Actor.obj
 0001:00010310       ?Present@idActor@@UAEXXZ   20011310 f   Actor.obj
 0001:00010330       ?GetViewPos@idActor@@UBEXAAVidVec3@@AAVidMat3@@@Z 20011330 f   Actor.obj
 0001:000103c0       ?SetFOV@idActor@@QAEXMM@Z  200113c0 f   Actor.obj
 0001:00010420       ?CheckFOV@idActor@@QBE_NABVidVec3@@M@Z 20011420 f   Actor.obj
 0001:00010680       ?HasFOV@idActor@@UAE_NPAVidEntity@@@Z 20011680 f   Actor.obj
 0001:00010690       ?CanSee@idActor@@UBE_NPBVidEntity@@_N@Z 20011690 f   Actor.obj
 0001:000106c0       ?CanSeeFrom@idActor@@UBE_NABVidVec3@@PBVidEntity@@_N@Z 200116c0 f   Actor.obj
 0001:000107b0       ?CanSeeFrom@idActor@@UBE_NABVidVec3@@0_N@Z 200117b0 f   Actor.obj
 0001:00010820       ?SetupDamageGroups@idActor@@QAEXXZ 20011820 f   Actor.obj
 0001:00010e00       ?Damage@idActor@@UAEXPAVidEntity@@0ABVidVec3@@PBDMH@Z 20011e00 f   Actor.obj
 0001:000115c0       ?GetDamageForLocation@idActor@@UAEHHH@Z 200125c0 f   Actor.obj
 0001:00011620       ?GetDamageGroup@idActor@@QAEPBDH@Z 20012620 f   Actor.obj
 0001:00011650       ?ClearPain@idActor@@QAEXXZ 20012650 f   Actor.obj
 0001:00011660       ?Pain@idActor@@UAE_NPAVidEntity@@0HABVidVec3@@H@Z 20012660 f   Actor.obj
 0001:000119e0       ?AddDamageEffect@idActor@@UAEXABUtrace_t@@ABVidVec3@@PBDPAVidEntity@@@Z 200129e0 f   Actor.obj
 0001:00011a40       ?SetCombatModel@idActor@@QAEXXZ 20012a40 f   Actor.obj
 0001:00011b10       ?GetCombatModel@idActor@@QBEPAVidClipModel@@XZ 20012b10 f   Actor.obj
 0001:00011b20       ?LinkCombat@idActor@@UAEXXZ 20012b20 f   Actor.obj
 0001:00011b90       ?UnlinkCombat@idActor@@UAEXXZ 20012b90 f   Actor.obj
 0001:00011be0       ?StartRagdoll@idActor@@QAE_NXZ 20012be0 f   Actor.obj
 0001:000122a0       ?StopRagdoll@idActor@@QAEXXZ 200132a0 f   Actor.obj
 0001:000122c0       ?UpdateAnimationControllers@idActor@@UAE_NXZ 200132c0 f   Actor.obj
 0001:00012740       ?GetDeltaViewAngles@idActor@@QBEABVidAngles@@XZ 20013740 f   Actor.obj
 0001:00012750       ?SetDeltaViewAngles@idActor@@QAEXABVidAngles@@@Z 20013750 f   Actor.obj
 0001:00012780       ?HasEnemies@idActor@@QBE_NXZ 20013780 f   Actor.obj
 0001:000127d0       ?ClosestEnemyToPoint@idActor@@QAEPAV1@ABVidVec3@@M_N1@Z 200137d0 f   Actor.obj
 0001:00012950       ?EnemyWithMostHealth@idActor@@QAEPAV1@XZ 20013950 f   Actor.obj
 0001:000129b0       ?OnLadder@idActor@@UBE_NXZ 200139b0 f   Actor.obj
 0001:000129c0       ?OnStateChange@idActor@@UAEXH@Z 200139c0 f   Actor.obj
 0001:000129e0       ?OnFriendlyFire@idActor@@UAEXPAV1@@Z 200139e0 f   Actor.obj
 0001:000129f0       ?GetAASLocation@idActor@@UBEXPAVidAAS@@AAVidVec3@@AAH@Z 200139f0 f   Actor.obj
 0001:00012aa0       ?Attach@idActor@@QAEXPAVidEntity@@@Z 20013aa0 f   Actor.obj
 0001:00013160       ?FindAttachment@idActor@@QAEPAVidEntity@@PBD@Z 20014160 f   Actor.obj
 0001:00013200       ?HideAttachment@idActor@@QAEXPBD@Z 20014200 f   Actor.obj
 0001:00013220       ?ShowAttachment@idActor@@QAEXPBD@Z 20014220 f   Actor.obj
 0001:00013240       ?Teleport@idActor@@UAEXABVidVec3@@ABVidAngles@@PAVidEntity@@@Z 20014240 f   Actor.obj
 0001:00013330       ?GetRenderView@idActor@@UAEPAUrenderView_s@@XZ 20014330 f   Actor.obj
 0001:000133c0       ?PlayAnim@idActor@@QAEHHPBDH@Z 200143c0 f   Actor.obj
 0001:00013690       ?PlayCycle@idActor@@QAE_NHPBDH@Z 20014690 f   Actor.obj
 0001:000138e0       ?IdleAnim@idActor@@QAEXHPBDH@Z 200148e0 f   Actor.obj
 0001:00013910       ?OverrideAnim@idActor@@QAEXH@Z 20014910 f   Actor.obj
 0001:00013920       ?HasAnim@idActor@@QAE_NHPBD_N@Z 20014920 f   Actor.obj
 0001:00013940       ?GetAnim@idActor@@QAEHHPBD_N@Z 20014940 f   Actor.obj
 0001:000139f0       ?AnimDone@idActor@@QAE_NHH@Z 200149f0 f   Actor.obj
 0001:00013a10       ?UpdateAnimState@idActor@@QAEXXZ 20014a10 f   Actor.obj
 0001:00013a40       ?SetAnimState@idActor@@QAEXHPBDHH@Z 20014a40 f   Actor.obj
 0001:00013ac0       ?PostAnimState@idActor@@QAEXHPBDHHH@Z 20014ac0 f   Actor.obj
 0001:00013af0       ?StopAnimState@idActor@@QAEXH@Z 20014af0 f   Actor.obj
 0001:00013b10       ?SpawnGibs@idActor@@UAEXABVidVec3@@PBD@Z 20014b10 f   Actor.obj
 0001:00013b30       ?GuidedProjectileIncoming@idActor@@UAEXPAVidGuidedProjectile@@@Z 20014b30 f   Actor.obj
 0001:00013b80       ?DebugFilter@idActor@@QBE_NABVidCVar@@@Z 20014b80 f   Actor.obj
 0001:00013bd0       ?SkipImpulse@idActor@@UAE_NPAVidEntity@@H@Z 20014bd0 f   Actor.obj
 0001:00013c40       ?Gib@idActor@@MAEXABVidVec3@@PBD@Z 20014c40 f   Actor.obj
 0001:00013d10       ?CheckDeathObjectives@idActor@@IAEXXZ 20014d10 f   Actor.obj
 0001:00013f20       ?EnterVehicle@idActor@@MAE_NPAVidEntity@@@Z 20014f20 f   Actor.obj
 0001:00013f90       ?ExitVehicle@idActor@@MAE_N_N@Z 20014f90 f   Actor.obj
 0001:00014150       ?RemoveAttachments@idActor@@IAEXXZ 20015150 f   Actor.obj
 0001:000141f0       ?FlashlightUpdate@idActor@@IAEX_N@Z 200151f0 f   Actor.obj
 0001:00014400       ?InitDeathPush@idActor@@IAEXABVidVec3@@HPBVidDict@@M@Z 20015400 f   Actor.obj
 0001:00014690       ?DeathPush@idActor@@IAEXXZ 20015690 f   Actor.obj
 0001:000147d0       ?GetDebugInfo@idActor@@MAEXP6AXPBD00PAX@Z1@Z 200157d0 f   Actor.obj
 0001:00014a30       ?FootStep@idActor@@MAEXXZ  20015a30 f   Actor.obj
 0001:00014af0       ?SetupHead@idActor@@MAEXPBDVidVec3@@@Z 20015af0 f   Actor.obj
 0001:00015250       ?SyncAnimChannels@idActor@@AAEXHHH@Z 20016250 f   Actor.obj
 0001:000154a0       ?FinishSetup@idActor@@AAEXXZ 200164a0 f   Actor.obj
 0001:000154e0       ?Event_EnableEyeFocus@idActor@@AAEXXZ 200164e0 f   Actor.obj
 0001:00015550       ?Event_DisableEyeFocus@idActor@@AAEXXZ 20016550 f   Actor.obj
 0001:000155b0       ?Event_EnableBlink@idActor@@AAEXXZ 200165b0 f   Actor.obj
 0001:00015610       ?Event_DisableBlink@idActor@@AAEXXZ 20016610 f   Actor.obj
 0001:00015620       ?Event_Footstep@idActor@@AAEXXZ 20016620 f   Actor.obj
 0001:00015630       ?Event_EnableWalkIK@idActor@@AAEXXZ 20016630 f   Actor.obj
 0001:00015640       ?Event_DisableWalkIK@idActor@@AAEXXZ 20016640 f   Actor.obj
 0001:00015650       ?Event_EnableLegIK@idActor@@AAEXH@Z 20016650 f   Actor.obj
 0001:00015660       ?Event_DisableLegIK@idActor@@AAEXH@Z 20016660 f   Actor.obj
 0001:00015670       ?Event_SetAnimPrefix@idActor@@AAEXPBD@Z 20016670 f   Actor.obj
 0001:00015680       ?Event_PreventPain@idActor@@AAEXM@Z 20016680 f   Actor.obj
 0001:000156b0       ?Event_DisablePain@idActor@@AAEXXZ 200166b0 f   Actor.obj
 0001:000156c0       ?Event_EnablePain@idActor@@AAEXXZ 200166c0 f   Actor.obj
 0001:000156d0       ?Event_StopAnim@idActor@@AAEXHH@Z 200166d0 f   Actor.obj
 0001:00015740       ?Event_PlayAnim@idActor@@AAEXHPBD@Z 20016740 f   Actor.obj
 0001:00015780       ?Event_PlayCycle@idActor@@AAEXHPBD@Z 20016780 f   Actor.obj
 0001:000157a0       ?Event_IdleAnim@idActor@@AAEXHPBD@Z 200167a0 f   Actor.obj
 0001:00015b00       ?Event_SetSyncedAnimWeight@idActor@@AAEXHHM@Z 20016b00 f   Actor.obj
 0001:00015cd0       ?Event_OverrideAnim@idActor@@AAEXH@Z 20016cd0 f   Actor.obj
 0001:00015dc0       ?Event_EnableAnim@idActor@@AAEXHH@Z 20016dc0 f   Actor.obj
 0001:00015e30       ?Event_SetBlendFrames@idActor@@AAEXHH@Z 20016e30 f   Actor.obj
 0001:00015ea0       ?Event_GetBlendFrames@idActor@@AAEXH@Z 20016ea0 f   Actor.obj
 0001:00015f10       ?Event_HasEnemies@idActor@@AAEXXZ 20016f10 f   Actor.obj
 0001:00015f20       ?Event_NextEnemy@idActor@@AAEXPAVidEntity@@@Z 20016f20 f   Actor.obj
 0001:00015fe0       ?Event_ClosestEnemyToPoint@idActor@@AAEXABVidVec3@@@Z 20016fe0 f   Actor.obj
 0001:00016010       ?Event_StopSound@idActor@@AAEXHH@Z 20017010 f   Actor.obj
 0001:00016070       ?Event_GetHead@idActor@@AAEXXZ 20017070 f   Actor.obj
 0001:000160b0       ?Event_Teleport@idActor@@AAEXAAVidVec3@@0@Z 200170b0 f   Actor.obj
 0001:000160e0       ?Event_Flashlight@idActor@@AAEX_N@Z 200170e0 f   Actor.obj
 0001:00016190       ?Event_EnterVehicle@idActor@@AAEXPAVidEntity@@@Z 20017190 f   Actor.obj
 0001:000161c0       ?Event_ExitVehicle@idActor@@AAEX_N@Z 200171c0 f   Actor.obj
 0001:000161f0       ?Event_PreExitVehicle@idActor@@AAEX_N@Z 200171f0 f   Actor.obj
 0001:000162c0       ?Event_SetAnimRate@idActor@@AAEXM@Z 200172c0 f   Actor.obj
 0001:000162e0       ?Event_DamageOverTime@idActor@@AAEXHHPAVidEntity@@0AAVidVec3@@PBDMH@Z 200172e0 f   Actor.obj
 0001:000163f0       ?Event_DamageOverTimeEffect@idActor@@EAEXHHPBD@Z 200173f0 f   Actor.obj
 0001:000164f0       ?Event_JointCrawlEffect@idActor@@AAEXPBDM@Z 200174f0 f   Actor.obj
 0001:000165d0       ?State_Wait_LegsAnim@idActor@@IAE?AW4stateResult_t@@ABUstateParms_t@@@Z 200175d0 f   Actor.obj
 0001:00016600       ?State_Wait_TorsoAnim@idActor@@IAE?AW4stateResult_t@@ABUstateParms_t@@@Z 20017600 f   Actor.obj
 0001:00016630       ?State_Wait_Frame@idActor@@IAE?AW4stateResult_t@@ABUstateParms_t@@@Z 20017630 f   Actor.obj
 0001:00016640       ?DisableAnimState@idActor@@IAEXH@Z 20017640 f   Actor.obj
 0001:00016650       ?EnableAnimState@idActor@@IAEXH@Z 20017650 f   Actor.obj
 0001:00016670       ?GetAnimState@idActor@@IAEAAVidAnimState@@H@Z 20017670 f   Actor.obj
 0001:000166c0       ?Register_idActor@@YAXXZ   200176c0 f   Actor.obj
 0001:000166d0       ??0?$idLinkList@UannouncerSoundNode_s@idMultiplayerGame@@@@QAE@XZ 200176d0 f i MultiplayerGame.obj
 0001:000166d0       ??0?$idLinkList@UstateCall_t@@@@QAE@XZ 200176d0 f i State.obj
 0001:000166d0       ??0?$idLinkList@VidAI@@@@QAE@XZ 200176d0 f i AI.obj
 0001:000166d0       ??0?$idLinkList@VidActor@@@@QAE@XZ 200176d0 f i Actor.obj
 0001:000166d0       ??0?$idLinkList@VidEntity@@@@QAE@XZ 200176d0 f i Entity.obj
 0001:000166d0       ??0?$idLinkList@VidEvent@@@@QAE@XZ 200176d0 f i Event.obj
 0001:000166d0       ??0?$idLinkList@VidMsgQueue@@@@QAE@XZ 200176d0 f i idLib:BitMsg.obj
 0001:000166d0       ??0?$idLinkList@VrvAIHelper@@@@QAE@XZ 200176d0 f i AI_Manager.obj
 0001:000166d0       ??0?$idLinkList@VrvClientEntity@@@@QAE@XZ 200176d0 f i ClientEntity.obj
 0001:000166d0       ??0?$idLinkList@VrvSplineMover@@@@QAE@XZ 200176d0 f i SplineMover.obj
 0001:000166f0       ??0idStr@@QAE@XZ           200176f0 f i Actor.obj
 0001:00016710       ??1?$idLinkList@UannouncerSoundNode_s@idMultiplayerGame@@@@QAE@XZ 20017710 f i Game_local.obj
 0001:00016710       ??1?$idLinkList@UstateCall_t@@@@QAE@XZ 20017710 f i State.obj
 0001:00016710       ??1?$idLinkList@VidAI@@@@QAE@XZ 20017710 f i AI.obj
 0001:00016710       ??1?$idLinkList@VidActor@@@@QAE@XZ 20017710 f i Actor.obj
 0001:00016710       ??1?$idLinkList@VidEntity@@@@QAE@XZ 20017710 f i Entity.obj
 0001:00016710       ??1?$idLinkList@VidEvent@@@@QAE@XZ 20017710 f i Event.obj
 0001:00016710       ??1?$idLinkList@VrvAIHelper@@@@QAE@XZ 20017710 f i AI_Manager.obj
 0001:00016710       ??1?$idLinkList@VrvClientEntity@@@@QAE@XZ 20017710 f i ClientEntity.obj
 0001:00016710       ??1?$idLinkList@VrvSplineMover@@@@QAE@XZ 20017710 f i SplineMover.obj
 0001:00016720       ??1?$idList@H@@QAE@XZ      20017720 f i Anim_Blend.obj
 0001:00016720       ??1?$idList@M@@QAE@XZ      20017720 f i Actor.obj
 0001:00016720       ??1?$idList@PAUaasFeature_s@@@@QAE@XZ 20017720 f i AAS_tactical.obj
 0001:00016720       ??1?$idList@PAUjointMod_t@@@@QAE@XZ 20017720 f i Anim_Blend.obj
 0001:00016720       ??1?$idList@PAUshard_s@@@@QAE@XZ 20017720 f i BrittleFracture.obj
 0001:00016720       ??1?$idList@PAVidAAS@@@@QAE@XZ 20017720 f i Game_local.obj
 0001:00016720       ??1?$idList@PAVidAFBody@@@@QAE@XZ 20017720 f i Physics_AF.obj
 0001:00016720       ??1?$idList@PAVidAFConstraint@@@@QAE@XZ 20017720 f i Physics_AF.obj
 0001:00016720       ??1?$idList@PAVidAFConstraint_Contact@@@@QAE@XZ 20017720 f i Physics_AF.obj
 0001:00016720       ??1?$idList@PAVidAFTree@@@@QAE@XZ 20017720 f i Physics_AF.obj
 0001:00016720       ??1?$idList@PAVidClip@@@@QAE@XZ 20017720 f i Game_local.obj
 0001:00016720       ??1?$idList@PAVidClipModel@@@@QAE@XZ 20017720 f i Physics_StaticMulti.obj
 0001:00016720       ??1?$idList@PAVidDict@@@@QAE@XZ 20017720 f i Player.obj
 0001:00016720       ??1?$idList@PAVidEntity@@@@QAE@XZ 20017720 f i Actor.obj
 0001:00016720       ??1?$idList@PAVidFixedWinding@@@@QAE@XZ 20017720 f i BrittleFracture.obj
 0001:00016720       ??1?$idList@PAVidMD5Anim@@@@QAE@XZ 20017720 f i Anim.obj
 0001:00016720       ??1?$idList@PAVidMapBrushSide@@@@QAE@XZ 20017720 f i idLib:mapfile.obj
 0001:00016720       ??1?$idList@PAVidMapEntity@@@@QAE@XZ 20017720 f i Game_local.obj
 0001:00016720       ??1?$idList@PAVidMapPrimitive@@@@QAE@XZ 20017720 f i GameEdit.obj
 0001:00016720       ??1?$idList@PAVidPlayer@@@@QAE@XZ 20017720 f i GameState.obj
 0001:00016720       ??1?$idList@PAVidPlayerStart@@@@QAE@XZ 20017720 f i Game_local.obj
 0001:00016720       ??1?$idList@PAVidPoolStr@@@@QAE@XZ 20017720 f i idLib:Dict.obj
 0001:00016720       ??1?$idList@PAVidStr@@@@QAE@XZ 20017720 f i Game_local.obj
 0001:00016720       ??1?$idList@PAVidThread@@@@QAE@XZ 20017720 f i Game_local.obj
 0001:00016720       ??1?$idList@PAVidTypeDef@@@@QAE@XZ 20017720 f i Script_Program.obj
 0001:00016720       ??1?$idList@PAVidVarDef@@@@QAE@XZ 20017720 f i Script_Program.obj
 0001:00016720       ??1?$idList@PAVidVarDefName@@@@QAE@XZ 20017720 f i Script_Program.obj
 0001:00016720       ??1?$idList@PAVrvClientMoveable@@@@QAE@XZ 20017720 f i Player.obj
 0001:00016720       ??1?$idList@PAVrvGravityArea@@@@QAE@XZ 20017720 f i Game_local.obj
 0001:00016720       ??1?$idList@PAVrvInstance@@@@QAE@XZ 20017720 f i Game_local.obj
 0001:00016720       ??1?$idList@PAVrvSplineMover@@@@QAE@XZ 20017720 f i SplineMover.obj
 0001:00016720       ??1?$idList@PBVfunction_t@@@@QAE@XZ 20017720 f i Script_Program.obj
 0001:00016720       ??1?$idList@PBVidClass@@@@QAE@XZ 20017720 f i SaveGame.obj
 0001:00016720       ??1?$idList@PBVidPoolStr@@@@QAE@XZ 20017720 f i idLib:Dict.obj
 0001:00016720       ??1?$idList@UAFCollision_s@@@@QAE@XZ 20017720 f i Physics_AF.obj
 0001:00016720       ??1?$idList@UaasLocation_t@@@@QAE@XZ 20017720 f i Player.obj
 0001:00016720       ??1?$idList@UaiAvoid_s@@@@QAE@XZ 20017720 f i AI_Manager.obj
 0001:00016720       ??1?$idList@UcameraFrame_t@@@@QAE@XZ 20017720 f i Camera.obj
 0001:00016720       ??1?$idList@UcontactInfo_t@@@@QAE@XZ 20017720 f i Physics_Base.obj
 0001:00016720       ??1?$idList@UframeCommand_t@@@@QAE@XZ 20017720 f i Anim_Blend.obj
 0001:00016720       ??1?$idList@UframeLookup_t@@@@QAE@XZ 20017720 f i Anim_Blend.obj
 0001:00016720       ??1?$idList@UjointInfo_t@@@@QAE@XZ 20017720 f i Anim_Blend.obj
 0001:00016720       ??1?$idList@UrvAIAttackAnimInfo_s@@@@QAE@XZ 20017720 f i AI.obj
 0001:00016720       ??1?$idList@Usignal_t@@@@QAE@XZ 20017720 f i Entity.obj
 0001:00016720       ??1?$idList@UspawnSpot_t@@@@QAE@XZ 20017720 f i Game_local.obj
 0001:00016720       ??1?$idList@UsurfaceEdge_s@@@@QAE@XZ 20017720 f i idLib:Surface.obj
 0001:00016720       ??1?$idList@V?$idEntityPtr@VidEntity@@@@@@QAE@XZ 20017720 f i Entity.obj
 0001:00016720       ??1?$idList@V?$idEntityPtr@VrvCTF_AssaultPoint@@@@@@QAE@XZ 20017720 f i MultiplayerGame.obj
 0001:00016720       ??1?$idList@V?$idEntityPtr@VrvSplineMover@@@@@@QAE@XZ 20017720 f i SplineMover.obj
 0001:00016720       ??1?$idList@V?$rvPair@HM@@@@QAE@XZ 20017720 f i MultiplayerGame.obj
 0001:00016720       ??1?$idList@V?$rvPair@H_N@@@@QAE@XZ 20017720 f i StatManager.obj
 0001:00016720       ??1?$idList@V?$rvPair@PAVidPlayer@@H@@@@QAE@XZ 20017720 f i GameState.obj
 0001:00016720       ??1?$idList@V?$rvPair@PAVrvIcon@@H@@@@QAE@XZ 20017720 f i IconManager.obj
 0001:00016720       ??1?$idList@V?$rvPair@PAVrvStat@@H@@@@QAE@XZ 20017720 f i StatManager.obj
 0001:00016720       ??1?$idList@VidAFPoseJointMod@@@@QAE@XZ 20017720 f i Anim_Blend.obj
 0001:00016720       ??1?$idList@VidAngles@@@@QAE@XZ 20017720 f i AI.obj
 0001:00016720       ??1?$idList@VidAttachInfo@@@@QAE@XZ 20017720 f i Actor.obj
 0001:00016720       ??1?$idList@VidDrawVert@@@@QAE@XZ 20017720 f i idLib:Surface.obj
 0001:00016720       ??1?$idList@VidKeyValue@@@@QAE@XZ 20017720 f i Actor.obj
 0001:00016720       ??1?$idList@VidStaticPState@@@@QAE@XZ 20017720 f i Physics_StaticMulti.obj
 0001:00016720       ??1?$idList@W4jointHandle_t@@@@QAE@XZ 20017720 f i Actor.obj
 0001:00016720       ??1?$idList@_N@@QAE@XZ     20017720 f i BrittleFracture.obj
 0001:000167a0       ??1?$idList@VidStr@@@@QAE@XZ 200177a0 f i Actor.obj
 0001:00016820       ??1idDict@@QAE@XZ          20017820 f i Actor.obj
 0001:000168c0       ??1idHashIndex@@QAE@XZ     200178c0 f i Actor.obj
 0001:000168f0       ??1idStr@@QAE@XZ           200178f0 f i Actor.obj
 0001:00016920       ??2@YAPAXI@Z               20017920 f i Actor.obj
 0001:00016920       ??_U@YAPAXI@Z              20017920 f i Actor.obj
 0001:00016920       ?Allocate@Memory@@SAPAXI@Z 20017920 f i Anim_Import.obj
 0001:00016950       ??4idMat3@@QAEAAV0@$$QAV0@@Z 20017950 f i AF.obj
 0001:00016950       ??4idMat3@@QAEAAV0@ABV0@@Z 20017950 f i Actor.obj
 0001:00016990       ??_EidStr@@QAEPAXI@Z       20017990 f i Actor.obj
 0001:00016a30       ??_EidActor@@UAEPAXI@Z     20017a30 f i Actor.obj
 0001:00016a30       ??_ErvModviewModel@@UAEPAXI@Z 20017a30 f i GameEdit.obj
 0001:00016a30       ??_GidActor@@UAEPAXI@Z     20017a30 f i Actor.obj
 0001:00016a30       ??_GrvModviewModel@@UAEPAXI@Z 20017a30 f i GameEdit.obj
 0001:00016a70       ??3@YAXPAX@Z               20017a70 f i AF.obj
 0001:00016a70       ??_V@YAXPAX@Z              20017a70 f i Actor.obj
 0001:00016ad0       ?AdjustHealthByDamage@idActor@@UAEXH@Z 20017ad0 f i Actor.obj
 0001:00016ae0       ?CanTakeDamage@idAI@@UBE_NXZ 20017ae0 f i AI.obj
 0001:00016ae0       ?CanTakeDamage@idEntity@@UBE_NXZ 20017ae0 f i Actor.obj
 0001:00016af0       ?Clear@?$idLinkList@UannouncerSoundNode_s@idMultiplayerGame@@@@QAEXXZ 20017af0 f i Game_local.obj
 0001:00016af0       ?Clear@?$idLinkList@UstateCall_t@@@@QAEXXZ 20017af0 f i State.obj
 0001:00016af0       ?Clear@?$idLinkList@VidAI@@@@QAEXXZ 20017af0 f i AI.obj
 0001:00016af0       ?Clear@?$idLinkList@VidActor@@@@QAEXXZ 20017af0 f i Actor.obj
 0001:00016af0       ?Clear@?$idLinkList@VidEntity@@@@QAEXXZ 20017af0 f i Entity.obj
 0001:00016af0       ?Clear@?$idLinkList@VidEvent@@@@QAEXXZ 20017af0 f i Event.obj
 0001:00016af0       ?Clear@?$idLinkList@VidMsgQueue@@@@QAEXXZ 20017af0 f i idLib:BitMsg.obj
 0001:00016af0       ?Clear@?$idLinkList@VrvAIHelper@@@@QAEXXZ 20017af0 f i AI_Manager.obj
 0001:00016af0       ?Clear@?$idLinkList@VrvClientEntity@@@@QAEXXZ 20017af0 f i ClientEntity.obj
 0001:00016af0       ?Clear@?$idLinkList@VrvSplineMover@@@@QAEXXZ 20017af0 f i SplineMover.obj
 0001:00016b20       ?Collide@idEntity@@UAE_NABUtrace_t@@ABVidVec3@@AA_N@Z 20017b20 f i Actor.obj
 0001:00016b40       ?GetAnimator@idAnimatedEntity@@UBEPBVidAnimator@@XZ 20017b40 f i Actor.obj
 0001:00016b50       ?GetClipWorld@idEntity@@UBEHXZ 20017b50 f i Actor.obj
 0001:00016b50       ?GetClipWorld@idPlayer@@UBEHXZ 20017b50 f i Player.obj
 0001:00016b60       ?GetInstance@idEntity@@UBEHXZ 20017b60 f i Actor.obj
 0001:00016b70       ?GetLastBlocker@idEntity@@UAEHXZ 20017b70 f i Actor.obj
 0001:00016b80       ?GetRefSoundShaderFlags@idEntity@@UBEHXZ 20017b80 f i Actor.obj
 0001:00016b90       ?InsertBefore@?$idLinkList@UannouncerSoundNode_s@idMultiplayerGame@@@@QAEXAAV1@@Z 20017b90 f i MultiplayerGame.obj
 0001:00016b90       ?InsertBefore@?$idLinkList@UstateCall_t@@@@QAEXAAV1@@Z 20017b90 f i State.obj
 0001:00016b90       ?InsertBefore@?$idLinkList@VidAI@@@@QAEXAAV1@@Z 20017b90 f i AI_Manager.obj
 0001:00016b90       ?InsertBefore@?$idLinkList@VidActor@@@@QAEXAAV1@@Z 20017b90 f i Actor.obj
 0001:00016b90       ?InsertBefore@?$idLinkList@VidEntity@@@@QAEXAAV1@@Z 20017b90 f i Entity.obj
 0001:00016b90       ?InsertBefore@?$idLinkList@VidEvent@@@@QAEXAAV1@@Z 20017b90 f i Event.obj
 0001:00016b90       ?InsertBefore@?$idLinkList@VidMsgQueue@@@@QAEXAAV1@@Z 20017b90 f i idLib:BitMsg.obj
 0001:00016b90       ?InsertBefore@?$idLinkList@VrvAIHelper@@@@QAEXAAV1@@Z 20017b90 f i AI_Manager.obj
 0001:00016b90       ?InsertBefore@?$idLinkList@VrvClientEntity@@@@QAEXAAV1@@Z 20017b90 f i ClientEntity.obj
 0001:00016b90       ?InsertBefore@?$idLinkList@VrvSplineMover@@@@QAEXAAV1@@Z 20017b90 f i SplineMover.obj
 0001:00016bc0       ?ClientStale@rvClientPhysics@@UAE_NXZ 20017bc0 f i ClientEntity.obj
 0001:00016bc0       ?IsCrouching@idActor@@UBE_NXZ 20017bc0 f i Actor.obj
 0001:00016bc0       ?NoFireWhileSwitching@rvWeapon@@UBE_NXZ 20017bc0 f i Weapon.obj
 0001:00016bc0       ?RebuildTextSource@idDeclCameraDef@@UAE_NXZ 20017bc0 f i Camera.obj
 0001:00016bc0       ?RebuildTextSource@idDeclModelDef@@UAE_NXZ 20017bc0 f i Anim_Blend.obj
 0001:00016bd0       ?AdjustOrigin@idMapPrimitive@@UAEXAAVidVec3@@@Z 20017bd0 f i idLib:mapfile.obj
 0001:00016bd0       ?GuidedProjectileIncoming@idEntity@@UAEXPAVidGuidedProjectile@@@Z 20017bd0 f i AFEntity.obj
 0001:00016bd0       ?Impulse@rvVehiclePart@@UAEXH@Z 20017bd0 f i VehicleParts.obj
 0001:00016bd0       ?InternalSetBool@idCVar@@EAEX_N@Z 20017bd0 f i Anim_Blend.obj
 0001:00016bd0       ?InternalSetFloat@idCVar@@EAEXM@Z 20017bd0 f i Anim_Blend.obj
 0001:00016bd0       ?InternalSetInteger@idCVar@@EAEXH@Z 20017bd0 f i Anim_Blend.obj
 0001:00016bd0       ?InternalSetString@idCVar@@EAEXPBD@Z 20017bd0 f i Anim_Blend.obj
 0001:00016bd0       ?LastBlockedBy@idEntity@@UAEXH@Z 20017bd0 f i Actor.obj
 0001:00016bd0       ?RegisterInGame@rvStat@@MAEXPAVrvPlayerStat@@@Z 20017bd0 f i StatEvent.obj
 0001:00016bd0       ?RepeaterClientBegin@idGameLocal@@UAEXH@Z 20017bd0 f i Game_local.obj
 0001:00016bd0       ?RepeaterClientConnect@idGameLocal@@UAEXH@Z 20017bd0 f i Game_local.obj
 0001:00016bd0       ?RepeaterClientDisconnect@idGameLocal@@UAEXH@Z 20017bd0 f i Game_local.obj
 0001:00016bd0       ?RepeaterWriteInitialReliableMessages@idGameLocal@@UAEXH@Z 20017bd0 f i Game_local.obj
 0001:00016bd0       ?Restore@idClass@@QAEXPAVidRestoreGame@@@Z 20017bd0 f i Class.obj
 0001:00016bd0       ?Save@idClass@@QBEXPAVidSaveGame@@@Z 20017bd0 f i Class.obj
 0001:00016bd0       ?Save@rvAITetherBehind@@QBEXPAVidSaveGame@@@Z 20017bd0 f i AI_Util.obj
 0001:00016bd0       ?Save@rvAITetherRadius@@QBEXPAVidSaveGame@@@Z 20017bd0 f i AI_Util.obj
 0001:00016bd0       ?SetupLoadingGui@idGameLocal@@UAEXPAVidUserInterface@@@Z 20017bd0 f i Game_local.obj
 0001:00016be0       ?Num@?$idLinkList@UstateCall_t@@@@QBEHXZ 20017be0 f i State.obj
 0001:00016be0       ?Num@?$idLinkList@VidActor@@@@QBEHXZ 20017be0 f i Actor.obj
 0001:00016be0       ?Num@?$idLinkList@VidEntity@@@@QBEHXZ 20017be0 f i Game_local.obj
 0001:00016be0       ?Num@?$idLinkList@VidEvent@@@@QBEHXZ 20017be0 f i Event.obj
 0001:00016be0       ?Num@?$idLinkList@VrvClientEntity@@@@QBEHXZ 20017be0 f i Entity.obj
 0001:00016c00       ?ProjectHeadOverlay@idAnimatedEntity@@UAEXABVidVec3@@0MPBD@Z 20017c00 f i Actor.obj
 0001:00016c10       ?Remove@?$idLinkList@UannouncerSoundNode_s@idMultiplayerGame@@@@QAEXXZ 20017c10 f i Game_local.obj
 0001:00016c10       ?Remove@?$idLinkList@UstateCall_t@@@@QAEXXZ 20017c10 f i State.obj
 0001:00016c10       ?Remove@?$idLinkList@VidAI@@@@QAEXXZ 20017c10 f i AI.obj
 0001:00016c10       ?Remove@?$idLinkList@VidActor@@@@QAEXXZ 20017c10 f i Actor.obj
 0001:00016c10       ?Remove@?$idLinkList@VidEntity@@@@QAEXXZ 20017c10 f i Entity.obj
 0001:00016c10       ?Remove@?$idLinkList@VidEvent@@@@QAEXXZ 20017c10 f i Event.obj
 0001:00016c10       ?Remove@?$idLinkList@VidMsgQueue@@@@QAEXXZ 20017c10 f i idLib:BitMsg.obj
 0001:00016c10       ?Remove@?$idLinkList@VrvAIHelper@@@@QAEXXZ 20017c10 f i AI_Manager.obj
 0001:00016c10       ?Remove@?$idLinkList@VrvClientEntity@@@@QAEXXZ 20017c10 f i ClientEntity.obj
 0001:00016c10       ?Remove@?$idLinkList@VrvSplineMover@@@@QAEXXZ 20017c10 f i SplineMover.obj
 0001:00016c30       ?SetClipWorld@idEntity@@UAEXH@Z 20017c30 f i Actor.obj
 0001:00016c70       ?SetOwner@?$idHierarchy@VidTypeInfo@@@@QAEXPAVidTypeInfo@@@Z 20017c70 f i Class.obj
 0001:00016c70       ?SetOwner@?$idLinkList@UannouncerSoundNode_s@idMultiplayerGame@@@@QAEXPAUannouncerSoundNode_s@idMultiplayerGame@@@Z 20017c70 f i MultiplayerGame.obj
 0001:00016c70       ?SetOwner@?$idLinkList@UstateCall_t@@@@QAEXPAUstateCall_t@@@Z 20017c70 f i State.obj
 0001:00016c70       ?SetOwner@?$idLinkList@VidAI@@@@QAEXPAVidAI@@@Z 20017c70 f i AI.obj
 0001:00016c70       ?SetOwner@?$idLinkList@VidActor@@@@QAEXPAVidActor@@@Z 20017c70 f i Actor.obj
 0001:00016c70       ?SetOwner@?$idLinkList@VidEntity@@@@QAEXPAVidEntity@@@Z 20017c70 f i Entity.obj
 0001:00016c70       ?SetOwner@?$idLinkList@VidEvent@@@@QAEXPAVidEvent@@@Z 20017c70 f i Event.obj
 0001:00016c70       ?SetOwner@?$idLinkList@VidMsgQueue@@@@QAEXPAVidMsgQueue@@@Z 20017c70 f i idLib:BitMsg.obj
 0001:00016c70       ?SetOwner@?$idLinkList@VrvAIHelper@@@@QAEXPAVrvAIHelper@@@Z 20017c70 f i AI_Util.obj
 0001:00016c70       ?SetOwner@?$idLinkList@VrvClientEntity@@@@QAEXPAVrvClientEntity@@@Z 20017c70 f i ClientEntity.obj
 0001:00016c70       ?SetOwner@?$idLinkList@VrvSplineMover@@@@QAEXPAVrvSplineMover@@@Z 20017c70 f i SplineMover.obj
 0001:00016c80       ?SetRefSoundShaderFlags@idEntity@@UAEXH@Z 20017c80 f i Actor.obj
 0001:00016c90       ??1element_s@?$idBlockAlloc@UentityState_s@@$0BAA@$0BL@@@QAE@XZ 20017c90 f i Game_local.obj
 0001:00016c90       ?CleanupWeapon@rvWeapon@@UAEXXZ 20017c90 f i Weapon.obj
 0001:00016c90       ?ClientUnstale@rvClientPhysics@@UAEXXZ 20017c90 f i ClientEntity.obj
 0001:00016c90       ?ClientUnstale@rvWeapon@@UAEXXZ 20017c90 f i Weapon.obj
 0001:00016c90       ?DebugDraw@idPhysics@@UAEXXZ 20017c90 f i Physics.obj
 0001:00016c90       ?Event_PostRestore@idClass@@QAEXXZ 20017c90 f i Class.obj
 0001:00016c90       ?OnDeath@rvVehicle@@EAEXXZ 20017c90 f i Vehicle.obj
 0001:00016c90       ?PostSave@rvWeapon@@UAEXXZ 20017c90 f i Weapon.obj
 0001:00016c90       ?PreSave@rvWeapon@@UAEXXZ  20017c90 f i Weapon.obj
 0001:00016c90       ?Present@rvVehicleDriver@@UAEXXZ 20017c90 f i VehicleDriver.obj
 0001:00016c90       ?RepeaterEndSnapshots@idGameLocal@@UAEXXZ 20017c90 f i Game_local.obj
 0001:00016c90       ?RunPhysics@rvVehiclePart@@UAEXXZ 20017c90 f i VehicleParts.obj
 0001:00016c90       ?RunPostPhysics@rvVehicle@@MAEXXZ 20017c90 f i Monster_ConvoyHover.obj
 0001:00016c90       ?RunPostPhysics@rvVehiclePart@@UAEXXZ 20017c90 f i VehicleParts.obj
 0001:00016c90       ?RunPrePhysics@rvVehicle@@MAEXXZ 20017c90 f i Monster_ConvoyHover.obj
 0001:00016c90       ?RunPrePhysics@rvVehiclePart@@UAEXXZ 20017c90 f i VehicleParts.obj
 0001:00016c90       ?SpectatorCycle@rvWeapon@@UAEXXZ 20017c90 f i Weapon.obj
 0001:00016c90       ?Stop@idCamera@@UAEXXZ     20017c90 f i Camera.obj
 0001:00016c90       ?__empty_global_delete@@YAXPAXI@Z 20017c90 f i Actor.obj
 0001:00016c90       ?__global_delete@@YAXPAXI@Z 20017c90 f i Actor.obj
 0001:00016c90       @_guard_check_icall_nop@4  20017c90 f i LIBCMT:guard_support.obj
 0001:00016ca0       ??0idAF@@QAE@XZ            20017ca0 f   AF.obj
 0001:00016e20       ??1idAF@@QAE@XZ            20017e20 f   AF.obj
 0001:00016f10       ?Save@idAF@@QBEXPAVidSaveGame@@@Z 20017f10 f   AF.obj
 0001:00016fb0       ?Restore@idAF@@QAEXPAVidRestoreGame@@@Z 20017fb0 f   AF.obj
 0001:000170e0       ?Load@idAF@@QAE_NPAVidEntity@@PBD_N@Z 200180e0 f   AF.obj
 0001:00017960       ?SetupPose@idAF@@QAEXPAVidEntity@@H@Z 20018960 f   AF.obj
 0001:00017eb0       ?ChangePose@idAF@@QAEXPAVidEntity@@H@Z 20018eb0 f   AF.obj
 0001:000184a0       ?EntitiesTouchingAF@idAF@@QBEHQAUafTouch_s@@@Z 200194a0 f   AF.obj
 0001:00018680       ?Start@idAF@@QAEXXZ        20019680 f   AF.obj
 0001:000186e0       ?StartFromCurrentPose@idAF@@QAEXH@Z 200196e0 f   AF.obj
 0001:00018780       ?Stop@idAF@@QAEXXZ         20019780 f   AF.obj
 0001:000187a0       ?Rest@idAF@@QAEXXZ         200197a0 f   AF.obj
 0001:000187b0       ?SetConstraintPosition@idAF@@QAEXPBDABVidVec3@@@Z 200197b0 f   AF.obj
 0001:000188a0       ?GetBounds@idAF@@QBE?AVidBounds@@XZ 200198a0 f   AF.obj
 0001:00018ee0       ?UpdateAnimation@idAF@@QAE_NXZ 20019ee0 f   AF.obj
 0001:00019810       ?GetPhysicsToVisualTransform@idAF@@QBEXAAVidVec3@@AAVidMat3@@@Z 2001a810 f   AF.obj
 0001:000198d0       ?GetImpactInfo@idAF@@QAEXPAVidEntity@@HABVidVec3@@PAUimpactInfo_s@@@Z 2001a8d0 f   AF.obj
 0001:00019910       ?ApplyImpulse@idAF@@QAEXPAVidEntity@@HABVidVec3@@1@Z 2001a910 f   AF.obj
 0001:00019950       ?AddForce@idAF@@QAEXPAVidEntity@@HABVidVec3@@1@Z 2001a950 f   AF.obj
 0001:00019990       ?BodyForClipModelId@idAF@@QBEHH@Z 2001a990 f   AF.obj
 0001:000199c0       ?SaveState@idAF@@QBEXAAVidDict@@@Z 2001a9c0 f   AF.obj
 0001:00019c40       ?LoadState@idAF@@QAEXABVidDict@@@Z 2001ac40 f   AF.obj
 0001:00019e00       ?AddBindConstraints@idAF@@QAEXXZ 2001ae00 f   AF.obj
 0001:0001ab80       ?RemoveBindConstraints@idAF@@QAEXXZ 2001bb80 f   AF.obj
 0001:0001aca0       ?TestSolid@idAF@@QBE_NXZ   2001bca0 f   AF.obj
 0001:0001ae80       ?SetBase@idAF@@IAEXPAVidAFBody@@PBVidJointMat@@@Z 2001be80 f   AF.obj
 0001:0001af40       ?AddBody@idAF@@IAEXPAVidAFBody@@PBVidJointMat@@PBDW4AFJointModType_t@@@Z 2001bf40 f   AF.obj
 0001:0001b470       ?LoadBody@idAF@@IAE_NPBVidDeclAF_Body@@PBVidJointMat@@@Z 2001c470 f   AF.obj
 0001:0001bf90       ?LoadConstraint@idAF@@IAE_NPBVidDeclAF_Constraint@@@Z 2001cf90 f   AF.obj
 0001:0001c910       ??1debugJumpPoint_s@@QAE@XZ 2001d910 f i Game_Debug.obj
 0001:0001c910       ??1idToken@@QAE@XZ         2001d910 f i AF.obj
 0001:0001c910       ??1mpBanInfo_s@@QAE@XZ     2001d910 f i Game_local.obj
 0001:0001c950       ___local_stdio_scanf_options 2001d950 f i AF.obj
 0001:0001c960       _sscanf                    2001d960 f i AF.obj
 0001:0001c9a0       ?AF_SpawnEntity@idGameEdit@@UAE_NPBD@Z 2001d9a0 f   AFEntity.obj
 0001:0001cd80       ?AF_UpdateEntities@idGameEdit@@UAEXPBD@Z 2001dd80 f   AFEntity.obj
 0001:0001ce70       ?AF_UndoChanges@idGameEdit@@UAEXXZ 2001de70 f   AFEntity.obj
 0001:0001cf70       ?AF_CreateMesh@idGameEdit@@UAEPAVidRenderModel@@ABVidDict@@AAVidVec3@@AAVidMat3@@AA_N@Z 2001df70 f   AFEntity.obj
 0001:0001ea70       ?RegisterClassA@idMultiModelAF@@SAXXZ 2001fa70 f   AFEntity.obj
 0001:0001eb30       ?CreateInstance@idMultiModelAF@@SAPAVidClass@@XZ 2001fb30 f   AFEntity.obj
 0001:0001ec40       ?GetClassType@idMultiModelAF@@SAAAVidTypeInfo@@XZ 2001fc40 f   AFEntity.obj
 0001:0001ec50       ?GetType@idMultiModelAF@@UBEPAVidTypeInfo@@XZ 2001fc50 f   AFEntity.obj
 0001:0001ec60       ?Spawn@idMultiModelAF@@QAEXXZ 2001fc60 f   AFEntity.obj
 0001:0001ec80       ??1idMultiModelAF@@UAE@XZ  2001fc80 f   AFEntity.obj
 0001:0001ede0       ?Think@idMultiModelAF@@UAEXXZ 2001fde0 f   AFEntity.obj
 0001:0001edf0       ?Present@idMultiModelAF@@UAEXXZ 2001fdf0 f   AFEntity.obj
 0001:0001ef30       ?SetModelForId@idMultiModelAF@@IAEXHABVidStr@@@Z 2001ff30 f   AFEntity.obj
 0001:0001f2a0       ?RegisterClassA@idChain@@SAXXZ 200202a0 f   AFEntity.obj
 0001:0001f360       ?CreateInstance@idChain@@SAPAVidClass@@XZ 20020360 f   AFEntity.obj
 0001:0001f470       ?GetClassType@idChain@@SAAAVidTypeInfo@@XZ 20020470 f   AFEntity.obj
 0001:0001f480       ?GetType@idChain@@UBEPAVidTypeInfo@@XZ 20020480 f   AFEntity.obj
 0001:0001f490       ?Spawn@idChain@@QAEXXZ     20020490 f   AFEntity.obj
 0001:0001f700       ?BuildChain@idChain@@IAEXABVidStr@@ABVidVec3@@MMMH_N@Z 20020700 f   AFEntity.obj
 0001:00020090       ?RegisterClassA@idAFAttachment@@SAXXZ 20021090 f   AFEntity.obj
 0001:00020150       ?CreateInstance@idAFAttachment@@SAPAVidClass@@XZ 20021150 f   AFEntity.obj
 0001:000201f0       ?GetClassType@idAFAttachment@@SAAAVidTypeInfo@@XZ 200211f0 f   AFEntity.obj
 0001:00020200       ?GetType@idAFAttachment@@UBEPAVidTypeInfo@@XZ 20021200 f   AFEntity.obj
 0001:00020210       ??0idAFAttachment@@QAE@XZ  20021210 f   AFEntity.obj
 0001:000202b0       ??1idAFAttachment@@UAE@XZ  200212b0 f   AFEntity.obj
 0001:00020380       ?Spawn@idAFAttachment@@QAEXXZ 20021380 f   AFEntity.obj
 0001:00020520       ?Save@idAFAttachment@@QBEXPAVidSaveGame@@@Z 20021520 f   AFEntity.obj
 0001:00020600       ?Restore@idAFAttachment@@QAEXPAVidRestoreGame@@@Z 20021600 f   AFEntity.obj
 0001:000208c0       ?SetBody@idAFAttachment@@QAEXPAVidAnimatedEntity@@PBDW4jointHandle_t@@@Z 200218c0 f   AFEntity.obj
 0001:00020970       ?ClearBody@idAFAttachment@@QAEXXZ 20021970 f   AFEntity.obj
 0001:00020990       ?GetBody@idAFAttachment@@QBEPAVidEntity@@XZ 20021990 f   AFEntity.obj
 0001:000209c0       ?Think@idAFAttachment@@UAEXXZ 200219c0 f   AFEntity.obj
 0001:000209d0       ?Hide@idAFAttachment@@UAEXXZ 200219d0 f   AFEntity.obj
 0001:000209f0       ?Show@idAFAttachment@@UAEXXZ 200219f0 f   AFEntity.obj
 0001:00020a10       ?UpdateAnimationControllers@idAFAttachment@@UAE_NXZ 20021a10 f   AFEntity.obj
 0001:00020a20       ?PlayIdleAnim@idAFAttachment@@QAEXHH@Z 20021a20 f   AFEntity.obj
 0001:00020a70       ?GetDamageEntity@idAFAttachment@@UAEPAVidEntity@@XZ 20021a70 f   AFEntity.obj
 0001:00020ad0       ?GetPhysicsToSoundTransform@idAFAttachment@@UAE_NAAVidVec3@@AAVidMat3@@@Z 20021ad0 f   AFEntity.obj
 0001:00020be0       ?Event_PlayAnim@idAFAttachment@@QAEXHPBD@Z 20021be0 f   AFEntity.obj
 0001:00020ca0       ?Event_PlayCycle@idAFAttachment@@QAEXHPBD@Z 20021ca0 f   AFEntity.obj
 0001:00020d30       ?Event_ClearAnims@idAFAttachment@@QAEXXZ 20021d30 f   AFEntity.obj
 0001:00020d50       ?GetImpactInfo@idAFAttachment@@UAEXPAVidEntity@@HABVidVec3@@PAUimpactInfo_s@@@Z 20021d50 f   AFEntity.obj
 0001:00020dc0       ?ApplyImpulse@idAFAttachment@@UAEXPAVidEntity@@HABVidVec3@@1_N@Z 20021dc0 f   AFEntity.obj
 0001:00020e30       ?AddForce@idAFAttachment@@UAEXPAVidEntity@@HABVidVec3@@1@Z 20021e30 f   AFEntity.obj
 0001:00020ea0       ?Damage@idAFAttachment@@UAEXPAVidEntity@@0ABVidVec3@@PBDMH@Z 20021ea0 f   AFEntity.obj
 0001:00020f00       ?CanPlayImpactEffect@idAFAttachment@@UAE_NPAVidEntity@@0@Z 20021f00 f   AFEntity.obj
 0001:00020f60       ?AddDamageEffect@idAFAttachment@@UAEXABUtrace_t@@ABVidVec3@@PBDPAVidEntity@@@Z 20021f60 f   AFEntity.obj
 0001:00020fd0       ?SetCombatModel@idAFAttachment@@QAEXXZ 20021fd0 f   AFEntity.obj
 0001:000210b0       ?GetCombatModel@idAFAttachment@@QBEPAVidClipModel@@XZ 200220b0 f   AFEntity.obj
 0001:000210c0       ?LinkCombat@idAFAttachment@@UAEXXZ 200220c0 f   AFEntity.obj
 0001:00021100       ?UnlinkCombat@idAFAttachment@@UAEXXZ 20022100 f   AFEntity.obj
 0001:00021110       ?InitCopyJoints@idAFAttachment@@QAEXXZ 20022110 f   AFEntity.obj
 0001:00021550       ?CopyJointsFromBody@idAFAttachment@@QAEXXZ 20022550 f   AFEntity.obj
 0001:00021920       ?GetNoPlayerImpactFX@idAFAttachment@@QAE_NXZ 20022920 f   AFEntity.obj
 0001:00021980       ?RegisterClassA@idAFEntity_Base@@SAXXZ 20022980 f   AFEntity.obj
 0001:00021a40       ?CreateInstance@idAFEntity_Base@@SAPAVidClass@@XZ 20022a40 f   AFEntity.obj
 0001:00021ae0       ?GetClassType@idAFEntity_Base@@SAAAVidTypeInfo@@XZ 20022ae0 f   AFEntity.obj
 0001:00021af0       ?GetType@idAFEntity_Base@@UBEPAVidTypeInfo@@XZ 20022af0 f   AFEntity.obj
 0001:00021b00       ??0idAFEntity_Base@@QAE@XZ 20022b00 f   AFEntity.obj
 0001:00021c20       ??1idAFEntity_Base@@UAE@XZ 20022c20 f   AFEntity.obj
 0001:00021c70       ?Spawn@idAFEntity_Base@@QAEXXZ 20022c70 f   AFEntity.obj
 0001:00021d40       ?Save@idAFEntity_Base@@QBEXPAVidSaveGame@@@Z 20022d40 f   AFEntity.obj
 0001:00021db0       ?Restore@idAFEntity_Base@@QAEXPAVidRestoreGame@@@Z 20022db0 f   AFEntity.obj
 0001:00021e30       ?Think@idAFEntity_Base@@UAEXXZ 20022e30 f   AFEntity.obj
 0001:00021ec0       ?GetImpactInfo@idAFEntity_Base@@UAEXPAVidEntity@@HABVidVec3@@PAUimpactInfo_s@@@Z 20022ec0 f   AFEntity.obj
 0001:00021ee0       ?ApplyImpulse@idAFEntity_Base@@UAEXPAVidEntity@@HABVidVec3@@1_N@Z 20022ee0 f   AFEntity.obj
 0001:00021fc0       ?AddForce@idAFEntity_Base@@UAEXPAVidEntity@@HABVidVec3@@1@Z 20022fc0 f   AFEntity.obj
 0001:00022020       ?CanPlayImpactEffect@idAFEntity_Base@@UAE_NPAVidEntity@@0@Z 20023020 f   AFEntity.obj
 0001:00022080       ?Collide@idAFEntity_Base@@UAE_NABUtrace_t@@ABVidVec3@@@Z 20023080 f   AFEntity.obj
 0001:00022150       ?GetPhysicsToVisualTransform@idAFEntity_Base@@UAE_NAAVidVec3@@AAVidMat3@@@Z 20023150 f   AFEntity.obj
 0001:00022180       ?UpdateAnimationControllers@idAFEntity_Base@@UAE_NXZ 20023180 f   AFEntity.obj
 0001:000221a0       ?FreeModelDef@idAFEntity_Base@@UAEXXZ 200231a0 f   AFEntity.obj
 0001:000221c0       ?LoadAF@idAFEntity_Base@@UAE_NPBD@Z 200231c0 f   AFEntity.obj
 0001:00022330       ?SetCombatModel@idAFEntity_Base@@QAEXXZ 20023330 f   AFEntity.obj
 0001:000223e0       ?GetCombatModel@idAFEntity_Base@@QBEPAVidClipModel@@XZ 200233e0 f   AFEntity.obj
 0001:000223f0       ?SetCombatContents@idAFEntity_Base@@QAEX_N@Z 200233f0 f   AFEntity.obj
 0001:00022450       ?LinkCombat@idAFEntity_Base@@UAEXXZ 20023450 f   AFEntity.obj
 0001:00022490       ?UnlinkCombat@idAFEntity_Base@@UAEXXZ 20023490 f   AFEntity.obj
 0001:000224a0       ?BodyForClipModelId@idAFEntity_Base@@QBEHH@Z 200234a0 f   AFEntity.obj
 0001:000224b0       ?SaveState@idAFEntity_Base@@QBEXAAVidDict@@@Z 200234b0 f   AFEntity.obj
 0001:00022580       ?LoadState@idAFEntity_Base@@QAEXABVidDict@@@Z 20023580 f   AFEntity.obj
 0001:00022590       ?AddBindConstraints@idAFEntity_Base@@QAEXXZ 20023590 f   AFEntity.obj
 0001:000225a0       ?RemoveBindConstraints@idAFEntity_Base@@QAEXXZ 200235a0 f   AFEntity.obj
 0001:000225b0       ?ShowEditingDialog@idAFEntity_Base@@UAEXXZ 200235b0 f   AFEntity.obj
 0001:000225d0       ?DropAFs@idAFEntity_Base@@SAXPAVidEntity@@PBDPAV?$idList@PAVidEntity@@@@@Z 200235d0 f   AFEntity.obj
 0001:00022ae0       ?GetNoPlayerImpactFX@idAFEntity_Base@@QAE_NXZ 20023ae0 f   AFEntity.obj
 0001:00022b50       ?Event_SetConstraintPosition@idAFEntity_Base@@IAEXPBDABVidVec3@@@Z 20023b50 f   AFEntity.obj
 0001:00022b60       ?RegisterClassA@idAFEntity_Gibbable@@SAXXZ 20023b60 f   AFEntity.obj
 0001:00022c20       ?CreateInstance@idAFEntity_Gibbable@@SAPAVidClass@@XZ 20023c20 f   AFEntity.obj
 0001:00022cc0       ?GetClassType@idAFEntity_Gibbable@@SAAAVidTypeInfo@@XZ 20023cc0 f   AFEntity.obj
 0001:00022cd0       ?GetType@idAFEntity_Gibbable@@UBEPAVidTypeInfo@@XZ 20023cd0 f   AFEntity.obj
 0001:00022ce0       ??0idAFEntity_Gibbable@@QAE@XZ 20023ce0 f   AFEntity.obj
 0001:00022d20       ??1idAFEntity_Gibbable@@UAE@XZ 20023d20 f   AFEntity.obj
 0001:00022d80       ?Spawn@idAFEntity_Gibbable@@QAEXXZ 20023d80 f   AFEntity.obj
 0001:00022db0       ?Save@idAFEntity_Gibbable@@QBEXPAVidSaveGame@@@Z 20023db0 f   AFEntity.obj
 0001:00022df0       ?Restore@idAFEntity_Gibbable@@QAEXPAVidRestoreGame@@@Z 20023df0 f   AFEntity.obj
 0001:00022e50       ?Present@idAFEntity_Gibbable@@UAEXXZ 20023e50 f   AFEntity.obj
 0001:00023090       ?Damage@idAFEntity_Gibbable@@UAEXPAVidEntity@@0ABVidVec3@@PBDMH@Z 20024090 f   AFEntity.obj
 0001:00023110       ?SpawnGibs@idAFEntity_Gibbable@@UAEXABVidVec3@@PBD@Z 20024110 f   AFEntity.obj
 0001:000234d0       ?Gib@idAFEntity_Gibbable@@MAEXABVidVec3@@PBD@Z 200244d0 f   AFEntity.obj
 0001:00023660       ?InitSkeletonModel@idAFEntity_Gibbable@@IAEXXZ 20024660 f   AFEntity.obj
 0001:00023730       ?Event_Gib@idAFEntity_Gibbable@@IAEXPBD@Z 20024730 f   AFEntity.obj
 0001:00023760       ?RegisterClassA@idAFEntity_Generic@@SAXXZ 20024760 f   AFEntity.obj
 0001:00023820       ?CreateInstance@idAFEntity_Generic@@SAPAVidClass@@XZ 20024820 f   AFEntity.obj
 0001:000238c0       ?GetClassType@idAFEntity_Generic@@SAAAVidTypeInfo@@XZ 200248c0 f   AFEntity.obj
 0001:000238d0       ?GetType@idAFEntity_Generic@@UBEPAVidTypeInfo@@XZ 200248d0 f   AFEntity.obj
 0001:000238e0       ??0idAFEntity_Generic@@QAE@XZ 200248e0 f   AFEntity.obj
 0001:00023910       ??1idAFEntity_Generic@@UAE@XZ 20024910 f   AFEntity.obj
 0001:00023920       ?Spawn@idAFEntity_Generic@@QAEXXZ 20024920 f   AFEntity.obj
 0001:000239b0       ?Save@idAFEntity_Generic@@QBEXPAVidSaveGame@@@Z 200249b0 f   AFEntity.obj
 0001:000239d0       ?Restore@idAFEntity_Generic@@QAEXPAVidRestoreGame@@@Z 200249d0 f   AFEntity.obj
 0001:000239f0       ?Think@idAFEntity_Generic@@UAEXXZ 200249f0 f   AFEntity.obj
 0001:00023a10       ?Event_Activate@idAFEntity_Generic@@AAEXPAVidEntity@@@Z 20024a10 f   AFEntity.obj
 0001:00023b50       ?RegisterClassA@idAFEntity_WithAttachedHead@@SAXXZ 20024b50 f   AFEntity.obj
 0001:00023c10       ?CreateInstance@idAFEntity_WithAttachedHead@@SAPAVidClass@@XZ 20024c10 f   AFEntity.obj
 0001:00023cb0       ?GetClassType@idAFEntity_WithAttachedHead@@SAAAVidTypeInfo@@XZ 20024cb0 f   AFEntity.obj
 0001:00023cc0       ?GetType@idAFEntity_WithAttachedHead@@UBEPAVidTypeInfo@@XZ 20024cc0 f   AFEntity.obj
 0001:00023cd0       ??0idAFEntity_WithAttachedHead@@QAE@XZ 20024cd0 f   AFEntity.obj
 0001:00023d00       ??1idAFEntity_WithAttachedHead@@UAE@XZ 20024d00 f   AFEntity.obj
 0001:00023da0       ?Spawn@idAFEntity_WithAttachedHead@@QAEXXZ 20024da0 f   AFEntity.obj
 0001:00023ee0       ?Save@idAFEntity_WithAttachedHead@@QBEXPAVidSaveGame@@@Z 20024ee0 f   AFEntity.obj
 0001:00023f00       ?Restore@idAFEntity_WithAttachedHead@@QAEXPAVidRestoreGame@@@Z 20024f00 f   AFEntity.obj
 0001:00023f20       ?SetupHead@idAFEntity_WithAttachedHead@@UAEXPBD@Z 20024f20 f   AFEntity.obj
 0001:00024400       ?Think@idAFEntity_WithAttachedHead@@UAEXXZ 20025400 f   AFEntity.obj
 0001:00024410       ?Hide@idAFEntity_WithAttachedHead@@UAEXXZ 20025410 f   AFEntity.obj
 0001:00024450       ?Show@idAFEntity_WithAttachedHead@@UAEXXZ 20025450 f   AFEntity.obj
 0001:00024490       ?ProjectOverlay@idAFEntity_WithAttachedHead@@UAEXABVidVec3@@0MPBD@Z 20025490 f   AFEntity.obj
 0001:00024500       ?LinkCombat@idAFEntity_WithAttachedHead@@UAEXXZ 20025500 f   AFEntity.obj
 0001:00024570       ?UnlinkCombat@idAFEntity_WithAttachedHead@@UAEXXZ 20025570 f   AFEntity.obj
 0001:000245c0       ?Gib@idAFEntity_WithAttachedHead@@MAEXABVidVec3@@PBD@Z 200255c0 f   AFEntity.obj
 0001:00024610       ?Event_Gib@idAFEntity_WithAttachedHead@@AAEXPBD@Z 20025610 f   AFEntity.obj
 0001:00024640       ?Event_Activate@idAFEntity_WithAttachedHead@@AAEXPAVidEntity@@@Z 20025640 f   AFEntity.obj
 0001:00024780       ?RegisterClassA@idAFEntity_Vehicle@@SAXXZ 20025780 f   AFEntity.obj
 0001:00024840       ?CreateInstance@idAFEntity_Vehicle@@SAPAVidClass@@XZ 20025840 f   AFEntity.obj
 0001:000248e0       ?GetClassType@idAFEntity_Vehicle@@SAAAVidTypeInfo@@XZ 200258e0 f   AFEntity.obj
 0001:000248f0       ?GetType@idAFEntity_Vehicle@@UBEPAVidTypeInfo@@XZ 200258f0 f   AFEntity.obj
 0001:00024900       ??0idAFEntity_Vehicle@@QAE@XZ 20025900 f   AFEntity.obj
 0001:00024960       ?Spawn@idAFEntity_Vehicle@@QAEXXZ 20025960 f   AFEntity.obj
 0001:00024a70       ?Use@idAFEntity_Vehicle@@QAEXPAVidPlayer@@@Z 20025a70 f   AFEntity.obj
 0001:00024bc0       ?GetSteerAngle@idAFEntity_Vehicle@@IAEMXZ 20025bc0 f   AFEntity.obj
 0001:00024c60       ?RegisterClassA@idAFEntity_VehicleFourWheels@@SAXXZ 20025c60 f   AFEntity.obj
 0001:00024d20       ?CreateInstance@idAFEntity_VehicleFourWheels@@SAPAVidClass@@XZ 20025d20 f   AFEntity.obj
 0001:00024dc0       ?GetClassType@idAFEntity_VehicleFourWheels@@SAAAVidTypeInfo@@XZ 20025dc0 f   AFEntity.obj
 0001:00024dd0       ?GetType@idAFEntity_VehicleFourWheels@@UBEPAVidTypeInfo@@XZ 20025dd0 f   AFEntity.obj
 0001:00024de0       ??0idAFEntity_VehicleFourWheels@@QAE@XZ 20025de0 f   AFEntity.obj
 0001:00024e90       ?Spawn@idAFEntity_VehicleFourWheels@@QAEXXZ 20025e90 f   AFEntity.obj
 0001:00025050       ?Think@idAFEntity_VehicleFourWheels@@UAEXXZ 20026050 f   AFEntity.obj
 0001:00025420       ?RegisterClassA@idAFEntity_VehicleSixWheels@@SAXXZ 20026420 f   AFEntity.obj
 0001:000254e0       ?CreateInstance@idAFEntity_VehicleSixWheels@@SAPAVidClass@@XZ 200264e0 f   AFEntity.obj
 0001:00025580       ?GetClassType@idAFEntity_VehicleSixWheels@@SAAAVidTypeInfo@@XZ 20026580 f   AFEntity.obj
 0001:00025590       ?GetType@idAFEntity_VehicleSixWheels@@UBEPAVidTypeInfo@@XZ 20026590 f   AFEntity.obj
 0001:000255a0       ??0idAFEntity_VehicleSixWheels@@QAE@XZ 200265a0 f   AFEntity.obj
 0001:000256a0       ?Spawn@idAFEntity_VehicleSixWheels@@QAEXXZ 200266a0 f   AFEntity.obj
 0001:00025870       ?Think@idAFEntity_VehicleSixWheels@@UAEXXZ 20026870 f   AFEntity.obj
 0001:00025d00       ?RegisterClassA@idAFEntity_SteamPipe@@SAXXZ 20026d00 f   AFEntity.obj
 0001:00025dc0       ?CreateInstance@idAFEntity_SteamPipe@@SAPAVidClass@@XZ 20026dc0 f   AFEntity.obj
 0001:00025e60       ?GetClassType@idAFEntity_SteamPipe@@SAAAVidTypeInfo@@XZ 20026e60 f   AFEntity.obj
 0001:00025e70       ?GetType@idAFEntity_SteamPipe@@UBEPAVidTypeInfo@@XZ 20026e70 f   AFEntity.obj
 0001:00025e80       ??0idAFEntity_SteamPipe@@QAE@XZ 20026e80 f   AFEntity.obj
 0001:00025f10       ??1idAFEntity_SteamPipe@@UAE@XZ 20026f10 f   AFEntity.obj
 0001:00025f70       ?Spawn@idAFEntity_SteamPipe@@QAEXXZ 20026f70 f   AFEntity.obj
 0001:00026100       ?Save@idAFEntity_SteamPipe@@QBEXPAVidSaveGame@@@Z 20027100 f   AFEntity.obj
 0001:00026110       ?Restore@idAFEntity_SteamPipe@@QAEXPAVidRestoreGame@@@Z 20027110 f   AFEntity.obj
 0001:00026120       ?Think@idAFEntity_SteamPipe@@UAEXXZ 20027120 f   AFEntity.obj
 0001:000262b0       ?InitSteamRenderEntity@idAFEntity_SteamPipe@@AAEXXZ 200272b0 f   AFEntity.obj
 0001:000264a0       ?RegisterClassA@idAFEntity_ClawFourFingers@@SAXXZ 200274a0 f   AFEntity.obj
 0001:00026560       ?CreateInstance@idAFEntity_ClawFourFingers@@SAPAVidClass@@XZ 20027560 f   AFEntity.obj
 0001:00026600       ?GetClassType@idAFEntity_ClawFourFingers@@SAAAVidTypeInfo@@XZ 20027600 f   AFEntity.obj
 0001:00026610       ?GetType@idAFEntity_ClawFourFingers@@UBEPAVidTypeInfo@@XZ 20027610 f   AFEntity.obj
 0001:00026620       ??0idAFEntity_ClawFourFingers@@QAE@XZ 20027620 f   AFEntity.obj
 0001:00026670       ?Spawn@idAFEntity_ClawFourFingers@@QAEXXZ 20027670 f   AFEntity.obj
 0001:000266f0       ?Save@idAFEntity_ClawFourFingers@@QBEXPAVidSaveGame@@@Z 200276f0 f   AFEntity.obj
 0001:00026720       ?Restore@idAFEntity_ClawFourFingers@@QAEXPAVidRestoreGame@@@Z 20027720 f   AFEntity.obj
 0001:00026790       ?Event_SetFingerAngle@idAFEntity_ClawFourFingers@@AAEXM@Z 20027790 f   AFEntity.obj
 0001:000267f0       ?Event_StopFingers@idAFEntity_ClawFourFingers@@AAEXXZ 200277f0 f   AFEntity.obj
 0001:00026820       ?RegisterClassA@rvAFAttractor@@SAXXZ 20027820 f   AFEntity.obj
 0001:000268e0       ?CreateInstance@rvAFAttractor@@SAPAVidClass@@XZ 200278e0 f   AFEntity.obj
 0001:00026990       ?GetClassType@rvAFAttractor@@SAAAVidTypeInfo@@XZ 20027990 f   AFEntity.obj
 0001:000269a0       ?GetType@rvAFAttractor@@UBEPAVidTypeInfo@@XZ 200279a0 f   AFEntity.obj
 0001:000269b0       ?Register_idMultiModelAF@@YAXXZ 200279b0 f   AFEntity.obj
 0001:000269c0       ?Register_idChain@@YAXXZ   200279c0 f   AFEntity.obj
 0001:000269d0       ?Register_idAFAttachment@@YAXXZ 200279d0 f   AFEntity.obj
 0001:000269e0       ?Register_idAFEntity_Base@@YAXXZ 200279e0 f   AFEntity.obj
 0001:000269f0       ?Register_idAFEntity_Gibbable@@YAXXZ 200279f0 f   AFEntity.obj
 0001:00026a00       ?Register_idAFEntity_Generic@@YAXXZ 20027a00 f   AFEntity.obj
 0001:00026a10       ?Register_idAFEntity_WithAttachedHead@@YAXXZ 20027a10 f   AFEntity.obj
 0001:00026a20       ?Register_idAFEntity_Vehicle@@YAXXZ 20027a20 f   AFEntity.obj
 0001:00026a30       ?Register_idAFEntity_VehicleFourWheels@@YAXXZ 20027a30 f   AFEntity.obj
 0001:00026a40       ?Register_idAFEntity_VehicleSixWheels@@YAXXZ 20027a40 f   AFEntity.obj
 0001:00026a50       ?Register_idAFEntity_SteamPipe@@YAXXZ 20027a50 f   AFEntity.obj
 0001:00026a60       ?Register_idAFEntity_ClawFourFingers@@YAXXZ 20027a60 f   AFEntity.obj
 0001:00026b60       ?Register_rvAFAttractor@@YAXXZ 20027b60 f   AFEntity.obj
 0001:00026b70       ??4idTraceModel@@QAEAAV0@$$QAV0@@Z 20027b70 f i AFEntity.obj
 0001:00026b70       ??4idTraceModel@@QAEAAV0@ABV0@@Z 20027b70 f i Clip.obj
 0001:00026db0       ??H@YA?AVidStr@@ABV0@0@Z   20027db0 f i AFEntity.obj
 0001:00026e90       ??H@YA?AVidStr@@PBDABV0@@Z 20027e90 f i AFEntity.obj
 0001:00026f80       ??_EidAFAttachment@@UAEPAXI@Z 20027f80 f i AFEntity.obj
 0001:00026f80       ??_GidAFAttachment@@UAEPAXI@Z 20027f80 f i AFEntity.obj
 0001:00026fc0       ??_EidAFEntity_Base@@UAEPAXI@Z 20027fc0 f i AFEntity.obj
 0001:00026fc0       ??_GidAFEntity_Base@@UAEPAXI@Z 20027fc0 f i AFEntity.obj
 0001:00027000       ??_EidAFEntity_ClawFourFingers@@UAEPAXI@Z 20028000 f i AFEntity.obj
 0001:00027000       ??_GidAFEntity_ClawFourFingers@@UAEPAXI@Z 20028000 f i AFEntity.obj
 0001:00027040       ??_EidAFEntity_Generic@@UAEPAXI@Z 20028040 f i AFEntity.obj
 0001:00027040       ??_GidAFEntity_Generic@@UAEPAXI@Z 20028040 f i AFEntity.obj
 0001:00027080       ??_EidAFEntity_Gibbable@@UAEPAXI@Z 20028080 f i AFEntity.obj
 0001:00027080       ??_GidAFEntity_Gibbable@@UAEPAXI@Z 20028080 f i AFEntity.obj
 0001:000270c0       ??_EidAFEntity_SteamPipe@@UAEPAXI@Z 200280c0 f i AFEntity.obj
 0001:000270c0       ??_GidAFEntity_SteamPipe@@UAEPAXI@Z 200280c0 f i AFEntity.obj
 0001:00027100       ??_EidAFEntity_Vehicle@@UAEPAXI@Z 20028100 f i AFEntity.obj
 0001:00027100       ??_GidAFEntity_Vehicle@@UAEPAXI@Z 20028100 f i AFEntity.obj
 0001:00027140       ??_EidAFEntity_VehicleFourWheels@@UAEPAXI@Z 20028140 f i AFEntity.obj
 0001:00027140       ??_GidAFEntity_VehicleFourWheels@@UAEPAXI@Z 20028140 f i AFEntity.obj
 0001:00027180       ??_EidAFEntity_VehicleSixWheels@@UAEPAXI@Z 20028180 f i AFEntity.obj
 0001:00027180       ??_GidAFEntity_VehicleSixWheels@@UAEPAXI@Z 20028180 f i AFEntity.obj
 0001:000271c0       ??_EidAFEntity_WithAttachedHead@@UAEPAXI@Z 200281c0 f i AFEntity.obj
 0001:000271c0       ??_GidAFEntity_WithAttachedHead@@UAEPAXI@Z 200281c0 f i AFEntity.obj
 0001:00027200       ??_EidChain@@UAEPAXI@Z     20028200 f i AFEntity.obj
 0001:00027200       ??_EidMultiModelAF@@UAEPAXI@Z 20028200 f i AFEntity.obj
 0001:00027200       ??_GidChain@@UAEPAXI@Z     20028200 f i AFEntity.obj
 0001:00027200       ??_GidMultiModelAF@@UAEPAXI@Z 20028200 f i AFEntity.obj
 0001:00027240       ??_EidEntity@@UAEPAXI@Z    20028240 f i Entity.obj
 0001:00027240       ??_EidExplodable@@UAEPAXI@Z 20028240 f i Misc.obj
 0001:00027240       ??_EidItemRemover@@UAEPAXI@Z 20028240 f i Item.obj
 0001:00027240       ??_EidLocationEntity@@UAEPAXI@Z 20028240 f i Misc.obj
 0001:00027240       ??_EidLocationSeparatorEntity@@UAEPAXI@Z 20028240 f i Misc.obj
 0001:00027240       ??_EidPathCorner@@UAEPAXI@Z 20028240 f i Misc.obj
 0001:00027240       ??_EidSpawnableEntity@@UAEPAXI@Z 20028240 f i Misc.obj
 0001:00027240       ??_EidTarget@@UAEPAXI@Z    20028240 f i Target.obj
 0001:00027240       ??_EidTarget_CallObjectFunction@@UAEPAXI@Z 20028240 f i Target.obj
 0001:00027240       ??_EidTarget_Damage@@UAEPAXI@Z 20028240 f i Target.obj
 0001:00027240       ??_EidTarget_EnableLevelWeapons@@UAEPAXI@Z 20028240 f i Target.obj
 0001:00027240       ??_EidTarget_EnableStamina@@UAEPAXI@Z 20028240 f i Target.obj
 0001:00027240       ??_EidTarget_EndLevel@@UAEPAXI@Z 20028240 f i Target.obj
 0001:00027240       ??_EidTarget_FadeSoundClass@@UAEPAXI@Z 20028240 f i Target.obj
 0001:00027240       ??_EidTarget_Give@@UAEPAXI@Z 20028240 f i Target.obj
 0001:00027240       ??_EidTarget_GiveEmail@@UAEPAXI@Z 20028240 f i Target.obj
 0001:00027240       ??_EidTarget_GiveSecurity@@UAEPAXI@Z 20028240 f i Target.obj
 0001:00027240       ??_EidTarget_LevelTrigger@@UAEPAXI@Z 20028240 f i Target.obj
 0001:00027240       ??_EidTarget_LightFadeIn@@UAEPAXI@Z 20028240 f i Target.obj
 0001:00027240       ??_EidTarget_LightFadeOut@@UAEPAXI@Z 20028240 f i Target.obj
 0001:00027240       ??_EidTarget_LockDoor@@UAEPAXI@Z 20028240 f i Target.obj
 0001:00027240       ??_EidTarget_Remove@@UAEPAXI@Z 20028240 f i Target.obj
 0001:00027240       ??_EidTarget_RemoveWeapons@@UAEPAXI@Z 20028240 f i Target.obj
 0001:00027240       ??_EidTarget_SessionCommand@@UAEPAXI@Z 20028240 f i Target.obj
 0001:00027240       ??_EidTarget_SetGlobalShaderTime@@UAEPAXI@Z 20028240 f i Target.obj
 0001:00027240       ??_EidTarget_SetKeyVal@@UAEPAXI@Z 20028240 f i Target.obj
 0001:00027240       ??_EidTarget_SetModel@@UAEPAXI@Z 20028240 f i Target.obj
 0001:00027240       ??_EidTarget_SetPrimaryObjective@@UAEPAXI@Z 20028240 f i Target.obj
 0001:00027240       ??_EidTarget_SetShaderParm@@UAEPAXI@Z 20028240 f i Target.obj
 0001:00027240       ??_EidTarget_SetShaderTime@@UAEPAXI@Z 20028240 f i Target.obj
 0001:00027240       ??_EidTarget_Show@@UAEPAXI@Z 20028240 f i Target.obj
 0001:00027240       ??_EidTarget_WaitForButton@@UAEPAXI@Z 20028240 f i Target.obj
 0001:00027240       ??_EidVacuumEntity@@UAEPAXI@Z 20028240 f i Misc.obj
 0001:00027240       ??_ErvAFAttractor@@UAEPAXI@Z 20028240 f i AFEntity.obj
 0001:00027240       ??_ErvAIAvoid@@UAEPAXI@Z   20028240 f i AI_Util.obj
 0001:00027240       ??_ErvAIBecomeAggressive@@UAEPAXI@Z 20028240 f i AI_Util.obj
 0001:00027240       ??_ErvAIBecomePassive@@UAEPAXI@Z 20028240 f i AI_Util.obj
 0001:00027240       ??_ErvDebugJumpPoint@@UAEPAXI@Z 20028240 f i Misc.obj
 0001:00027240       ??_ErvFuncSaveGame@@UAEPAXI@Z 20028240 f i Misc.obj
 0001:00027240       ??_ErvObjectiveFailed@@UAEPAXI@Z 20028240 f i Item.obj
 0001:00027240       ??_ErvTarget_BossBattle@@UAEPAXI@Z 20028240 f i Target.obj
 0001:00027240       ??_ErvTarget_ExitAreaAlert@@UAEPAXI@Z 20028240 f i Target.obj
 0001:00027240       ??_ErvTarget_LaunchProjectile@@UAEPAXI@Z 20028240 f i Target.obj
 0001:00027240       ??_ErvTarget_Nailable@@UAEPAXI@Z 20028240 f i Target.obj
 0001:00027240       ??_ErvTarget_SecretArea@@UAEPAXI@Z 20028240 f i Target.obj
 0001:00027240       ??_ErvTarget_TetherAI@@UAEPAXI@Z 20028240 f i Target.obj
 0001:00027240       ??_GidEntity@@UAEPAXI@Z    20028240 f i Entity.obj
 0001:00027240       ??_GidExplodable@@UAEPAXI@Z 20028240 f i Misc.obj
 0001:00027240       ??_GidItemRemover@@UAEPAXI@Z 20028240 f i Item.obj
 0001:00027240       ??_GidLocationEntity@@UAEPAXI@Z 20028240 f i Misc.obj
 0001:00027240       ??_GidLocationSeparatorEntity@@UAEPAXI@Z 20028240 f i Misc.obj
 0001:00027240       ??_GidPathCorner@@UAEPAXI@Z 20028240 f i Misc.obj
 0001:00027240       ??_GidSpawnableEntity@@UAEPAXI@Z 20028240 f i Misc.obj
 0001:00027240       ??_GidTarget@@UAEPAXI@Z    20028240 f i Target.obj
 0001:00027240       ??_GidTarget_CallObjectFunction@@UAEPAXI@Z 20028240 f i Target.obj
 0001:00027240       ??_GidTarget_Damage@@UAEPAXI@Z 20028240 f i Target.obj
 0001:00027240       ??_GidTarget_EnableLevelWeapons@@UAEPAXI@Z 20028240 f i Target.obj
 0001:00027240       ??_GidTarget_EnableStamina@@UAEPAXI@Z 20028240 f i Target.obj
 0001:00027240       ??_GidTarget_EndLevel@@UAEPAXI@Z 20028240 f i Target.obj
 0001:00027240       ??_GidTarget_FadeSoundClass@@UAEPAXI@Z 20028240 f i Target.obj
 0001:00027240       ??_GidTarget_Give@@UAEPAXI@Z 20028240 f i Target.obj
 0001:00027240       ??_GidTarget_GiveEmail@@UAEPAXI@Z 20028240 f i Target.obj
 0001:00027240       ??_GidTarget_GiveSecurity@@UAEPAXI@Z 20028240 f i Target.obj
 0001:00027240       ??_GidTarget_LevelTrigger@@UAEPAXI@Z 20028240 f i Target.obj
 0001:00027240       ??_GidTarget_LightFadeIn@@UAEPAXI@Z 20028240 f i Target.obj
 0001:00027240       ??_GidTarget_LightFadeOut@@UAEPAXI@Z 20028240 f i Target.obj
 0001:00027240       ??_GidTarget_LockDoor@@UAEPAXI@Z 20028240 f i Target.obj
 0001:00027240       ??_GidTarget_Remove@@UAEPAXI@Z 20028240 f i Target.obj
 0001:00027240       ??_GidTarget_RemoveWeapons@@UAEPAXI@Z 20028240 f i Target.obj
 0001:00027240       ??_GidTarget_SessionCommand@@UAEPAXI@Z 20028240 f i Target.obj
 0001:00027240       ??_GidTarget_SetGlobalShaderTime@@UAEPAXI@Z 20028240 f i Target.obj
 0001:00027240       ??_GidTarget_SetKeyVal@@UAEPAXI@Z 20028240 f i Target.obj
 0001:00027240       ??_GidTarget_SetModel@@UAEPAXI@Z 20028240 f i Target.obj
 0001:00027240       ??_GidTarget_SetPrimaryObjective@@UAEPAXI@Z 20028240 f i Target.obj
 0001:00027240       ??_GidTarget_SetShaderParm@@UAEPAXI@Z 20028240 f i Target.obj
 0001:00027240       ??_GidTarget_SetShaderTime@@UAEPAXI@Z 20028240 f i Target.obj
 0001:00027240       ??_GidTarget_Show@@UAEPAXI@Z 20028240 f i Target.obj
 0001:00027240       ??_GidTarget_WaitForButton@@UAEPAXI@Z 20028240 f i Target.obj
 0001:00027240       ??_GidVacuumEntity@@UAEPAXI@Z 20028240 f i Misc.obj
 0001:00027240       ??_GrvAFAttractor@@UAEPAXI@Z 20028240 f i AFEntity.obj
 0001:00027240       ??_GrvAIAvoid@@UAEPAXI@Z   20028240 f i AI_Util.obj
 0001:00027240       ??_GrvAIBecomeAggressive@@UAEPAXI@Z 20028240 f i AI_Util.obj
 0001:00027240       ??_GrvAIBecomePassive@@UAEPAXI@Z 20028240 f i AI_Util.obj
 0001:00027240       ??_GrvDebugJumpPoint@@UAEPAXI@Z 20028240 f i Misc.obj
 0001:00027240       ??_GrvFuncSaveGame@@UAEPAXI@Z 20028240 f i Misc.obj
 0001:00027240       ??_GrvObjectiveFailed@@UAEPAXI@Z 20028240 f i Item.obj
 0001:00027240       ??_GrvTarget_BossBattle@@UAEPAXI@Z 20028240 f i Target.obj
 0001:00027240       ??_GrvTarget_ExitAreaAlert@@UAEPAXI@Z 20028240 f i Target.obj
 0001:00027240       ??_GrvTarget_LaunchProjectile@@UAEPAXI@Z 20028240 f i Target.obj
 0001:00027240       ??_GrvTarget_Nailable@@UAEPAXI@Z 20028240 f i Target.obj
 0001:00027240       ??_GrvTarget_SecretArea@@UAEPAXI@Z 20028240 f i Target.obj
 0001:00027240       ??_GrvTarget_TetherAI@@UAEPAXI@Z 20028240 f i Target.obj
 0001:00027280       ?GetAnimator@idEntity@@UBEPBVidAnimator@@XZ 20028280 f i AFEntity.obj
 0001:00027280       ?GetAnimator@rvClientModel@@UAEPAVidAnimator@@XZ 20028280 f i ClientModel.obj
 0001:00027280       ?GetAnimator@rvClientModel@@UBEPBVidAnimator@@XZ 20028280 f i ClientModel.obj
 0001:000272e0       ?GetEyePosition@idEntity@@UBE?AVidVec3@@XZ 200282e0 f i AFEntity.obj
 0001:00027310       ___local_stdio_printf_options 20028310 f i AFEntity.obj
 0001:00027320       _sprintf                   20028320 f i AFEntity.obj
 0001:00027360       ??1idAASCallback@@UAE@XZ   20028360 f   AAS.obj
 0001:00027370       ?Init@idAASCallback@@UAEXXZ 20028370 f   AAS.obj
 0001:00027380       ?Finish@idAASCallback@@UAEXXZ 20028380 f   AAS.obj
 0001:00027390       ?Test@idAASCallback@@QAE?AW4testResult_t@1@PAVidAAS@@HABVidVec3@@MMPBV4@AAUaasGoal_s@@@Z 20028390 f   AAS.obj
 0001:000278d0       ?TestArea@idAASCallback@@MAE_NPAVidAAS@@HABUaasArea_s@@@Z 200288d0 f   AAS.obj
 0001:000278e0       ?TestPoint@idAASCallback@@MAE_NPAVidAAS@@ABVidVec3@@M@Z 200288e0 f   AAS.obj
 0001:000278f0       ?TestPointDistance@idAASCallback@@AAE_NABVidVec3@@0MM@Z 200288f0 f   AAS.obj
 0001:000279a0       ?Alloc@idAAS@@SAPAV1@XZ    200289a0 f   AAS.obj
 0001:00027a20       ??1idAAS@@UAE@XZ           20028a20 f   AAS.obj
 0001:00027a30       ??0idAASLocal@@QAE@XZ      20028a30 f   AAS.obj
 0001:00027a80       ??1idAASLocal@@UAE@XZ      20028a80 f   AAS.obj
 0001:00027b20       ?Init@idAASLocal@@UAE_NABVidStr@@I@Z 20028b20 f   AAS.obj
 0001:00027c10       ?Shutdown@idAASLocal@@UAEXXZ 20028c10 f   AAS.obj
 0001:00027c40       ?StatsSummary@idAASLocal@@UBEIXZ 20028c40 f   AAS.obj
 0001:00027c70       ?Stats@idAASLocal@@UBEXXZ  20028c70 f   AAS.obj
 0001:00027cb0       ?GetSettings@idAASLocal@@UBEPBVidAASSettings@@XZ 20028cb0 f   AAS.obj
 0001:00027cd0       ?PointAreaNum@idAASLocal@@UBEHABVidVec3@@@Z 20028cd0 f   AAS.obj
 0001:00027cf0       ?PointReachableAreaNum@idAASLocal@@UBEHABVidVec3@@ABVidBounds@@H@Z 20028cf0 f   AAS.obj
 0001:00027d20       ?BoundsReachableAreaNum@idAASLocal@@UBEHABVidBounds@@H@Z 20028d20 f   AAS.obj
 0001:00027d50       ?PushPointIntoAreaNum@idAASLocal@@UBEXHAAVidVec3@@@Z 20028d50 f   AAS.obj
 0001:00027d70       ?AreaCenter@idAASLocal@@UBE?AVidVec3@@H@Z 20028d70 f   AAS.obj
 0001:00027dc0       ?AreaRadius@idAASLocal@@UBEMH@Z 20028dc0 f   AAS.obj
 0001:00027df0       ?AreaBounds@idAASLocal@@UBEAAVidBounds@@H@Z 20028df0 f   AAS.obj
 0001:00027e10       ?AreaCeiling@idAASLocal@@UBEMH@Z 20028e10 f   AAS.obj
 0001:00027e30       ?AreaFlags@idAASLocal@@UBEHH@Z 20028e30 f   AAS.obj
 0001:00027e50       ?AreaTravelFlags@idAASLocal@@UBEHH@Z 20028e50 f   AAS.obj
 0001:00027e70       ?Trace@idAASLocal@@UBE_NAAUaasTrace_s@@ABVidVec3@@1@Z 20028e70 f   AAS.obj
 0001:00027ea0       ?GetPlane@idAASLocal@@UBEABVidPlane@@H@Z 20028ea0 f   AAS.obj
 0001:00027ec0       ?GetEdgeVertexNumbers@idAASLocal@@UBEXHQAH@Z 20028ec0 f   AAS.obj
 0001:00027f10       ?GetEdge@idAASLocal@@UBEXHAAVidVec3@@0@Z 20028f10 f   AAS.obj
 0001:00027fb0       ??_EidAASCallback@@UAEPAXI@Z 20028fb0 f i AAS.obj
 0001:00027fb0       ??_GidAASCallback@@UAEPAXI@Z 20028fb0 f i AAS.obj
 0001:00027fe0       ??_EidAASLocal@@UAEPAXI@Z  20028fe0 f i AAS.obj
 0001:00027fe0       ??_GidAASLocal@@UAEPAXI@Z  20028fe0 f i AAS.obj
 0001:00028010       ?GetFile@idAASLocal@@UAEPAVidAASFile@@XZ 20029010 f i AAS.obj
 0001:00028010       ?GetSelf@idPhysics_Base@@UBEPAVidEntity@@XZ 20029010 f i Physics_Actor.obj
 0001:00028010       ?GetSelf@idPhysics_Static@@UBEPAVidEntity@@XZ 20029010 f i Physics_Static.obj
 0001:00028010       ?GetSelf@idPhysics_StaticMulti@@UBEPAVidEntity@@XZ 20029010 f i Physics_StaticMulti.obj
 0001:00028020       ?Test@idAASLocal@@UAEXABVidVec3@@@Z 20029020 f   AAS_debug.obj
 0001:000281b0       ?ShowWalkPath@idAASLocal@@UBEXABVidVec3@@H0@Z 200291b0 f   AAS_debug.obj
 0001:00028300       ?ShowFlyPath@idAASLocal@@UBEXABVidVec3@@H0@Z 20029300 f   AAS_debug.obj
 0001:00028450       ?IsValid@idAASLocal@@UBE_NXZ 20029450 f   AAS_debug.obj
 0001:00028460       ?ShowAreas@idAASLocal@@UBEXABVidVec3@@_N@Z 20029460 f   AAS_debug.obj
 0001:00028650       ?DefaultSearchBounds@idAASLocal@@ABEABVidBounds@@XZ 20029650 f   AAS_debug.obj
 0001:00028660       ?DrawCone@idAASLocal@@ABEXABVidVec3@@0MABVidVec4@@@Z 20029660 f   AAS_debug.obj
 0001:00028980       ?DrawAreaBounds@idAASLocal@@ABEXH@Z 20029980 f   AAS_debug.obj
 0001:00028ac0       ?DrawArea@idAASLocal@@ABEXH@Z 20029ac0 f   AAS_debug.obj
 0001:00028c80       ?DrawFace@idAASLocal@@ABEXH_N@Z 20029c80 f   AAS_debug.obj
 0001:00028ea0       ?DrawEdge@idAASLocal@@ABEXH_N@Z 20029ea0 f   AAS_debug.obj
 0001:00029020       ?DrawReachability@idAASLocal@@ABEXPBVidReachability@@@Z 2002a020 f   AAS_debug.obj
 0001:000290f0       ?ShowArea@idAASLocal@@ABEXABVidVec3@@@Z 2002a0f0 f   AAS_debug.obj
 0001:00029300       ?ShowWallEdges@idAASLocal@@ABEXABVidVec3@@@Z 2002a300 f   AAS_debug.obj
 0001:000294a0       ?ShowHideArea@idAASLocal@@ABEXABVidVec3@@H@Z 2002a4a0 f   AAS_debug.obj
 0001:00029660       ?PullPlayer@idAASLocal@@ABE_NABVidVec3@@H@Z 2002a660 f   AAS_debug.obj
 0001:00029a70       ?RandomPullPlayer@idAASLocal@@ABEXABVidVec3@@@Z 2002aa70 f   AAS_debug.obj
 0001:00029b50       ?ShowPushIntoArea@idAASLocal@@ABEXABVidVec3@@@Z 2002ab50 f   AAS_debug.obj
 0001:00029bd0       ?DrawSimpleEdge@idAASLocal@@ABEXH@Z 2002abd0 f   AAS_debug.obj
 0001:00029c40       ?DrawSimpleFace@idAASLocal@@ABEXH_N@Z 2002ac40 f   AAS_debug.obj
 0001:00029ff0       ?DrawSimpleArea@idAASLocal@@ABEXH@Z 2002aff0 f   AAS_debug.obj
 0001:0002a160       ?ShowProblemEdge@idAASLocal@@ABEXH@Z 2002b160 f   AAS_debug.obj
 0001:0002a950       ?ShowProblemFace@idAASLocal@@ABEXH@Z 2002b950 f   AAS_debug.obj
 0001:0002a9a0       ?ShowProblemArea@idAASLocal@@ABEXH@Z 2002b9a0 f   AAS_debug.obj
 0001:0002ab50       ?ShowProblemArea@idAASLocal@@ABEXABVidVec3@@@Z 2002bb50 f   AAS_debug.obj
 0001:0002ab80       ??1idWinding@@UAE@XZ       2002bb80 f i AAS_debug.obj
 0001:0002abf0       ??_EidWinding@@UAEPAXI@Z   2002bbf0 f i AAS_debug.obj
 0001:0002abf0       ??_GidWinding@@UAEPAXI@Z   2002bbf0 f i AAS_debug.obj
 0001:0002ac80       ?Clear@idWinding@@UAEXXZ   2002bc80 f i AAS_debug.obj
 0001:0002ad00       ??0rvAASFindGoalForHide@@QAE@ABVidVec3@@@Z 2002bd00 f   AAS_Find.obj
 0001:0002ade0       ??1rvAASFindGoalForHide@@UAE@XZ 2002bde0 f   AAS_Find.obj
 0001:0002ae30       ?TestArea@rvAASFindGoalForHide@@MAE_NPAVidAAS@@HABUaasArea_s@@@Z 2002be30 f   AAS_Find.obj
 0001:0002aef0       ??0rvAASFindGoalOutOfRange@@QAE@PAVidAI@@@Z 2002bef0 f   AAS_Find.obj
 0001:0002af10       ?TestPoint@rvAASFindGoalOutOfRange@@MAE_NPAVidAAS@@ABVidVec3@@M@Z 2002bf10 f   AAS_Find.obj
 0001:0002af30       ??0rvAASFindGoalForAttack@@QAE@PAVidAI@@@Z 2002bf30 f   AAS_Find.obj
 0001:0002af70       ??1rvAASFindGoalForAttack@@UAE@XZ 2002bf70 f   AAS_Find.obj
 0001:0002b000       ?TestCachedGoals@rvAASFindGoalForAttack@@QAE_NHAAUaasGoal_s@@@Z 2002c000 f   AAS_Find.obj
 0001:0002b080       ?Init@rvAASFindGoalForAttack@@UAEXXZ 2002c080 f   AAS_Find.obj
 0001:0002b270       ?Finish@rvAASFindGoalForAttack@@UAEXXZ 2002c270 f   AAS_Find.obj
 0001:0002b290       ?TestArea@rvAASFindGoalForAttack@@EAE_NPAVidAAS@@HABUaasArea_s@@@Z 2002c290 f   AAS_Find.obj
 0001:0002b360       ?TestPoint@rvAASFindGoalForAttack@@EAE_NPAVidAAS@@ABVidVec3@@M@Z 2002c360 f   AAS_Find.obj
 0001:0002b7a0       ?TestCachedGoal@rvAASFindGoalForAttack@@AAE_NH@Z 2002c7a0 f   AAS_Find.obj
 0001:0002b960       ??0rvAASFindGoalForTether@@QAE@PAVidAI@@PAVrvAITether@@@Z 2002c960 f   AAS_Find.obj
 0001:0002b990       ??1rvAASFindGoalForTether@@UAE@XZ 2002c990 f   AAS_Find.obj
 0001:0002b9a0       ?TestArea@rvAASFindGoalForTether@@MAE_NPAVidAAS@@HABUaasArea_s@@@Z 2002c9a0 f   AAS_Find.obj
 0001:0002ba10       ?TestPoint@rvAASFindGoalForTether@@MAE_NPAVidAAS@@ABVidVec3@@M@Z 2002ca10 f   AAS_Find.obj
 0001:0002baa0       ??_ErvAASFindGoalForAttack@@UAEPAXI@Z 2002caa0 f i AAS_Find.obj
 0001:0002baa0       ??_GrvAASFindGoalForAttack@@UAEPAXI@Z 2002caa0 f i AAS_Find.obj
 0001:0002bad0       ??_ErvAASFindGoalForHide@@UAEPAXI@Z 2002cad0 f i AAS_Find.obj
 0001:0002bad0       ??_GrvAASFindGoalForHide@@UAEPAXI@Z 2002cad0 f i AAS_Find.obj
 0001:0002bb00       ??_ErvAASFindGoalForTether@@UAEPAXI@Z 2002cb00 f i AAS_Find.obj
 0001:0002bb00       ??_GrvAASFindGoalForTether@@UAEPAXI@Z 2002cb00 f i AAS_Find.obj
 0001:0002bb30       ??_ErvAASFindGoalOutOfRange@@UAEPAXI@Z 2002cb30 f i AAS_Find.obj
 0001:0002bb30       ??_GrvAASFindGoalOutOfRange@@UAEPAXI@Z 2002cb30 f i AAS_Find.obj
 0001:0002bb60       ?GetWallEdges@idAASLocal@@UBEHHABVidBounds@@HPAHH@Z 2002cb60 f   AAS_pathing.obj
 0001:0002be30       ?SortWallEdges@idAASLocal@@UBEXPAHH@Z 2002ce30 f   AAS_pathing.obj
 0001:0002bfd0       ?WalkPathToGoal@idAASLocal@@UBE_NAAUaasPath_s@@HABVidVec3@@H1H@Z 2002cfd0 f   AAS_pathing.obj
 0001:0002c2e0       ?WalkPathValid@idAASLocal@@UBE_NHABVidVec3@@H0HAAV2@AAH@Z 2002d2e0 f   AAS_pathing.obj
 0001:0002cec0       ?FlyPathToGoal@idAASLocal@@UBE_NAAUaasPath_s@@HABVidVec3@@H1H@Z 2002dec0 f   AAS_pathing.obj
 0001:0002d120       ?FlyPathValid@idAASLocal@@UBE_NHABVidVec3@@H0HAAV2@AAH@Z 2002e120 f   AAS_pathing.obj
 0001:0002d1d0       ?EdgeSplitPoint@idAASLocal@@ABE_NAAVidVec3@@HABVidPlane@@@Z 2002e1d0 f   AAS_pathing.obj
 0001:0002d300       ?FloorEdgeSplitPoint@idAASLocal@@ABE_NAAVidVec3@@HABVidPlane@@1_N@Z 2002e300 f   AAS_pathing.obj
 0001:0002d720       ?SubSampleWalkPath@idAASLocal@@ABE?AVidVec3@@HABV2@00HAAH@Z 2002e720 f   AAS_pathing.obj
 0001:0002d8f0       ?SubSampleFlyPath@idAASLocal@@ABE?AVidVec3@@HABV2@00HAAH@Z 2002e8f0 f   AAS_pathing.obj
 0001:0002dac0       ??0idRoutingCache@@QAE@H@Z 2002eac0 f   AAS_routing.obj
 0001:0002db90       ??1idRoutingCache@@QAE@XZ  2002eb90 f   AAS_routing.obj
 0001:0002dc30       ?Size@idRoutingCache@@QBEHXZ 2002ec30 f   AAS_routing.obj
 0001:0002dc40       ?SetAreaState@idAASLocal@@UAE_NABVidBounds@@H_N@Z 2002ec40 f   AAS_routing.obj
 0001:0002dd00       ?AddObstacle@idAASLocal@@UAEHABVidBounds@@@Z 2002ed00 f   AAS_routing.obj
 0001:0002dff0       ?RemoveObstacle@idAASLocal@@UAEXH@Z 2002eff0 f   AAS_routing.obj
 0001:0002e060       ?RemoveAllObstacles@idAASLocal@@UAEXXZ 2002f060 f   AAS_routing.obj
 0001:0002e1a0       ?TravelTimeToGoalArea@idAASLocal@@UBEHHABVidVec3@@HH@Z 2002f1a0 f   AAS_routing.obj
 0001:0002e200       ?RouteToGoalArea@idAASLocal@@UBE_NHVidVec3@@HHAAHPAPAVidReachability@@@Z 2002f200 f   AAS_routing.obj
 0001:0002e620       ?FindNearestGoal@idAASLocal@@UBE_NAAUaasGoal_s@@HVidVec3@@ABV3@HMMPAUaasObstacle_s@@HAAVidAASCallback@@@Z 2002f620 f   AAS_routing.obj
 0001:0002ee70       ?SetReachabilityState@idAASLocal@@UAEXPAVidReachability@@_N@Z 2002fe70 f   AAS_routing.obj
 0001:0002eed0       ?SetupRouting@idAASLocal@@AAE_NXZ 2002fed0 f   AAS_routing.obj
 0001:0002ef10       ?ShutdownRouting@idAASLocal@@AAEXXZ 2002ff10 f   AAS_routing.obj
 0001:0002ef20       ?AreaTravelTime@idAASLocal@@ABEGHABVidVec3@@0@Z 2002ff20 f   AAS_routing.obj
 0001:0002f010       ?CalculateAreaTravelTimes@idAASLocal@@AAEXXZ 20030010 f   AAS_routing.obj
 0001:0002f270       ?DeleteAreaTravelTimes@idAASLocal@@AAEXXZ 20030270 f   AAS_routing.obj
 0001:0002f290       ?SetupRoutingCache@idAASLocal@@AAEXXZ 20030290 f   AAS_routing.obj
 0001:0002f3d0       ?DeleteClusterCache@idAASLocal@@AAEXH@Z 200303d0 f   AAS_routing.obj
 0001:0002f460       ?DeletePortalCache@idAASLocal@@AAEXXZ 20030460 f   AAS_routing.obj
 0001:0002f4d0       ?ShutdownRoutingCache@idAASLocal@@AAEXXZ 200304d0 f   AAS_routing.obj
 0001:0002f590       ?RoutingStats@idAASLocal@@ABEXXZ 20030590 f   AAS_routing.obj
 0001:0002f6c0       ?LinkCache@idAASLocal@@ABEXPAVidRoutingCache@@@Z 200306c0 f   AAS_routing.obj
 0001:0002f720       ?UnlinkCache@idAASLocal@@ABEXPAVidRoutingCache@@@Z 20030720 f   AAS_routing.obj
 0001:0002f780       ?DeleteOldestCache@idAASLocal@@ABEXXZ 20030780 f   AAS_routing.obj
 0001:0002f860       ?GetAreaReachability@idAASLocal@@ABEPAVidReachability@@HH@Z 20030860 f   AAS_routing.obj
 0001:0002f890       ?UpdateAreaRoutingCache@idAASLocal@@ABEXPAVidRoutingCache@@@Z 20030890 f   AAS_routing.obj
 0001:0002fb70       ?GetAreaRoutingCache@idAASLocal@@ABEPAVidRoutingCache@@HHH@Z 20030b70 f   AAS_routing.obj
 0001:0002fcf0       ?UpdatePortalRoutingCache@idAASLocal@@ABEXPAVidRoutingCache@@@Z 20030cf0 f   AAS_routing.obj
 0001:0002ff20       ?GetPortalRoutingCache@idAASLocal@@ABEPAVidRoutingCache@@HHH@Z 20030f20 f   AAS_routing.obj
 0001:00030020       ?RemoveRoutingCacheUsingArea@idAASLocal@@AAEXH@Z 20031020 f   AAS_routing.obj
 0001:00030080       ?DisableArea@idAASLocal@@AAEXH@Z 20031080 f   AAS_routing.obj
 0001:000300c0       ?EnableArea@idAASLocal@@AAEXH@Z 200310c0 f   AAS_routing.obj
 0001:00030100       ?SetAreaState_r@idAASLocal@@AAE_NHABVidBounds@@H_N@Z 20031100 f   AAS_routing.obj
 0001:000301b0       ?GetBoundsAreas_r@idAASLocal@@ABEXHABVidBounds@@AAV?$idList@H@@@Z 200311b0 f   AAS_routing.obj
 0001:00030420       ?SetObstacleState@idAASLocal@@AAEXPBVidRoutingObstacle@@_N@Z 20031420 f   AAS_routing.obj
 0001:00030550       ??_GidRoutingObstacle@@QAEPAXI@Z 20031550 f i AAS_routing.obj
 0001:00030620       ?Normal@aasFeature_s@@QAEAAVidVec3@@XZ 20031620 f   AAS_tactical.obj
 0001:00030670       ?Origin@aasFeature_s@@QAEAAVidVec3@@XZ 20031670 f   AAS_tactical.obj
 0001:000306b0       ?DrawDebugInfo@aasFeature_s@@QAEXH@Z 200316b0 f   AAS_tactical.obj
 0001:00030b70       ?GetLookPos@aasFeature_s@@QAEHAAVidVec3@@ABV2@M@Z 20031b70 f   AAS_tactical.obj
 0001:00030e00       ?CREATE_SENSOR@rvAASTacticalSensor@@SAPAU1@PAVidActor@@@Z 20031e00 f   AAS_tactical.obj
 0001:00030ea0       ?DrawDebugInfo@rvTest@@QAEXVidVec4@@ABVidVec3@@1@Z 20031ea0 f   AAS_tactical.obj
 0001:00030f00       ?DrawDebugInfo@rvTest@@QAEXVidVec4@@ABVidVec3@@@Z 20031f00 f   AAS_tactical.obj
 0001:00030f90       ?DrawDebugInfo@rvTestSet@@QAEXABVidVec4@@ABVidVec3@@@Z 20031f90 f   AAS_tactical.obj
 0001:00031090       ??0rvAASTacticalSensorLocal@@QAE@XZ 20032090 f   AAS_tactical.obj
 0001:00031230       ??1rvAASTacticalSensorLocal@@QAE@XZ 20032230 f   AAS_tactical.obj
 0001:000312d0       ?Update@rvAASTacticalSensorLocal@@UAEXXZ 200322d0 f   AAS_tactical.obj
 0001:00031b80       ?Save@rvAASTacticalSensorLocal@@UAEXPAVidSaveGame@@@Z 20032b80 f   AAS_tactical.obj
 0001:00031d10       ?Restore@rvAASTacticalSensorLocal@@UAEXPAVidRestoreGame@@@Z 20032d10 f   AAS_tactical.obj
 0001:00031ef0       ?Clear@rvAASTacticalSensorLocal@@UAEXXZ 20032ef0 f   AAS_tactical.obj
 0001:00031fa0       ?DrawDebugInfo@rvAASTacticalSensorLocal@@QAEXXZ 20032fa0 f   AAS_tactical.obj
 0001:00032670       ?Search@rvAASTacticalSensorLocal@@QAEXXZ 20033670 f   AAS_tactical.obj
 0001:000335e0       ?SearchReset@rvAASTacticalSensorLocal@@QAEXPAVidEntity@@MM@Z 200345e0 f   AAS_tactical.obj
 0001:00033880       ?SearchRadius@rvAASTacticalSensorLocal@@UAEXABVidVec3@@MM@Z 20034880 f   AAS_tactical.obj
 0001:00033990       ?SearchCover@rvAASTacticalSensorLocal@@UAEXMM@Z 20034990 f   AAS_tactical.obj
 0001:000339d0       ?SearchHide@rvAASTacticalSensorLocal@@UAEXPAVidEntity@@@Z 200349d0 f   AAS_tactical.obj
 0001:00033a50       ?SearchFlank@rvAASTacticalSensorLocal@@UAEXXZ 20034a50 f   AAS_tactical.obj
 0001:00033ab0       ?SearchAdvance@rvAASTacticalSensorLocal@@UAEXXZ 20034ab0 f   AAS_tactical.obj
 0001:00033b00       ?SearchRetreat@rvAASTacticalSensorLocal@@UAEXXZ 20034b00 f   AAS_tactical.obj
 0001:00033b50       ?SearchAmbush@rvAASTacticalSensorLocal@@UAEXXZ 20034b50 f   AAS_tactical.obj
 0001:00033bb0       ?SearchDebug@rvAASTacticalSensorLocal@@UAEXXZ 20034bb0 f   AAS_tactical.obj
 0001:00033bd0       ?SearchComputeWeightRange@rvAASTacticalSensorLocal@@QAEMAAM@Z 20034bd0 f   AAS_tactical.obj
 0001:00033e00       ?SearchComputeWeight@rvAASTacticalSensorLocal@@QAEMXZ 20034e00 f   AAS_tactical.obj
 0001:00033f30       ?TestSetupCurrentValues@rvAASTacticalSensorLocal@@QAEXXZ 20034f30 f   AAS_tactical.obj
 0001:00034620       ?TestValid@rvAASTacticalSensorLocal@@UAE_NPAUaasFeature_s@@M@Z 20035620 f   AAS_tactical.obj
 0001:00034970       ?TestValidWithCurrentState@rvAASTacticalSensorLocal@@UAE_NPAUaasFeature_s@@@Z 20035970 f   AAS_tactical.obj
 0001:000349d0       ?Reserve@rvAASTacticalSensorLocal@@UAEXPAUaasFeature_s@@@Z 200359d0 f   AAS_tactical.obj
 0001:00034a20       ?Dist@idVec3@@QBEMABV1@@Z  20035a20 f i AAS_tactical.obj
 0001:00034ab0       ?Feature@rvAASTacticalSensorLocal@@UAEPAUaasFeature_s@@H@Z 20035ab0 f i AAS_tactical.obj
 0001:00034ad0       ?FeatureCount@rvAASTacticalSensorLocal@@UAEHXZ 20035ad0 f i AAS_tactical.obj
 0001:00034ae0       ?Look@rvAASTacticalSensorLocal@@UBEPAUaasFeature_s@@XZ 20035ae0 f i AAS_tactical.obj
 0001:00034af0       ?Near@rvAASTacticalSensorLocal@@UBEPAUaasFeature_s@@XZ 20035af0 f i AAS_tactical.obj
 0001:00034b00       ?Reserved@rvAASTacticalSensorLocal@@UBEPAUaasFeature_s@@XZ 20035b00 f i AAS_tactical.obj
 0001:00034b10       ?ReservedOrigin@rvAASTacticalSensorLocal@@UBEABVidVec3@@XZ 20035b10 f i AAS_tactical.obj
 0001:00034b20       ?Reset@rvTestSet@@QAEXXZ   20035b20 f i AAS_tactical.obj
 0001:00034b80       ?Restore@rvTestSet@@QAEXPAVidRestoreGame@@@Z 20035b80 f i AAS_tactical.obj
 0001:00034c20       ?Save@rvTestSet@@QAEXPAVidSaveGame@@@Z 20035c20 f i AAS_tactical.obj
 0001:00034d00       ?Test@rvTest@@QAE_NMM@Z    20035d00 f i AAS_tactical.obj
 0001:00034d80       ?Test@rvTestSet@@QAE_NPAUaasFeature_s@@M@Z 20035d80 f i AAS_tactical.obj
 0001:00035170       ?rvSortFeature@@YAHPBQAUaasFeature_s@@0@Z 20036170 f i AAS_tactical.obj
 0001:00035190       ??0idAI@@QAE@XZ            20036190 f   AI.obj
 0001:000359d0       ??1idAI@@UAE@XZ            200369d0 f   AI.obj
 0001:00035e80       ?Save@idAI@@QBEXPAVidSaveGame@@@Z 20036e80 f   AI.obj
 0001:00036690       ?Restore@idAI@@QAEXPAVidRestoreGame@@@Z 20037690 f   AI.obj
 0001:00037660       ?Spawn@idAI@@QAEXXZ        20038660 f   AI.obj
 0001:00039190       ?TalkTo@idAI@@UAEXPAVidActor@@@Z 2003a190 f   AI.obj
 0001:000394e0       ?GetTalkState@idAI@@QBE?AW4talkState_t@@XZ 2003a4e0 f   AI.obj
 0001:00039530       ?TouchedByFlashlight@idAI@@QAEXPAVidActor@@@Z 2003a530 f   AI.obj
 0001:00039550       ?FindEnemy@idAI@@QAEPAVidEntity@@_N0M@Z 2003a550 f   AI.obj
 0001:000397e0       ?SetSpawner@idAI@@QAEXPAVrvSpawner@@@Z 2003a7e0 f   AI.obj
 0001:00039810       ?GetSpawner@idAI@@QAEPAVrvSpawner@@XZ 2003a810 f   AI.obj
 0001:00039840       ?List_f@idAI@@SAXABVidCmdArgs@@@Z 2003a840 f   AI.obj
 0001:00039fe0       ?IsCrouching@idAI@@UBE_NXZ 2003afe0 f   AI.obj
 0001:00039ff0       ?DormantBegin@idAI@@UAEXXZ 2003aff0 f   AI.obj
 0001:0003a010       ?DormantEnd@idAI@@UAEXXZ   2003b010 f   AI.obj
 0001:0003a080       ?Think@idAI@@UAEXXZ        2003b080 f   AI.obj
 0001:0003a460       ?Activate@idAI@@QAEXPAVidEntity@@@Z 2003b460 f   AI.obj
 0001:0003a530       ?Hide@idAI@@UAEXXZ         2003b530 f   AI.obj
 0001:0003a590       ?Show@idAI@@UAEXXZ         2003b590 f   AI.obj
 0001:0003a660       ?AdjustHealthByDamage@idAI@@UAEXH@Z 2003b660 f   AI.obj
 0001:0003a6a0       ?CalculateAttackOffsets@idAI@@QAEXXZ 2003b6a0 f   AI.obj
 0001:0003ab20       ?InitNonPersistentSpawnArgs@idAI@@QAEXXZ 2003bb20 f   AI.obj
 0001:0003ac40       ?Speak@idAI@@QAE_NPBD_N@Z  2003bc40 f   AI.obj
 0001:0003ad30       ?StopSpeaking@idAI@@QAEX_N@Z 2003bd30 f   AI.obj
 0001:0003adc0       ?CheckBlink@idAI@@UAEXXZ   2003bdc0 f   AI.obj
 0001:0003add0       ?CanPlayChatterSounds@idAI@@MBE_NXZ 2003bdd0 f   AI.obj
 0001:0003ae50       ?UpdateChatter@idAI@@IAEXXZ 2003be50 f   AI.obj
 0001:0003af80       ?ReactToShotAt@idAI@@QAEXPAVidEntity@@ABVidVec3@@1@Z 2003bf80 f   AI.obj
 0001:0003b1b0       ?ReactToPain@idAI@@QAEXPAVidEntity@@H@Z 2003c1b0 f   AI.obj
 0001:0003b1c0       ?UpdateHelper@idAI@@QAEXXZ 2003c1c0 f   AI.obj
 0001:0003b2a0       ?GetActiveHelper@idAI@@QAEPAVrvAIHelper@@XZ 2003c2a0 f   AI.obj
 0001:0003b300       ?LastKnownPosition@idAI@@QAEABVidVec3@@PBVidEntity@@@Z 2003c300 f   AI.obj
 0001:0003b360       ?HeardSound@idAI@@QAEPAVidEntity@@H@Z 2003c360 f   AI.obj
 0001:0003b4f0       ?ReactionTo@idAI@@QAEHPBVidEntity@@@Z 2003c4f0 f   AI.obj
 0001:0003b5b0       ?SetTalkState@idAI@@QAEXW4talkState_t@@@Z 2003c5b0 f   AI.obj
 0001:0003b5f0       ?SetPassivePrefix@idAI@@QAEXPBD@Z 2003c5f0 f   AI.obj
 0001:0003b6c0       ?GetPassiveAnimPrefix@idAI@@IAE_NPBDAAVidStr@@@Z 2003c6c0 f   AI.obj
 0001:0003b760       ?SetEnemy@idAI@@QAE_NPAVidEntity@@@Z 2003c760 f   AI.obj
 0001:0003b870       ?ClearEnemy@idAI@@QAEX_N@Z 2003c870 f   AI.obj
 0001:0003b9e0       ?UpdateEnemy@idAI@@QAEXXZ  2003c9e0 f   AI.obj
 0001:0003c070       ?UpdateEnemyPosition@idAI@@QAEX_N@Z 2003d070 f   AI.obj
 0001:0003c240       ?UpdateEnemyVisibility@idAI@@QAEXXZ 2003d240 f   AI.obj
 0001:0003c2f0       ?GetAimDir@idAI@@QBE_NABVidVec3@@PBVidEntity@@PBVidDict@@PAV3@AAV2@MM@Z 2003d2f0 f   AI.obj
 0001:0003c9f0       ?GetPredictedAimDirOffset@idAI@@QBEXABVidVec3@@0M0AAV2@@Z 2003d9f0 f   AI.obj
 0001:0003cbb0       ?Pain@idAI@@UAE_NPAVidEntity@@0HABVidVec3@@H@Z 2003dbb0 f   AI.obj
 0001:0003cdf0       ?Killed@idAI@@UAEXPAVidEntity@@0HABVidVec3@@H@Z 2003ddf0 f   AI.obj
 0001:0003d500       ?CheckDeathCausesMissionFailure@idAI@@QAE_NXZ 2003e500 f   AI.obj
 0001:0003d5c0       ?Attack@idAI@@UAE_NPBDW4jointHandle_t@@PAVidEntity@@ABVidVec3@@@Z 2003e5c0 f   AI.obj
 0001:0003d6c0       ?AttackRanged@idAI@@UAEPAVidProjectile@@PBDPBVidDict@@W4jointHandle_t@@PAVidEntity@@ABVidVec3@@@Z 2003e6c0 f   AI.obj
 0001:0003e460       ?AttackProjectile@idAI@@UAEPAVidProjectile@@PBVidDict@@ABVidVec3@@ABVidAngles@@@Z 2003f460 f   AI.obj
 0001:0003e820       ?AttackMelee@idAI@@UAE_NPBDPBVidDict@@@Z 2003f820 f   AI.obj
 0001:0003ef20       ?CreateProjectileClipModel@idAI@@QBEXXZ 2003ff20 f   AI.obj
 0001:0003f030       ?CreateProjectile@idAI@@QAEPAVidProjectile@@PBVidDict@@ABVidVec3@@1@Z 20040030 f   AI.obj
 0001:0003f170       ?RemoveProjectile@idAI@@QAEXXZ 20040170 f   AI.obj
 0001:0003f1b0       ?DamageFeedback@idAI@@UAEXPAVidEntity@@0AAH@Z 200401b0 f   AI.obj
 0001:0003f230       ?DirectDamage@idAI@@QAEXPBDPAVidEntity@@@Z 20040230 f   AI.obj
 0001:0003f5b0       ?TestMelee@idAI@@QBE_NXZ   200405b0 f   AI.obj
 0001:0003f860       ?PushWithAF@idAI@@QAEXXZ   20040860 f   AI.obj
 0001:0003fa20       ?IsMeleeNeeded@idAI@@QAE_NXZ 20040a20 f   AI.obj
 0001:0003fab0       ?GetMuzzle@idAI@@QAEXW4jointHandle_t@@AAVidVec3@@AAVidMat3@@@Z 20040ab0 f   AI.obj
 0001:0003fcb0       ?UpdateAnimationControllers@idAI@@UAE_NXZ 20040cb0 f   AI.obj
 0001:000416b0       ?UpdateStates@idAI@@QAEXXZ 200426b0 f   AI.obj
 0001:00041740       ?UpdateFocus@idAI@@QAEXABVidMat3@@@Z 20042740 f   AI.obj
 0001:000424e0       ?FootStep@idAI@@UAEXXZ     200434e0 f   AI.obj
 0001:00042500       ?RadiusDamageFromJoint@idAI@@QAEXPBD0@Z 20043500 f   AI.obj
 0001:000425c0       ?BecomeSolid@idAI@@QAEXXZ  200435c0 f   AI.obj
 0001:00042680       ?BecomeNonSolid@idAI@@QAEXXZ 20043680 f   AI.obj
 0001:000426b0       ?ChooseAnim@idAI@@QAEPBDHPBD@Z 200436b0 f   AI.obj
 0001:00042720       ?SkipCurrentDestination@idAI@@UBE_NXZ 20043720 f   AI.obj
 0001:00042730       ?DoDormantTests@idAI@@UAE_NXZ 20043730 f   AI.obj
 0001:000427b0       ?OverrideFlag@idAI@@QAEXW4aiFlagOverride_t@@_N@Z 200437b0 f   AI.obj
 0001:000428e0       ?RestoreFlag@idAI@@QAEXW4aiFlagOverride_t@@@Z 200438e0 f   AI.obj
 0001:00042980       ?SkipImpulse@idAI@@UAE_NPAVidEntity@@H@Z 20043980 f   AI.obj
 0001:000429d0       ?GetIdleAnimName@idAI@@UAEPBDXZ 200439d0 f   AI.obj
 0001:00042a20       ?CanBecomeSolid@idAI@@QAE_NXZ 20043a20 f   AI.obj
 0001:00042ac0       ?CanHitEnemyFromAnim@idAI@@QAE_NHVidVec3@@@Z 20043ac0 f   AI.obj
 0001:00042f70       ?CanHitEnemy@idAI@@QAE_NXZ 20043f70 f   AI.obj
 0001:00043180       ?CanHitEnemyFromJoint@idAI@@QAE_NPBD@Z 20044180 f   AI.obj
 0001:000434a0       ?GetTurnDelta@idAI@@QAEMXZ 200444a0 f   AI.obj
 0001:00043550       ?ExecScriptFunction@idAI@@QAEXAAVrvScriptFuncUtility@@PAVidEntity@@@Z 20044550 f   AI.obj
 0001:00043590       ?SetLeader@idAI@@QAEXPAVidEntity@@@Z 20044590 f   AI.obj
 0001:00043660       ?CheckForEnemy@idAI@@QAE_N_N0@Z 20044660 f   AI.obj
 0001:00043750       ?CheckForCloserEnemy@idAI@@QAE_NXZ 20044750 f   AI.obj
 0001:00043900       ?CheckForReplaceEnemy@idAI@@QAE_NPAVidEntity@@@Z 20044900 f   AI.obj
 0001:00043ad0       ?CheckForTeammateEnemy@idAI@@QAE_NXZ 20044ad0 f   AI.obj
 0001:00043c60       ?ValidateCover@idAI@@QAE_NXZ 20044c60 f   AI.obj
 0001:00043d30       ?Begin@idAI@@QAEXXZ        20044d30 f   AI.obj
 0001:00043e90       ?WakeUp@idAI@@QAEXXZ       20044e90 f   AI.obj
 0001:00044130       ?Prethink@idAI@@UAEXXZ     20045130 f   AI.obj
 0001:00044290       ?Postthink@idAI@@UAEXXZ    20045290 f   AI.obj
 0001:000444c0       ?UpdateThreat@idAI@@MAEXXZ 200454c0 f   AI.obj
 0001:00044520       ?CalculateEnemyThreat@idAI@@MAEMPAVidEntity@@@Z 20045520 f   AI.obj
 0001:00044680       ?IsTethered@idAI@@UBE_NXZ  20045680 f   AI.obj
 0001:00044790       ?IsWithinTether@idAI@@QBE_NXZ 20045790 f   AI.obj
 0001:00044800       ?GetTether@idAI@@QAEPAVrvAITether@@XZ 20045800 f   AI.obj
 0001:00044830       ?SetTether@idAI@@UAEXPAVrvAITether@@@Z 20045830 f   AI.obj
 0001:000449b0       ?ScriptedMove@idAI@@QAEXPAVidEntity@@M_N@Z 200459b0 f   AI.obj
 0001:00044a40       ?ScriptedFace@idAI@@QAEXPAVidEntity@@_N@Z 20045a40 f   AI.obj
 0001:00044ab0       ?ScriptedAnim@idAI@@QAEXPBDH_N1@Z 20045ab0 f   AI.obj
 0001:00044b50       ?ScriptedPlaybackAim@idAI@@QAEXPBDHH@Z 20045b50 f   AI.obj
 0001:00044bc0       ?ScriptedAction@idAI@@QAEXPAVidEntity@@_N@Z 20045bc0 f   AI.obj
 0001:00044c80       ?ScriptedStop@idAI@@QAEXXZ 20045c80 f   AI.obj
 0001:00044ca0       ?SetScript@idAI@@QAEXPBD0@Z 20045ca0 f   AI.obj
 0001:00044e80       ?ScriptedBegin@idAI@@AAE_N_N0@Z 20045e80 f   AI.obj
 0001:00044ef0       ?ScriptedEnd@idAI@@AAEXXZ  20045ef0 f   AI.obj
 0001:00044f10       ?OnDeath@idAI@@MAEXXZ      20045f10 f   AI.obj
 0001:00044fb0       ?OnStateChange@idAI@@MAEXH@Z 20045fb0 f   AI.obj
 0001:00044fc0       ?OnUpdatePlayback@idAI@@MAEXABVrvDeclPlaybackData@@@Z 20045fc0 f   AI.obj
 0001:00044fd0       ?OnEnemyChange@idAI@@MAEXPAVidEntity@@@Z 20045fd0 f   AI.obj
 0001:00045110       ?OnLeaderChange@idAI@@MAEXPAVidEntity@@@Z 20046110 f   AI.obj
 0001:00045150       ?OnStartMoving@idAI@@MAEXXZ 20046150 f   AI.obj
 0001:00045160       ?OnStopMoving@idAI@@MAEXW4aiMoveCommand_t@@@Z 20046160 f   AI.obj
 0001:00045170       ?OnTacticalChange@idAI@@MAEXW4aiTactical_t@@@Z 20046170 f   AI.obj
 0001:00045190       ?OnFriendlyFire@idAI@@MAEXPAVidActor@@@Z 20046190 f   AI.obj
 0001:000451a0       ?OnWakeUp@idAI@@MAEXXZ     200461a0 f   AI.obj
 0001:000451b0       ?OnTouch@idAI@@MAEXPAVidEntity@@PAUtrace_t@@@Z 200461b0 f   AI.obj
 0001:00045310       ?OnCoverInvalidated@idAI@@MAEXXZ 20046310 f   AI.obj
 0001:00045350       ?OnCoverNotFacingEnemy@idAI@@MAEXXZ 20046350 f   AI.obj
 0001:00045380       ?OnEnemyVisiblityChange@idAI@@MAEX_N@Z 20046380 f   AI.obj
 0001:00045390       ?OnStartAction@idAI@@MAEXXZ 20046390 f   AI.obj
 0001:000453a0       ?OnStopAction@idAI@@MAEXXZ 200463a0 f   AI.obj
 0001:000453b0       ?OnSetKey@idAI@@MAEXPBD0@Z 200463b0 f   AI.obj
 0001:00045500       ??1idPhysics_Monster@@UAE@XZ 20046500 f i AI.obj
 0001:00045500       ??1idPhysics_Player@@UAE@XZ 20046500 f i Player.obj
 0001:00045510       ??1rvAIAction@@QAE@XZ      20046510 f i AI.obj
 0001:00045510       ??1rvScriptFuncUtility@@QAE@XZ 20046510 f i AI.obj
 0001:000455a0       ??1rvAIFuncs_s@@QAE@XZ     200465a0 f i AI.obj
 0001:000459b0       ??1rvAIPain_s@@QAE@XZ      200469b0 f i AI.obj
 0001:000459f0       ??1rvAIPassive_s@@QAE@XZ   200469f0 f i AI.obj
 0001:00045a70       ??_EidAI@@UAEPAXI@Z        20046a70 f i AI.obj
 0001:00045a70       ??_ErvMonsterScientist@@UAEPAXI@Z 20046a70 f i Monster_Scientist.obj
 0001:00045a70       ??_GidAI@@UAEPAXI@Z        20046a70 f i AI.obj
 0001:00045a70       ??_GrvMonsterScientist@@UAEPAXI@Z 20046a70 f i Monster_Scientist.obj
 0001:00045ab0       ?CanAnnounce@idAI@@UBE_NM@Z 20046ab0 f i AI.obj
 0001:00045b20       ?CanMove@idAI@@UBE_NXZ     20046b20 f i AI.obj
 0001:00045b50       ?CanTakePain@idAI@@UBE_NXZ 20046b50 f i AI.obj
 0001:00045b60       ?CanTurn@idAI@@UBE_NXZ     20046b60 f i AI.obj
 0001:00045b90       ?IsType@idClass@@QBE_NPBVidTypeInfo@@@Z 20046b90 f i AI.obj
 0001:00045bd0       ??0rvAIActionTimer@@QAE@XZ 20046bd0 f   AI_Actions.obj
 0001:00045be0       ?Init@rvAIActionTimer@@QAE_NABVidDict@@PBD@Z 20046be0 f   AI_Actions.obj
 0001:00045c50       ?Save@rvAIActionTimer@@QBEXPAVidSaveGame@@@Z 20046c50 f   AI_Actions.obj
 0001:00045c70       ?Restore@rvAIActionTimer@@QAEXPAVidRestoreGame@@@Z 20046c70 f   AI_Actions.obj
 0001:00045c90       ?Clear@rvAIActionTimer@@QAEXH@Z 20046c90 f   AI_Actions.obj
 0001:00045ca0       ?Reset@rvAIActionTimer@@QAEXHMM@Z 20046ca0 f   AI_Actions.obj
 0001:00045d20       ?Add@rvAIActionTimer@@QAEXHM@Z 20046d20 f   AI_Actions.obj
 0001:00045d90       ??0rvAIAction@@QAE@XZ      20046d90 f   AI_Actions.obj
 0001:00045df0       ?Init@rvAIAction@@QAE_NABVidDict@@PBD1H@Z 20046df0 f   AI_Actions.obj
 0001:000464e0       ?Save@rvAIAction@@QBEXPAVidSaveGame@@@Z 200474e0 f   AI_Actions.obj
 0001:000465d0       ?Restore@rvAIAction@@QAEXPAVidRestoreGame@@@Z 200475d0 f   AI_Actions.obj
 0001:00046810       ?UpdateAction@idAI@@IAE_NXZ 20047810 f   AI_Actions.obj
 0001:00046830       ?CheckActions@idAI@@MAE_NXZ 20047830 f   AI_Actions.obj
 0001:00046970       ?CheckPainActions@idAI@@MAE_NXZ 20047970 f   AI_Actions.obj
 0001:000469f0       ?PerformAction@idAI@@IAE_NPAVrvAIAction@@P81@AE_N0H@ZPAVrvAIActionTimer@@@Z 200479f0 f   AI_Actions.obj
 0001:00046fc0       ?PerformAction@idAI@@IAEXPBDH_N@Z 20047fc0 f   AI_Actions.obj
 0001:00047060       ?CheckAction_EvadeLeft@idAI@@UAE_NPAVrvAIAction@@H@Z 20048060 f   AI_Actions.obj
 0001:000470c0       ?CheckAction_EvadeRight@idAI@@UAE_NPAVrvAIAction@@H@Z 200480c0 f   AI_Actions.obj
 0001:00047110       ?CheckAction_RangedAttack@idAI@@UAE_NPAVrvAIAction@@H@Z 20048110 f   AI_Actions.obj
 0001:00047270       ?CheckAction_MeleeAttack@idAI@@UAE_NPAVrvAIAction@@H@Z 20048270 f   AI_Actions.obj
 0001:000472e0       ?CheckAction_LeapAttack@idAI@@QAE_NPAVrvAIAction@@H@Z 200482e0 f   AI_Actions.obj
 0001:000473a0       ?CheckAction_JumpBack@idAI@@UAE_NPAVrvAIAction@@H@Z 200483a0 f   AI_Actions.obj
 0001:000473c7       ??_9idAI@@$BCIA@AE         200483c7 f i AI_Actions.obj
 0001:000473cf       ??_9idAI@@$BCIE@AE         200483cf f i AI_Actions.obj
 0001:000473d7       ??_9idAI@@$BCII@AE         200483d7 f i AI_Actions.obj
 0001:000473d7       ??_9rvMonsterBerserker@@$BCII@AE 200483d7 f i Monster_Berserker.obj
 0001:000473df       ??_9idAI@@$BCIM@AE         200483df f i AI_Actions.obj
 0001:000473e7       ??_9idAI@@$BCJA@AE         200483e7 f i AI_Actions.obj
 0001:000473f0       ?AnnounceNewEnemy@idAI@@QAEXXZ 200483f0 f   AI_Announcements.obj
 0001:00047840       ?AnnounceKill@idAI@@QAEXPAVidActor@@@Z 20048840 f   AI_Announcements.obj
 0001:00047890       ?AnnounceTactical@idAI@@QAEXW4aiTactical_t@@@Z 20048890 f   AI_Announcements.obj
 0001:00047940       ?AnnounceSuppressed@idAI@@QAEXPAVidActor@@@Z 20048940 f   AI_Announcements.obj
 0001:00047950       ?AnnounceSuppressing@idAI@@QAEXXZ 20048950 f   AI_Announcements.obj
 0001:00047960       ?AnnounceFlinch@idAI@@QAEXPAVidEntity@@@Z 20048960 f   AI_Announcements.obj
 0001:00047a50       ?AnnounceInjured@idAI@@QAEXXZ 20048a50 f   AI_Announcements.obj
 0001:00047a80       ?AnnounceFriendlyFire@idAI@@QAEXPAVidActor@@@Z 20048a80 f   AI_Announcements.obj
 0001:00047be0       ?AnnounceGrenade@idAI@@QAEXXZ 20048be0 f   AI_Announcements.obj
 0001:00047c30       ?AnnounceGrenadeThrow@idAI@@QAEXXZ 20048c30 f   AI_Announcements.obj
 0001:00047c80       ?AnnounceKill@rvAIManager@@QAEXPAVidAI@@PAVidEntity@@1@Z 20048c80 f   AI_Announcements.obj
 0001:00047e00       ?AnnounceDeath@rvAIManager@@QAEXPAVidAI@@PAVidEntity@@@Z 20048e00 f   AI_Announcements.obj
 0001:00047fa0       ?GetDebugInfo@idAI@@UAEXP6AXPBD00PAX@Z1@Z 20048fa0 f   AI_Debug.obj
 0001:00048900       ?DrawRoute@idAI@@QBEXXZ    20049900 f   AI_Debug.obj
 0001:00048980       ?DrawTactical@idAI@@QAEXXZ 20049980 f   AI_Debug.obj
 0001:00049910       ?RegisterClassA@idAI@@SAXXZ 2004a910 f   AI_events.obj
 0001:000499d0       ?CreateInstance@idAI@@SAPAVidClass@@XZ 2004a9d0 f   AI_events.obj
 0001:00049a70       ?GetClassType@idAI@@SAAAVidTypeInfo@@XZ 2004aa70 f   AI_events.obj
 0001:00049a80       ?GetType@idAI@@UBEPAVidTypeInfo@@XZ 2004aa80 f   AI_events.obj
 0001:00049a90       ?LookAtEntity@idAI@@QAEXPAVidEntity@@M@Z 2004aa90 f   AI_events.obj
 0001:00049b60       ?Event_PostSpawn@idAI@@MAEXXZ 2004ab60 f   AI_events.obj
 0001:00049c00       ?Event_ClosestReachableEnemyOfEntity@idAI@@AAEXPAVidEntity@@@Z 2004ac00 f   AI_events.obj
 0001:00049da0       ?Event_GetReachableEntityPosition@idAI@@AAEXPAVidEntity@@@Z 2004ada0 f   AI_events.obj
 0001:00049e80       ?Event_EntityInAttackCone@idAI@@AAEXPAVidEntity@@@Z 2004ae80 f   AI_events.obj
 0001:0004a0f0       ?Event_TestAnimMoveTowardEnemy@idAI@@AAEXPBD@Z 2004b0f0 f   AI_events.obj
 0001:0004a470       ?Event_TestAnimMove@idAI@@AAEXPBD@Z 2004b470 f   AI_events.obj
 0001:0004a760       ?Event_TestMoveToPosition@idAI@@AAEXABVidVec3@@@Z 2004b760 f   AI_events.obj
 0001:0004a8b0       ?Event_TestMeleeAttack@idAI@@AAEXXZ 2004b8b0 f   AI_events.obj
 0001:0004a8c0       ?Event_TestAnimAttack@idAI@@AAEXPBD@Z 2004b8c0 f   AI_events.obj
 0001:0004a9b0       ?Event_ThrowMoveable@idAI@@AAEXXZ 2004b9b0 f   AI_events.obj
 0001:0004aa30       ?Event_ThrowAF@idAI@@AAEXXZ 2004ba30 f   AI_events.obj
 0001:0004aab0       ?Event_PredictEnemyPos@idAI@@AAEXM@Z 2004bab0 f   AI_events.obj
 0001:0004ab90       ?Event_FindActorsInBounds@idAI@@AAEXABVidVec3@@0@Z 2004bb90 f   AI_events.obj
 0001:0004ac70       ?Event_Activate@idAI@@AAEXPAVidEntity@@@Z 2004bc70 f   AI_events.obj
 0001:0004ac80       ?Event_Touch@idAI@@AAEXPAVidEntity@@PAUtrace_t@@@Z 2004bc80 f   AI_events.obj
 0001:0004ac90       ?Event_LookAt@idAI@@AAEXPAVidEntity@@@Z 2004bc90 f   AI_events.obj
 0001:0004acc0       ?Event_SetAngles@idAI@@AAEXABVidAngles@@@Z 2004bcc0 f   AI_events.obj
 0001:0004ad60       ?Event_SetEnemy@idAI@@AAEXPAVidEntity@@@Z 2004bd60 f   AI_events.obj
 0001:0004ad80       ?Event_SetHealth@idAI@@AAEXM@Z 2004bd80 f   AI_events.obj
 0001:0004adc0       ?Event_SetTalkState@idAI@@AAEXH@Z 2004bdc0 f   AI_events.obj
 0001:0004add0       ?Event_SetLeader@idAI@@AAEXPAVidEntity@@@Z 2004bdd0 f   AI_events.obj
 0001:0004ade0       ?Event_SetScript@idAI@@AAEXPBD0@Z 2004bde0 f   AI_events.obj
 0001:0004adf0       ?Event_SetMoveSpeed@idAI@@AAEXH@Z 2004bdf0 f   AI_events.obj
 0001:0004ae40       ?Event_SetPassivePrefix@idAI@@AAEXPBD@Z 2004be40 f   AI_events.obj
 0001:0004ae50       ?Event_GetAngles@idAI@@AAEXXZ 2004be50 f   AI_events.obj
 0001:0004ae90       ?Event_GetEnemy@idAI@@AAEXXZ 2004be90 f   AI_events.obj
 0001:0004aed0       ?Event_GetLeader@idAI@@AAEXXZ 2004bed0 f   AI_events.obj
 0001:0004af10       ?Event_Attack@idAI@@AAEXPBD0@Z 2004bf10 f   AI_events.obj
 0001:0004af70       ?Event_AttackMelee@idAI@@AAEXPBD@Z 2004bf70 f   AI_events.obj
 0001:0004aff0       ?Event_DirectDamage@idAI@@AAEXPAVidEntity@@PBD@Z 2004bff0 f   AI_events.obj
 0001:0004b010       ?Event_RadiusDamageFromJoint@idAI@@AAEXPBD0@Z 2004c010 f   AI_events.obj
 0001:0004b020       ?Event_CanBecomeSolid@idAI@@AAEXXZ 2004c020 f   AI_events.obj
 0001:0004b040       ?Event_BecomeSolid@idAI@@AAEXXZ 2004c040 f   AI_events.obj
 0001:0004b050       ?Event_BecomeNonSolid@idAI@@AAEXXZ 2004c050 f   AI_events.obj
 0001:0004b060       ?Event_BecomeRagdoll@idAI@@AAEXXZ 2004c060 f   AI_events.obj
 0001:0004b070       ?Event_StopRagdoll@idAI@@AAEXXZ 2004c070 f   AI_events.obj
 0001:0004b090       ?Event_FaceEnemy@idAI@@AAEXXZ 2004c090 f   AI_events.obj
 0001:0004b0a0       ?Event_FaceEntity@idAI@@AAEXPAVidEntity@@@Z 2004c0a0 f   AI_events.obj
 0001:0004b0b0       ?Event_BecomePassive@idAI@@AAEXH@Z 2004c0b0 f   AI_events.obj
 0001:0004b110       ?Event_BecomeAggressive@idAI@@AAEXXZ 2004c110 f   AI_events.obj
 0001:0004b160       ?Event_EnableDamage@idAI@@AAEXXZ 2004c160 f   AI_events.obj
 0001:0004b170       ?Event_EnableClip@idAI@@AAEXXZ 2004c170 f   AI_events.obj
 0001:0004b1a0       ?Event_EnableGravity@idAI@@AAEXXZ 2004c1a0 f   AI_events.obj
 0001:0004b1b0       ?Event_EnableAFPush@idAI@@AAEXXZ 2004c1b0 f   AI_events.obj
 0001:0004b1c0       ?Event_EnablePain@idAI@@AAEXXZ 2004c1c0 f   AI_events.obj
 0001:0004b1d0       ?Event_DisableDamage@idAI@@AAEXXZ 2004c1d0 f   AI_events.obj
 0001:0004b1e0       ?Event_DisableClip@idAI@@AAEXXZ 2004c1e0 f   AI_events.obj
 0001:0004b200       ?Event_DisableGravity@idAI@@AAEXXZ 2004c200 f   AI_events.obj
 0001:0004b210       ?Event_DisableAFPush@idAI@@AAEXXZ 2004c210 f   AI_events.obj
 0001:0004b220       ?Event_DisablePain@idAI@@AAEXXZ 2004c220 f   AI_events.obj
 0001:0004b230       ?Event_EnableTarget@idAI@@AAEXXZ 2004c230 f   AI_events.obj
 0001:0004b240       ?Event_DisableTarget@idAI@@AAEXXZ 2004c240 f   AI_events.obj
 0001:0004b250       ?Event_TakeDamage@idAI@@AAEXM@Z 2004c250 f   AI_events.obj
 0001:0004b2a0       ?Event_SetUndying@idAI@@AAEXM@Z 2004c2a0 f   AI_events.obj
 0001:0004b2f0       ?Event_EnableAutoBlink@idAI@@AAEXXZ 2004c2f0 f   AI_events.obj
 0001:0004b300       ?Event_DisableAutoBlink@idAI@@AAEXXZ 2004c300 f   AI_events.obj
 0001:0004b310       ?Event_LockEnemyOrigin@idAI@@AAEXXZ 2004c310 f   AI_events.obj
 0001:0004b320       ?Event_StopThinking@idAI@@AAEXXZ 2004c320 f   AI_events.obj
 0001:0004b340       ?Event_JumpFrame@idAI@@AAEXXZ 2004c340 f   AI_events.obj
 0001:0004b350       ?Event_RealKill@idAI@@AAEXXZ 2004c350 f   AI_events.obj
 0001:0004b3a0       ?Event_Kill@idAI@@AAEXXZ   2004c3a0 f   AI_events.obj
 0001:0004b3b0       ?Event_RemoveUpdateSpawner@idAI@@AAEXXZ 2004c3b0 f   AI_events.obj
 0001:0004b3f0       ?Event_AllowHiddenMovement@idAI@@AAEXH@Z 2004c3f0 f   AI_events.obj
 0001:0004b420       ?Event_CanReachPosition@idAI@@AAEXABVidVec3@@@Z 2004c420 f   AI_events.obj
 0001:0004b4c0       ?Event_CanReachEntity@idAI@@AAEXPAVidEntity@@@Z 2004c4c0 f   AI_events.obj
 0001:0004b5e0       ?Event_CanReachEnemy@idAI@@AAEXXZ 2004c5e0 f   AI_events.obj
 0001:0004b720       ?Event_IsSpeaking@idAI@@AAEXXZ 2004c720 f   AI_events.obj
 0001:0004b770       ?Event_IsTethered@idAI@@AAEXXZ 2004c770 f   AI_events.obj
 0001:0004b7a0       ?Event_IsWithinTether@idAI@@AAEXXZ 2004c7a0 f   AI_events.obj
 0001:0004b7c0       ?Event_IsMoving@idAI@@AAEXXZ 2004c7c0 f   AI_events.obj
 0001:0004b7f0       ?Event_Speak@idAI@@AAEXPBD@Z 2004c7f0 f   AI_events.obj
 0001:0004b810       ?Event_SpeakRandom@idAI@@AAEXPBD@Z 2004c810 f   AI_events.obj
 0001:0004b830       ?Event_ScriptedMove@idAI@@AAEXPAVidEntity@@M_N@Z 2004c830 f   AI_events.obj
 0001:0004b850       ?Event_ScriptedFace@idAI@@AAEXPAVidEntity@@_N@Z 2004c850 f   AI_events.obj
 0001:0004b860       ?Event_ScriptedAnim@idAI@@AAEXPBDH_N1@Z 2004c860 f   AI_events.obj
 0001:0004b870       ?Event_ScriptedPlaybackMove@idAI@@AAEXPBDHH@Z 2004c870 f   AI_events.obj
 0001:0004b880       ?Event_ScriptedPlaybackAim@idAI@@AAEXPBDHH@Z 2004c880 f   AI_events.obj
 0001:0004b890       ?Event_ScriptedAction@idAI@@AAEXPAVidEntity@@_N@Z 2004c890 f   AI_events.obj
 0001:0004b8a0       ?Event_ScriptedDone@idAI@@AAEXXZ 2004c8a0 f   AI_events.obj
 0001:0004b8d0       ?Event_ScriptedStop@idAI@@AAEXXZ 2004c8d0 f   AI_events.obj
 0001:0004b8e0       ?Event_ScriptedJumpDown@idAI@@AAEXM@Z 2004c8e0 f   AI_events.obj
 0001:0004b930       ?Event_FindEnemy@idAI@@AAEXM@Z 2004c930 f   AI_events.obj
 0001:0004b960       ?Event_SetKey@idAI@@AAEXPBD0@Z 2004c960 f   AI_events.obj
 0001:0004b990       ?Register_idAI@@YAXXZ      2004c990 f   AI_events.obj
 0001:0004b995       ??_9idAI@@$BCHM@AE         2004c995 f i AI_events.obj
 0001:0004b995       ??_9rvAITactical@@$BCHM@AE 2004c995 f i AI_Tactical.obj
 0001:0004b9a0       ??0rvAIManager@@QAE@XZ     2004c9a0 f   AI_Manager.obj
 0001:0004ba90       ?RunFrame@rvAIManager@@QAEXXZ 2004ca90 f   AI_Manager.obj
 0001:0004bf10       ?Save@rvAIManager@@QBEXPAVidSaveGame@@@Z 2004cf10 f   AI_Manager.obj
 0001:0004c030       ?Restore@rvAIManager@@QAEXPAVidRestoreGame@@@Z 2004d030 f   AI_Manager.obj
 0001:0004c2d0       ?Clear@rvAIManager@@QAEXXZ 2004d2d0 f   AI_Manager.obj
 0001:0004c3f0       ?IsActive@rvAIManager@@QAE_NXZ 2004d3f0 f   AI_Manager.obj
 0001:0004c400       ?IsSimpleThink@rvAIManager@@QAE_NPAVidAI@@@Z 2004d400 f   AI_Manager.obj
 0001:0004c440       ?UnMarkAllReachBlocked@rvAIManager@@QAEXXZ 2004d440 f   AI_Manager.obj
 0001:0004c480       ?ReMarkAllReachBlocked@rvAIManager@@QAEXXZ 2004d480 f   AI_Manager.obj
 0001:0004c4c0       ?MarkReachBlocked@rvAIManager@@QAEXPAVidAAS@@PAVidReachability@@ABV?$idList@PAVidEntity@@@@@Z 2004d4c0 f   AI_Manager.obj
 0001:0004cdb0       ?ValidateDestination@rvAIManager@@QBE_NPAVidAI@@ABVidVec3@@_NPAVidActor@@@Z 2004ddb0 f   AI_Manager.obj
 0001:0004d0d0       ?RegisterHelper@rvAIManager@@QAEXPAVrvAIHelper@@@Z 2004e0d0 f   AI_Manager.obj
 0001:0004d100       ?UnregisterHelper@rvAIManager@@QAEXPAVrvAIHelper@@@Z 2004e100 f   AI_Manager.obj
 0001:0004d120       ?FindClosestHelper@rvAIManager@@QAEPAVrvAIHelper@@ABVidVec3@@@Z 2004e120 f   AI_Manager.obj
 0001:0004d240       ?AddTeammate@rvAIManager@@QAEXPAVidActor@@@Z 2004e240 f   AI_Manager.obj
 0001:0004d270       ?RemoveTeammate@rvAIManager@@QAEXPAVidActor@@@Z 2004e270 f   AI_Manager.obj
 0001:0004d290       ?GetAllyTeam@rvAIManager@@QAEPAVidActor@@W4aiTeam_t@@@Z 2004e290 f   AI_Manager.obj
 0001:0004d2e0       ?GetEnemyTeam@rvAIManager@@QAEPAVidActor@@W4aiTeam_t@@@Z 2004e2e0 f   AI_Manager.obj
 0001:0004d330       ?NearestTeammateToPoint@rvAIManager@@QAEPAVidActor@@PAV2@VidVec3@@_NM22@Z 2004e330 f   AI_Manager.obj
 0001:0004d490       ?NearestTeammateEnemy@rvAIManager@@QAEPAVidEntity@@PAVidActor@@M_N1PAPAV3@@Z 2004e490 f   AI_Manager.obj
 0001:0004d680       ?LocalTeamHasEnemies@rvAIManager@@QAE_NPAVidAI@@MM_N@Z 2004e680 f   AI_Manager.obj
 0001:0004d8c0       ?ActorIsBehindActor@rvAIManager@@QAE_NPAVidActor@@0@Z 2004e8c0 f   AI_Manager.obj
 0001:0004d9f0       ?ReactToPlayerAttack@rvAIManager@@QAEXPAVidPlayer@@ABVidVec3@@1@Z 2004e9f0 f   AI_Manager.obj
 0001:0004db40       ?UpdateHelpers@rvAIManager@@IAEXXZ 2004eb40 f   AI_Manager.obj
 0001:0004dbc0       ?DebugDraw@rvAIManager@@IAEXXZ 2004ebc0 f   AI_Manager.obj
 0001:0004dc50       ?DebugDrawHelpers@rvAIManager@@IAEXXZ 2004ec50 f   AI_Manager.obj
 0001:0004dca0       ??0aiBlocked_s@@QAE@XZ     2004eca0 f i AI_Manager.obj
 0001:0004dcf0       ??1?$idList@UaiBlocked_s@@@@QAE@XZ 2004ecf0 f i AI_Manager.obj
 0001:0004dd70       ??1aiBlocked_s@@QAE@XZ     2004ed70 f i AI_Manager.obj
 0001:0004de40       ??4aiBlocked_s@@QAEAAU0@ABU0@@Z 2004ee40 f i AI_Manager.obj
 0001:0004e090       ?Prev@?$idLinkList@UstateCall_t@@@@QBEPAUstateCall_t@@XZ 2004f090 f i State.obj
 0001:0004e090       ?Prev@?$idLinkList@VidAI@@@@QBEPAVidAI@@XZ 2004f090 f i AI_Manager.obj
 0001:0004e0b0       ?RegisterClassA@rvAIMedic@@SAXXZ 2004f0b0 f   AI_Medic.obj
 0001:0004e170       ?CreateInstance@rvAIMedic@@SAPAVidClass@@XZ 2004f170 f   AI_Medic.obj
 0001:0004e210       ?GetClassType@rvAIMedic@@SAAAVidTypeInfo@@XZ 2004f210 f   AI_Medic.obj
 0001:0004e220       ?GetType@rvAIMedic@@UBEPAVidTypeInfo@@XZ 2004f220 f   AI_Medic.obj
 0001:0004e230       ??0rvAIMedic@@QAE@XZ       2004f230 f   AI_Medic.obj
 0001:0004e2e0       ?InitSpawnArgsVariables@rvAIMedic@@QAEXXZ 2004f2e0 f   AI_Medic.obj
 0001:0004e430       ?Spawn@rvAIMedic@@QAEXXZ   2004f430 f   AI_Medic.obj
 0001:0004e530       ?Think@rvAIMedic@@UAEXXZ   2004f530 f   AI_Medic.obj
 0001:0004e5b0       ?Save@rvAIMedic@@QBEXPAVidSaveGame@@@Z 2004f5b0 f   AI_Medic.obj
 0001:0004e680       ?Restore@rvAIMedic@@QAEXPAVidRestoreGame@@@Z 2004f680 f   AI_Medic.obj
 0001:0004e750       ?Show@rvAIMedic@@UAEXXZ    2004f750 f   AI_Medic.obj
 0001:0004e790       ?TalkTo@rvAIMedic@@UAEXPAVidActor@@@Z 2004f790 f   AI_Medic.obj
 0001:0004e890       ?GetDebugInfo@rvAIMedic@@UAEXP6AXPBD00PAX@Z1@Z 2004f890 f   AI_Medic.obj
 0001:0004ec10       ?IsTethered@rvAIMedic@@UBE_NXZ 2004fc10 f   AI_Medic.obj
 0001:0004ec60       ?OnStateThreadClear@rvAIMedic@@UAEXPBDH@Z 2004fc60 f   AI_Medic.obj
 0001:0004ecf0       ?Pain@rvAIMedic@@UAE_NPAVidEntity@@0HABVidVec3@@H@Z 2004fcf0 f   AI_Medic.obj
 0001:0004ed70       ?OnStartMoving@rvAIMedic@@MAEXXZ 2004fd70 f   AI_Medic.obj
 0001:0004edf0       ?SetHealValues@rvAIMedic@@AAEXPAVidPlayer@@@Z 2004fdf0 f   AI_Medic.obj
 0001:0004ee40       ?TakePatient@rvAIMedic@@AAEXPAVidPlayer@@@Z 2004fe40 f   AI_Medic.obj
 0001:0004f060       ?DropPatient@rvAIMedic@@AAEXXZ 20050060 f   AI_Medic.obj
 0001:0004f1a0       ?CheckTakePatient@rvAIMedic@@AAE_NPAVidPlayer@@@Z 200501a0 f   AI_Medic.obj
 0001:0004f3c0       ?SituationAllowsPatient@rvAIMedic@@AAE_NXZ 200503c0 f   AI_Medic.obj
 0001:0004f600       ?AvailableToTakePatient@rvAIMedic@@AAE_NXZ 20050600 f   AI_Medic.obj
 0001:0004f650       ?State_Medic@rvAIMedic@@AAE?AW4stateResult_t@@ABUstateParms_t@@@Z 20050650 f   AI_Medic.obj
 0001:0004feb0       ?Event_EnableHeal@rvAIMedic@@AAEXXZ 20050eb0 f   AI_Medic.obj
 0001:0004fec0       ?Event_DisableHeal@rvAIMedic@@AAEXXZ 20050ec0 f   AI_Medic.obj
 0001:0004fed0       ?Event_EnableMovement@rvAIMedic@@AAEXXZ 20050ed0 f   AI_Medic.obj
 0001:0004fee0       ?Event_DisableMovement@rvAIMedic@@AAEXXZ 20050ee0 f   AI_Medic.obj
 0001:0004fef0       ?Register_rvAIMedic@@YAXXZ 20050ef0 f   AI_Medic.obj
 0001:0004ff00       ??1rvAITactical@@UAE@XZ    20050f00 f i AI_Medic.obj
 0001:00050010       ??_ErvAIMedic@@UAEPAXI@Z   20051010 f i AI_Medic.obj
 0001:00050010       ??_GrvAIMedic@@UAEPAXI@Z   20051010 f i AI_Medic.obj
 0001:00050100       ??0idMoveState@@QAE@XZ     20051100 f   AI_Move.obj
 0001:00050300       ?Save@idMoveState@@QBEXPAVidSaveGame@@@Z 20051300 f   AI_Move.obj
 0001:00050700       ?Restore@idMoveState@@QAEXPAVidRestoreGame@@@Z 20051700 f   AI_Move.obj
 0001:00050a60       ?Spawn@idMoveState@@QAEXAAVidDict@@@Z 20051a60 f   AI_Move.obj
 0001:00050f00       ?AI_EntityMoved@@YAXPAVidEntity@@@Z 20051f00 f   AI_Move.obj
 0001:00050f20       ?AI_MoveInitialize@@YAXXZ  20051f20 f   AI_Move.obj
 0001:00051100       ?SetAAS@idAI@@QAEXXZ       20052100 f   AI_Move.obj
 0001:00051260       ?AdjustFlyingAngles@idAI@@QAEXXZ 20052260 f   AI_Move.obj
 0001:00051480       ?AddFlyBob@idAI@@QAEXAAVidVec3@@@Z 20052480 f   AI_Move.obj
 0001:00051630       ?AdjustFlyHeight@idAI@@QAEXAAVidVec3@@ABV2@@Z 20052630 f   AI_Move.obj
 0001:00051a40       ?FlySeekGoal@idAI@@QAEXAAVidVec3@@0@Z 20052a40 f   AI_Move.obj
 0001:00051ac0       ?AdjustFlySpeed@idAI@@QAEXAAVidVec3@@@Z 20052ac0 f   AI_Move.obj
 0001:00051cf0       ?FlyTurn@idAI@@QAEXXZ      20052cf0 f   AI_Move.obj
 0001:00051df0       ?Move@idAI@@QAEXXZ         20052df0 f   AI_Move.obj
 0001:00051f00       ?DeadMove@idAI@@UAEXXZ     20052f00 f   AI_Move.obj
 0001:00051f80       ?AnimMove@idAI@@QAEXXZ     20052f80 f   AI_Move.obj
 0001:00052770       ?SlideMove@idAI@@QAEXXZ    20053770 f   AI_Move.obj
 0001:00052f90       ?PlaybackMove@idAI@@QAEXXZ 20053f90 f   AI_Move.obj
 0001:00053330       ?FlyMove@idAI@@QAEXXZ      20054330 f   AI_Move.obj
 0001:00053ba0       ?StaticMove@idAI@@QAEXXZ   20054ba0 f   AI_Move.obj
 0001:00053e60       ?RVMasterMove@idAI@@QAEXXZ 20054e60 f   AI_Move.obj
 0001:00054df0       ?SetMoveType@idAI@@QAEXW4moveType_t@@@Z 20055df0 f   AI_Move.obj
 0001:00054ea0       ?CustomMove@idAI@@UAEXXZ   20055ea0 f   AI_Move.obj
 0001:00054eb0       ?KickObstacles@idAI@@QAEXABVidVec3@@MPAVidEntity@@@Z 20055eb0 f   AI_Move.obj
 0001:00055430       ?ApplyImpulse@idAI@@UAEXPAVidEntity@@HABVidVec3@@1_N@Z 20056430 f   AI_Move.obj
 0001:00055460       ?GetAnimMoveDelta@idAI@@QAEXABVidMat3@@0AAVidVec3@@@Z 20056460 f   AI_Move.obj
 0001:00055750       ?CheckObstacleAvoidance@idAI@@QAEXABVidVec3@@AAV2@PAVidReachability@@@Z 20056750 f   AI_Move.obj
 0001:00055b90       ?GetMovePos@idAI@@QAE_NAAVidVec3@@PAPAVidReachability@@@Z 20056b90 f   AI_Move.obj
 0001:000561f0       ?TravelDistance@idAI@@QBEMABVidVec3@@@Z 200571f0 f   AI_Move.obj
 0001:00056220       ?TravelDistance@idAI@@QBEMABVidVec3@@0@Z 20057220 f   AI_Move.obj
 0001:00056460       ?TravelDistance@idAI@@QBEMPAVidEntity@@@Z 20057460 f   AI_Move.obj
 0001:000564a0       ?TravelDistance@idAI@@QBEMPAVidEntity@@0@Z 200574a0 f   AI_Move.obj
 0001:000564e0       ?PointReachableAreaNum@idAI@@QBEHABVidVec3@@M@Z 200574e0 f   AI_Move.obj
 0001:00056590       ?PathToGoal@idAI@@QBE_NAAUaasPath_s@@HABVidVec3@@H1@Z 20057590 f   AI_Move.obj
 0001:000566c0       ?BlockedFailSafe@idAI@@QAEXXZ 200576c0 f   AI_Move.obj
 0001:000566d0       ?Turn@idAI@@QAEXXZ         200576d0 f   AI_Move.obj
 0001:00056bb0       ?TurnToward@idAI@@QAE_NM@Z 20057bb0 f   AI_Move.obj
 0001:00056c40       ?TurnToward@idAI@@QAE_NABVidVec3@@@Z 20057c40 f   AI_Move.obj
 0001:00056de0       ?TurnTowardLeader@idAI@@QAE_N_N@Z 20057de0 f   AI_Move.obj
 0001:00057400       ?FacingIdeal@idAI@@QAE_NXZ 20058400 f   AI_Move.obj
 0001:000574e0       ?DirectionalTurnToward@idAI@@QAE_NABVidVec3@@@Z 200584e0 f   AI_Move.obj
 0001:00057910       ?FaceEnemy@idAI@@QAE_NXZ   20058910 f   AI_Move.obj
 0001:000579f0       ?FaceEntity@idAI@@QAE_NPAVidEntity@@@Z 200589f0 f   AI_Move.obj
 0001:00057ac0       ?SlideToPosition@idAI@@QAE_NABVidVec3@@M@Z 20058ac0 f   AI_Move.obj
 0001:00057c60       ?WanderAround@idAI@@QAE_NXZ 20058c60 f   AI_Move.obj
 0001:00057e00       ?StepDirection@idAI@@QAE_NM@Z 20058e00 f   AI_Move.obj
 0001:000581c0       ?NewWanderDir@idAI@@QAE_NABVidVec3@@@Z 200591c0 f   AI_Move.obj
 0001:000585f0       ?TestAnimMove@idAI@@QAE_NHPAVidEntity@@PAVidVec3@@@Z 200595f0 f   AI_Move.obj
 0001:000588e0       ?UpdatePlayback@idAI@@QAEXAAVidVec3@@00AAVidMat3@@@Z 200598e0 f   AI_Move.obj
 0001:00058ad0       ?ScriptedPlaybackMove@idAI@@QAEXPBDHH@Z 20059ad0 f   AI_Move.obj
 0001:00058b70       ?StartMove@idAI@@IAE_NW4aiMoveCommand_t@@ABVidVec3@@HPAVidEntity@@PAUaasFeature_s@@M@Z 20059b70 f   AI_Move.obj
 0001:00058cc0       ?StopMove@idAI@@IAEXW4moveStatus_t@@@Z 20059cc0 f   AI_Move.obj
 0001:00058e20       ?MoveTo@idAI@@IAE_NABVidVec3@@M@Z 20059e20 f   AI_Move.obj
 0001:00058f10       ?MoveToAttack@idAI@@IAE_NPAVidEntity@@H@Z 20059f10 f   AI_Move.obj
 0001:00059240       ?MoveToTether@idAI@@IAE_NPAVrvAITether@@@Z 2005a240 f   AI_Move.obj
 0001:00059300       ?MoveToEnemy@idAI@@MAE_NXZ 2005a300 f   AI_Move.obj
 0001:00059640       ?MoveToEntity@idAI@@IAE_NPAVidEntity@@M@Z 2005a640 f   AI_Move.obj
 0001:000598b0       ?MoveToCover@idAI@@IAE_NMMW4aiTactical_t@@@Z 2005a8b0 f   AI_Move.obj
 0001:00059a30       ?MoveToHide@idAI@@IAE_NXZ  2005aa30 f   AI_Move.obj
 0001:00059c60       ?MoveOutOfRange@idAI@@IAE_NPAVidEntity@@MM@Z 2005ac60 f   AI_Move.obj
 0001:00059e20       ?AnimTurn@idAI@@IAEXM_N@Z  2005ae20 f   AI_Move.obj
 0001:00059fa0       ?ReachedPos@idAI@@IBE_NABVidVec3@@W4aiMoveCommand_t@@M@Z 2005afa0 f   AI_Move.obj
 0001:0005a330       ?Event_SaveMove@idAI@@AAEXXZ 2005b330 f   AI_Move.obj
 0001:0005a350       ?Event_RestoreMove@idAI@@AAEXXZ 2005b350 f   AI_Move.obj
 0001:0005a570       ?ValidForBounds@@YA_NPBVidAASSettings@@ABVidBounds@@@Z 2005b570 f   AI_Move.obj
 0001:0005a5b0       ?TestTeammateCollisions@@YAXPAVidAI@@@Z 2005b5b0 f   AI_Move.obj
 0001:0005aa50       ?Seek@@YA?AVidVec3@@AAV1@ABV1@1M@Z 2005ba50 f   AI_Move.obj
 0001:0005aae0       ?LineIntersection2D@@YA_NABVidVec3@@000AAV1@@Z 2005bae0 f   AI_Move.obj
 0001:0005abf0       ??0rvObstacle@@QAE@XZ      2005bbf0 f i AI_Move.obj
 0001:0005ac60       ??1obstaclePath_s@@QAE@XZ  2005bc60 f i AI_Move.obj
 0001:0005ace0       ??1rvAASFindGoalOutOfRange@@UAE@XZ 2005bce0 f i AI_Move.obj
 0001:0005acf0       ??1rvObstacle@@QAE@XZ      2005bcf0 f i AI_Move.obj
 0001:0005add0       ??4?$idEntityPtr@VidEntity@@@@QAEAAV0@AAV0@@Z 2005bdd0 f i AI_Move.obj
 0001:0005ae20       ??4idBounds@@QAEAAV0@$$QAV0@@Z 2005be20 f i AI_Move.obj
 0001:0005ae50       ??4idMoveState@@QAEAAV0@AAV0@@Z 2005be50 f i AI_Move.obj
 0001:0005b210       ?AddMarkers@rvObstacle@@QAEXXZ 2005c210 f i AI_Move.obj
 0001:0005b540       ?DistToLineSeg@idVec3@@QBEMABV1@0AAM@Z 2005c540 f i AI_Move.obj
 0001:0005b7b0       ?DrawVisitTree@rvPathFinder@@QAEXXZ 2005c7b0 f i AI_Move.obj
 0001:0005b890       ?FindPath@rvPathFinder@@QAE_NPAVidAAS@@AAVidMoveState@@M_NPAVidEntity@@3@Z 2005c890 f i AI_Move.obj
 0001:0005bda0       ?GetSeekPosition@rvPathFinder@@QAEABVidVec3@@PAVidReachability@@H@Z 2005cda0 f i AI_Move.obj
 0001:0005bdd0       ?MarkEntityForUpdate@rvObstacleFinder@@QAEXPAVidEntity@@@Z 2005cdd0 f i AI_Move.obj
 0001:0005c2a0       ?Open@rvPathFinder@@QAEXPAUvisitNode@1@@Z 2005d2a0 f i AI_Move.obj
 0001:0005c330       ?PointInside@rvWindingBox@@QBE_NABVidVec3@@@Z 2005d330 f i AI_Move.obj
 0001:0005c3d0       ?RayTrace@rvObstacleFinder@@QAE_NMPBUaasArea_s@@ABVidVec3@@1HPBVidEntity@@22@Z 2005d3d0 f i AI_Move.obj
 0001:0005cc00       ?RemoveMarkers@rvObstacle@@QAEXXZ 2005dc00 f i AI_Move.obj
 0001:0005cd10       ?SearchAreas_r@rvObstacle@@QAEXH@Z 2005dd10 f i AI_Move.obj
 0001:0005d030       ?Success@rvPathFinder@@QAE_NPAUvisitNode@1@@Z 2005e030 f i AI_Move.obj
 0001:0005d740       ?TravelCost@rvPathFinder@@QAEMPAVidReachability@@HPAUvisitNode@1@@Z 2005e740 f i AI_Move.obj
 0001:0005d910       ?Update@rvObstacle@@QAE_NXZ 2005e910 f i AI_Move.obj
 0001:0005e8c0       ?UpdateOpenList@rvPathFinder@@QAEXXZ 2005f8c0 f i AI_Move.obj
 0001:0005e950       ?Visit@rvPathFinder@@QAEXPAVidReachability@@HPAUvisitNode@1@@Z 2005f950 f i AI_Move.obj
 0001:0005ebe0       ?VisitArea@rvPathFinder@@QAEXHPAUvisitNode@1@@Z 2005fbe0 f i AI_Move.obj
 0001:0005edd0       ?clear@?$rvIndexPool@UrvObstacle@@$0DC@$0BAAA@@@QAEXXZ 2005fdd0 f i AI_Move.obj
 0001:0005ee20       ?visitSort@rvPathFinder@@SAHPBX0@Z 2005fe20 f i AI_Move.obj
 0001:0005ee50       ?FindPathAroundObstacles@idAI@@SA_NPBVidPhysics@@PBVidAAS@@PBVidEntity@@ABVidVec3@@3AAUobstaclePath_s@@@Z 2005fe50 f   AI_pathing.obj
 0001:0005f5e0       ?FreeObstacleAvoidanceNodes@idAI@@SAXXZ 200605e0 f   AI_pathing.obj
 0001:0005f5f0       ?PredictPath@idAI@@SA_NPBVidEntity@@PBVidAAS@@ABVidVec3@@2HHHAAUpredictedPath_s@@0@Z 200605f0 f   AI_pathing.obj
 0001:00060070       ?TestTrajectory@idAI@@SA_NABVidVec3@@0MMMMPBVidClipModel@@HPBVidEntity@@2H@Z 20061070 f   AI_pathing.obj
 0001:000604d0       ?PredictTrajectory@idAI@@SA_NABVidVec3@@0M0PBVidClipModel@@HMPBVidEntity@@2HAAV2@@Z 200614d0 f   AI_pathing.obj
 0001:00060d10       ?Init@pathNode_s@@QAEXXZ   20061d10 f   AI_pathing.obj
 0001:00060d70       ?LineIntersectsPath@@YA_NABVidVec2@@0PBUpathNode_s@@@Z 20061d70 f   AI_pathing.obj
 0001:00060ea0       ?PointInsideObstacle@@YAHPBUobstacle_s@@HABVidVec2@@_N@Z 20061ea0 f   AI_pathing.obj
 0001:00060f30       ?GetPointOutsideObstacles@@YAXPBUobstacle_s@@HAAVidVec2@@PAH2@Z 20061f30 f   AI_pathing.obj
 0001:00061490       ?GetFirstBlockingObstacle@@YA_NPBUobstacle_s@@HHABVidVec2@@1AAMAAH3@Z 20062490 f   AI_pathing.obj
 0001:00061640       ?GetObstacles@@YAHPBVidActor@@PBVidPhysics@@PBVidAAS@@PBVidEntity@@HABVidVec3@@4PAUobstacle_s@@HAAVidBounds@@@Z 20062640 f   AI_pathing.obj
 0001:00062770       ?FreePathTree_r@@YAXPAUpathNode_s@@@Z 20063770 f   AI_pathing.obj
 0001:000627b0       ?DrawPathTree@@YAXPBUpathNode_s@@M@Z 200637b0 f   AI_pathing.obj
 0001:00062870       ?GetPathNodeDelta@@YA_NPAUpathNode_s@@PBUobstacle_s@@ABVidVec2@@_N@Z 20063870 f   AI_pathing.obj
 0001:00062aa0       ?BuildPathTree@@YAPAUpathNode_s@@PBUobstacle_s@@HABVidBounds@@ABVidVec2@@2AAUobstaclePath_s@@@Z 20063aa0 f   AI_pathing.obj
 0001:000630a0       ?PrunePathTree@@YAXPAUpathNode_s@@ABVidVec2@@@Z 200640a0 f   AI_pathing.obj
 0001:00063170       ?OptimizePath@@YAHPBUpathNode_s@@0PBUobstacle_s@@HQAVidVec2@@@Z 20064170 f   AI_pathing.obj
 0001:00063420       ?PathLength@@YAMQAVidVec2@@HABV1@@Z 20064420 f   AI_pathing.obj
 0001:00063500       ?FindOptimalPath@@YA_NPBVidActor@@PBUpathNode_s@@PBUobstacle_s@@HMABVidVec3@@AAV4@@Z 20064500 f   AI_pathing.obj
 0001:00063790       ?PathTrace@@YA_NPBVidEntity@@PBVidAAS@@ABVidVec3@@2HAAUpathTrace_s@@AAUpredictedPath_s@@0@Z 20064790 f   AI_pathing.obj
 0001:00063a80       ?HeightForTrajectory@@YAMABVidVec3@@MM@Z 20064a80 f   AI_pathing.obj
 0001:00063ac0       ??0?$idBlockAlloc@UclipLink_s@@$0EAA@$0BM@@@QAE@XZ 20064ac0 f i Clip.obj
 0001:00063ac0       ??0?$idBlockAlloc@UentityNetEvent_s@@$0CA@$0BE@@@QAE@XZ 20064ac0 f i Game_local.obj
 0001:00063ac0       ??0?$idBlockAlloc@UentityState_s@@$0BAA@$0BL@@@QAE@XZ 20064ac0 f i Game_local.obj
 0001:00063ac0       ??0?$idBlockAlloc@UpathNode_s@@$0IA@$0BN@@@QAE@XZ 20064ac0 f i AI_pathing.obj
 0001:00063ac0       ??0?$idBlockAlloc@Usnapshot_s@@$0EA@$0BL@@@QAE@XZ 20064ac0 f i Game_local.obj
 0001:00063ac0       ??0?$idBlockAlloc@V?$idBTreeNode@V?$idDynamicBlock@E@@H@@$0IA@$01@@QAE@XZ 20064ac0 f i Event.obj
 0001:00063ae0       ??0?$idQueueTemplate@UpathNode_s@@$0DA@@@QAE@XZ 20064ae0 f i AI_pathing.obj
 0001:00063af0       ??1?$idBlockAlloc@UpathNode_s@@$0IA@$0BN@@@QAE@XZ 20064af0 f i AI_pathing.obj
 0001:00063b00       ?Add@?$idQueueTemplate@UpathNode_s@@$0DA@@@QAEXPAUpathNode_s@@@Z 20064b00 f i AI_pathing.obj
 0001:00063b30       ?Alloc@?$idBlockAlloc@UpathNode_s@@$0IA@$0BN@@@QAEPAUpathNode_s@@XZ 20064b30 f i AI_pathing.obj
 0001:00063e70       ?Free@?$idBlockAlloc@UclipLink_s@@$0EAA@$0BM@@@QAEXPAUclipLink_s@@@Z 20064e70 f i Clip.obj
 0001:00063e70       ?Free@?$idBlockAlloc@UentityNetEvent_s@@$0CA@$0BE@@@QAEXPAUentityNetEvent_s@@@Z 20064e70 f i Game_network.obj
 0001:00063e70       ?Free@?$idBlockAlloc@UentityState_s@@$0BAA@$0BL@@@QAEXPAUentityState_s@@@Z 20064e70 f i Game_network.obj
 0001:00063e70       ?Free@?$idBlockAlloc@UpathNode_s@@$0IA@$0BN@@@QAEXPAUpathNode_s@@@Z 20064e70 f i AI_pathing.obj
 0001:00063e70       ?Free@?$idBlockAlloc@Usnapshot_s@@$0EA@$0BL@@@QAEXPAUsnapshot_s@@@Z 20064e70 f i Game_network.obj
 0001:00063e70       ?Free@?$idBlockAlloc@V?$idBTreeNode@V?$idDynamicBlock@E@@H@@$0IA@$01@@QAEXPAV?$idBTreeNode@V?$idDynamicBlock@E@@H@@@Z 20064e70 f i Event.obj
 0001:00063e90       ?Get@?$idQueueTemplate@UpathNode_s@@$0DA@@@QAEPAUpathNode_s@@XZ 20064e90 f i AI_pathing.obj
 0001:00063ec0       ?Shutdown@?$idBlockAlloc@UpathNode_s@@$0IA@$0BN@@@QAEXXZ 20064ec0 f i AI_pathing.obj
 0001:00063f10       ?UpdateRunStatus@idAI@@UAE_NXZ 20064f10 f   AI_States.obj
 0001:00064260       ?UpdateTactical@idAI@@QAE_NH@Z 20065260 f   AI_States.obj
 0001:00064590       ?UpdateTactical_r@idAI@@QAE_NXZ 20065590 f   AI_States.obj
 0001:000649f0       ?FilterTactical@idAI@@UAEHH@Z 200659f0 f   AI_States.obj
 0001:00064d10       ?WakeUpTargets@idAI@@QAEXXZ 20065d10 f   AI_States.obj
 0001:00064e10       ?CheckTactical@idAI@@UAE?AW4aiCTResult_t@@W4aiTactical_t@@@Z 20065e10 f   AI_States.obj
 0001:00065380       ?State_Wait_Activated@idAI@@IAE?AW4stateResult_t@@ABUstateParms_t@@@Z 20066380 f   AI_States.obj
 0001:000653b0       ?State_Wait_ScriptedDone@idAI@@IAE?AW4stateResult_t@@ABUstateParms_t@@@Z 200663b0 f   AI_States.obj
 0001:000653d0       ?State_Wait_Action@idAI@@IAE?AW4stateResult_t@@ABUstateParms_t@@@Z 200663d0 f   AI_States.obj
 0001:00065410       ?State_Wait_ActionNoPain@idAI@@IAE?AW4stateResult_t@@ABUstateParms_t@@@Z 20066410 f   AI_States.obj
 0001:00065430       ?State_WakeUp@idAI@@IAE?AW4stateResult_t@@ABUstateParms_t@@@Z 20066430 f   AI_States.obj
 0001:00065560       ?State_TriggerAnim@idAI@@IAE?AW4stateResult_t@@ABUstateParms_t@@@Z 20066560 f   AI_States.obj
 0001:000655f0       ?State_Wander@idAI@@IAE?AW4stateResult_t@@ABUstateParms_t@@@Z 200665f0 f   AI_States.obj
 0001:00065660       ?State_Killed@idAI@@IAE?AW4stateResult_t@@ABUstateParms_t@@@Z 20066660 f   AI_States.obj
 0001:00065730       ?State_Dead@idAI@@IAE?AW4stateResult_t@@ABUstateParms_t@@@Z 20066730 f   AI_States.obj
 0001:000658b0       ?State_LightningDeath@idAI@@IAE?AW4stateResult_t@@ABUstateParms_t@@@Z 200668b0 f   AI_States.obj
 0001:00065a00       ?State_Burn@idAI@@IAE?AW4stateResult_t@@ABUstateParms_t@@@Z 20066a00 f   AI_States.obj
 0001:00065ba0       ?State_Remove@idAI@@IAE?AW4stateResult_t@@ABUstateParms_t@@@Z 20066ba0 f   AI_States.obj
 0001:00065bc0       ?State_Passive@idAI@@IAE?AW4stateResult_t@@ABUstateParms_t@@@Z 20066bc0 f   AI_States.obj
 0001:00065c90       ?State_Combat@idAI@@IAE?AW4stateResult_t@@ABUstateParms_t@@@Z 20066c90 f   AI_States.obj
 0001:00065d80       ?State_CombatCover@idAI@@IAE?AW4stateResult_t@@ABUstateParms_t@@@Z 20066d80 f   AI_States.obj
 0001:00065fc0       ?State_CombatMelee@idAI@@IAE?AW4stateResult_t@@ABUstateParms_t@@@Z 20066fc0 f   AI_States.obj
 0001:00066120       ?State_CombatRanged@idAI@@IAE?AW4stateResult_t@@ABUstateParms_t@@@Z 20067120 f   AI_States.obj
 0001:00066450       ?State_CombatTurret@idAI@@IAE?AW4stateResult_t@@ABUstateParms_t@@@Z 20067450 f   AI_States.obj
 0001:00066630       ?State_CombatHide@idAI@@MAE?AW4stateResult_t@@ABUstateParms_t@@@Z 20067630 f   AI_States.obj
 0001:000666b0       ?State_MovePlayerPush@idAI@@IAE?AW4stateResult_t@@ABUstateParms_t@@@Z 200676b0 f   AI_States.obj
 0001:00066760       ?State_MoveTether@idAI@@IAE?AW4stateResult_t@@ABUstateParms_t@@@Z 20067760 f   AI_States.obj
 0001:000669e0       ?State_MoveFollow@idAI@@IAE?AW4stateResult_t@@ABUstateParms_t@@@Z 200679e0 f   AI_States.obj
 0001:00066c00       ?State_ScriptedMove@idAI@@IAE?AW4stateResult_t@@ABUstateParms_t@@@Z 20067c00 f   AI_States.obj
 0001:00066c30       ?State_ScriptedFace@idAI@@IAE?AW4stateResult_t@@ABUstateParms_t@@@Z 20067c30 f   AI_States.obj
 0001:00066c60       ?State_ScriptedStop@idAI@@IAE?AW4stateResult_t@@ABUstateParms_t@@@Z 20067c60 f   AI_States.obj
 0001:00066cc0       ?State_ScriptedPlaybackMove@idAI@@IAE?AW4stateResult_t@@ABUstateParms_t@@@Z 20067cc0 f   AI_States.obj
 0001:00066ce0       ?State_ScriptedPlaybackAim@idAI@@IAE?AW4stateResult_t@@ABUstateParms_t@@@Z 20067ce0 f   AI_States.obj
 0001:00066d00       ?State_ScriptedJumpDown@idAI@@IAE?AW4stateResult_t@@ABUstateParms_t@@@Z 20067d00 f   AI_States.obj
 0001:00066f20       ?State_Torso_Idle@idAI@@IAE?AW4stateResult_t@@ABUstateParms_t@@@Z 20067f20 f   AI_States.obj
 0001:00066fe0       ?State_Torso_Sight@idAI@@IAE?AW4stateResult_t@@ABUstateParms_t@@@Z 20067fe0 f   AI_States.obj
 0001:000671c0       ?State_Torso_CustomCycle@idAI@@IAE?AW4stateResult_t@@ABUstateParms_t@@@Z 200681c0 f   AI_States.obj
 0001:000671d0       ?State_Torso_Action@idAI@@IAE?AW4stateResult_t@@ABUstateParms_t@@@Z 200681d0 f   AI_States.obj
 0001:00067230       ?State_Torso_FinishAction@idAI@@IAE?AW4stateResult_t@@ABUstateParms_t@@@Z 20068230 f   AI_States.obj
 0001:00067280       ?State_Torso_Pain@idAI@@IAE?AW4stateResult_t@@ABUstateParms_t@@@Z 20068280 f   AI_States.obj
 0001:000674a0       ?State_Torso_ScriptedAnim@idAI@@IAE?AW4stateResult_t@@ABUstateParms_t@@@Z 200684a0 f   AI_States.obj
 0001:000674e0       ?State_Torso_PassiveIdle@idAI@@IAE?AW4stateResult_t@@ABUstateParms_t@@@Z 200684e0 f   AI_States.obj
 0001:00067970       ?State_Torso_PassiveFidget@idAI@@IAE?AW4stateResult_t@@ABUstateParms_t@@@Z 20068970 f   AI_States.obj
 0001:00067aa0       ?State_Legs_Idle@idAI@@IAE?AW4stateResult_t@@ABUstateParms_t@@@Z 20068aa0 f   AI_States.obj
 0001:00067b80       ?State_Legs_TurnLeft@idAI@@IAE?AW4stateResult_t@@ABUstateParms_t@@@Z 20068b80 f   AI_States.obj
 0001:00067bd0       ?State_Legs_TurnRight@idAI@@IAE?AW4stateResult_t@@ABUstateParms_t@@@Z 20068bd0 f   AI_States.obj
 0001:00067c20       ?State_Legs_Move@idAI@@IAE?AW4stateResult_t@@ABUstateParms_t@@@Z 20068c20 f   AI_States.obj
 0001:00068000       ?State_Legs_MoveThink@idAI@@IAE?AW4stateResult_t@@ABUstateParms_t@@@Z 20069000 f   AI_States.obj
 0001:000680a0       ?State_Legs_ChangeDirection@idAI@@IAE?AW4stateResult_t@@ABUstateParms_t@@@Z 200690a0 f   AI_States.obj
 0001:000680e0       ?State_Head_Idle@idAI@@IAE?AW4stateResult_t@@ABUstateParms_t@@@Z 200690e0 f   AI_States.obj
 0001:000680e8       ??_9idAI@@$BCJE@AE         200690e8 f i AI_States.obj
 0001:000680e8       ??_9rvMonsterTeleportDropper@@$BCJE@AE 200690e8 f i Monster_TeleportDropper.obj
 0001:000680f0       ?RegisterClassA@rvAITactical@@SAXXZ 200690f0 f   AI_Tactical.obj
 0001:000681b0       ?CreateInstance@rvAITactical@@SAPAVidClass@@XZ 200691b0 f   AI_Tactical.obj
 0001:00068250       ?GetClassType@rvAITactical@@SAAAVidTypeInfo@@XZ 20069250 f   AI_Tactical.obj
 0001:00068260       ?GetType@rvAITactical@@UBEPAVidTypeInfo@@XZ 20069260 f   AI_Tactical.obj
 0001:00068270       ??0rvAITactical@@QAE@XZ    20069270 f   AI_Tactical.obj
 0001:000682f0       ?InitSpawnArgsVariables@rvAITactical@@QAEXXZ 200692f0 f   AI_Tactical.obj
 0001:00068410       ?Spawn@rvAITactical@@QAEXXZ 20069410 f   AI_Tactical.obj
 0001:00068530       ?Think@rvAITactical@@UAEXXZ 20069530 f   AI_Tactical.obj
 0001:00068880       ?Save@rvAITactical@@QBEXPAVidSaveGame@@@Z 20069880 f   AI_Tactical.obj
 0001:00068930       ?Restore@rvAITactical@@QAEXPAVidRestoreGame@@@Z 20069930 f   AI_Tactical.obj
 0001:00068a00       ?CheckActions@rvAITactical@@UAE_NXZ 20069a00 f   AI_Tactical.obj
 0001:00068d10       ?GetDebugInfo@rvAITactical@@UAEXP6AXPBD00PAX@Z1@Z 20069d10 f   AI_Tactical.obj
 0001:00068e30       ?CanTurn@rvAITactical@@UBE_NXZ 20069e30 f   AI_Tactical.obj
 0001:00068e80       ?CanMove@rvAITactical@@UBE_NXZ 20069e80 f   AI_Tactical.obj
 0001:00068ec0       ?IsCrouching@rvAITactical@@UBE_NXZ 20069ec0 f   AI_Tactical.obj
 0001:00068ef0       ?GetIdleAnimName@rvAITactical@@MAEPBDXZ 20069ef0 f   AI_Tactical.obj
 0001:00068f00       ?OnStopMoving@rvAITactical@@MAEXW4aiMoveCommand_t@@@Z 20069f00 f   AI_Tactical.obj
 0001:00069070       ?OnPostureChange@rvAITactical@@MAEXXZ 2006a070 f   AI_Tactical.obj
 0001:00069080       ?OnSetKey@rvAITactical@@MAEXPBD0@Z 2006a080 f   AI_Tactical.obj
 0001:00069090       ?CheckRelaxed@rvAITactical@@IBE_NXZ 2006a090 f   AI_Tactical.obj
 0001:000690f0       ?InitPostureInfo@rvAITactical@@IAEXXZ 2006a0f0 f   AI_Tactical.obj
 0001:000691a0       ?UpdatePosture@rvAITactical@@IAE_NXZ 2006a1a0 f   AI_Tactical.obj
 0001:00069640       ?CalculateShots@rvAITactical@@IAEXPBD@Z 2006a640 f   AI_Tactical.obj
 0001:00069710       ?UseAmmo@rvAITactical@@IAEXH@Z 2006a710 f   AI_Tactical.obj
 0001:00069750       ?UpdateAnimPrefix@rvAITactical@@IAEXXZ 2006a750 f   AI_Tactical.obj
 0001:00069780       ?CheckAction_Reload@rvAITactical@@AAE_NPAVrvAIAction@@H@Z 2006a780 f   AI_Tactical.obj
 0001:00069790       ?State_Torso_SetPosture@rvAITactical@@AAE?AW4stateResult_t@@ABUstateParms_t@@@Z 2006a790 f   AI_Tactical.obj
 0001:000699c0       ?State_Torso_RangedAttack@rvAITactical@@AAE?AW4stateResult_t@@ABUstateParms_t@@@Z 2006a9c0 f   AI_Tactical.obj
 0001:00069b80       ?State_Torso_MovingRangedAttack@rvAITactical@@AAE?AW4stateResult_t@@ABUstateParms_t@@@Z 2006ab80 f   AI_Tactical.obj
 0001:00069c50       ?State_Torso_Reload@rvAITactical@@AAE?AW4stateResult_t@@ABUstateParms_t@@@Z 2006ac50 f   AI_Tactical.obj
 0001:00069cf0       ?State_Torso_Cover_LeanLeftAttack@rvAITactical@@AAE?AW4stateResult_t@@ABUstateParms_t@@@Z 2006acf0 f   AI_Tactical.obj
 0001:00069d20       ?State_Torso_Cover_LeanRightAttack@rvAITactical@@AAE?AW4stateResult_t@@ABUstateParms_t@@@Z 2006ad20 f   AI_Tactical.obj
 0001:00069d50       ?State_Torso_Cover_LeanAttack@rvAITactical@@AAE?AW4stateResult_t@@ABUstateParms_t@@@Z 2006ad50 f   AI_Tactical.obj
 0001:00069eb0       ?State_Torso_Cover_Peek@rvAITactical@@AAE?AW4stateResult_t@@ABUstateParms_t@@@Z 2006aeb0 f   AI_Tactical.obj
 0001:00069f20       ?State_Frame_Peek@rvAITactical@@AAE?AW4stateResult_t@@ABUstateParms_t@@@Z 2006af20 f   AI_Tactical.obj
 0001:00069f30       ?Event_ForcePosture@rvAITactical@@AAEXH@Z 2006af30 f   AI_Tactical.obj
 0001:00069f40       ?Event_PostSpawn@rvAITactical@@EAEXXZ 2006af40 f   AI_Tactical.obj
 0001:0006a000       ?Register_rvAITactical@@YAXXZ 2006b000 f   AI_Tactical.obj
 0001:0006a010       ??_ErvAITactical@@UAEPAXI@Z 2006b010 f i AI_Tactical.obj
 0001:0006a010       ??_GrvAITactical@@UAEPAXI@Z 2006b010 f i AI_Tactical.obj
 0001:0006a160       ?RegisterClassA@rvAIHelper@@SAXXZ 2006b160 f   AI_Util.obj
 0001:0006a220       ?CreateInstance@rvAIHelper@@SAPAVidClass@@XZ 2006b220 f   AI_Util.obj
 0001:0006a2c0       ?GetClassType@rvAIHelper@@SAAAVidTypeInfo@@XZ 2006b2c0 f   AI_Util.obj
 0001:0006a2d0       ?GetType@rvAIHelper@@UBEPAVidTypeInfo@@XZ 2006b2d0 f   AI_Util.obj
 0001:0006a2e0       ??0rvAIHelper@@QAE@XZ      2006b2e0 f   AI_Util.obj
 0001:0006a320       ?Spawn@rvAIHelper@@QAEXXZ  2006b320 f   AI_Util.obj
 0001:0006a370       ?IsCombat@rvAIHelper@@UBE_NXZ 2006b370 f   AI_Util.obj
 0001:0006a380       ?ValidateDestination@rvAIHelper@@UBE_NPBVidAI@@ABVidVec3@@@Z 2006b380 f   AI_Util.obj
 0001:0006a390       ?GetDirection@rvAIHelper@@QBE?AVidVec3@@PBVidAI@@@Z 2006b390 f   AI_Util.obj
 0001:0006a400       ?OnActivate@rvAIHelper@@MAEX_N@Z 2006b400 f   AI_Util.obj
 0001:0006a420       ?Event_Activate@rvAIHelper@@AAEXPAVidEntity@@@Z 2006b420 f   AI_Util.obj
 0001:0006a460       ?RegisterClassA@rvAITrigger@@SAXXZ 2006b460 f   AI_Util.obj
 0001:0006a520       ?CreateInstance@rvAITrigger@@SAPAVidClass@@XZ 2006b520 f   AI_Util.obj
 0001:0006a5c0       ?GetClassType@rvAITrigger@@SAAAVidTypeInfo@@XZ 2006b5c0 f   AI_Util.obj
 0001:0006a5d0       ?GetType@rvAITrigger@@UBEPAVidTypeInfo@@XZ 2006b5d0 f   AI_Util.obj
 0001:0006a5e0       ??0rvAITrigger@@QAE@XZ     2006b5e0 f   AI_Util.obj
 0001:0006a650       ?Spawn@rvAITrigger@@QAEXXZ 2006b650 f   AI_Util.obj
 0001:0006a810       ?Save@rvAITrigger@@QBEXPAVidSaveGame@@@Z 2006b810 f   AI_Util.obj
 0001:0006a910       ?Restore@rvAITrigger@@QAEXPAVidRestoreGame@@@Z 2006b910 f   AI_Util.obj
 0001:0006aca0       ?Think@rvAITrigger@@UAEXXZ 2006bca0 f   AI_Util.obj
 0001:0006aef0       ?FindTargets@rvAITrigger@@UAEXXZ 2006bef0 f   AI_Util.obj
 0001:0006b740       ?Event_Activate@rvAITrigger@@AAEXPAVidEntity@@@Z 2006c740 f   AI_Util.obj
 0001:0006bb20       ?Event_AppendFromSpawner@rvAITrigger@@AAEXPAVrvSpawner@@PAVidEntity@@@Z 2006cb20 f   AI_Util.obj
 0001:0006beb0       ?RegisterClassA@rvAITether@@SAXXZ 2006ceb0 f   AI_Util.obj
 0001:0006bf70       ?CreateInstance@rvAITether@@SAPAVidClass@@XZ 2006cf70 f   AI_Util.obj
 0001:0006c010       ?GetClassType@rvAITether@@SAAAVidTypeInfo@@XZ 2006d010 f   AI_Util.obj
 0001:0006c020       ?GetType@rvAITether@@UBEPAVidTypeInfo@@XZ 2006d020 f   AI_Util.obj
 0001:0006c030       ??0rvAITether@@QAE@XZ      2006d030 f   AI_Util.obj
 0001:0006c080       ?Spawn@rvAITether@@QAEXXZ  2006d080 f   AI_Util.obj
 0001:0006c0a0       ?Save@rvAITether@@QBEXPAVidSaveGame@@@Z 2006d0a0 f   AI_Util.obj
 0001:0006c0c0       ?Restore@rvAITether@@QAEXPAVidRestoreGame@@@Z 2006d0c0 f   AI_Util.obj
 0001:0006c0f0       ?InitNonPersistentSpawnArgs@rvAITether@@QAEXXZ 2006d0f0 f   AI_Util.obj
 0001:0006c2c0       ?ValidateAAS@rvAITether@@UAE_NPAVidAI@@@Z 2006d2c0 f   AI_Util.obj
 0001:0006c2e0       ?ValidateDestination@rvAITether@@UAE_NPAVidAI@@ABVidVec3@@@Z 2006d2e0 f   AI_Util.obj
 0001:0006c3a0       ?ValidateBounds@rvAITether@@UAE_NABVidBounds@@@Z 2006d3a0 f   AI_Util.obj
 0001:0006c3b0       ?FindGoal@rvAITether@@UAE_NPAVidAI@@AAUaasGoal_s@@@Z 2006d3b0 f   AI_Util.obj
 0001:0006c4c0       ?DebugDraw@rvAITether@@UAEXXZ 2006d4c0 f   AI_Util.obj
 0001:0006c770       ?Event_Activate@rvAITether@@AAEXPAVidEntity@@@Z 2006d770 f   AI_Util.obj
 0001:0006ca00       ?Event_TetherSetupLocation@rvAITether@@AAEXXZ 2006da00 f   AI_Util.obj
 0001:0006cbf0       ?Event_TetherGetLocation@rvAITether@@AAEXXZ 2006dbf0 f   AI_Util.obj
 0001:0006cd00       ?RegisterClassA@rvAITetherBehind@@SAXXZ 2006dd00 f   AI_Util.obj
 0001:0006cdc0       ?CreateInstance@rvAITetherBehind@@SAPAVidClass@@XZ 2006ddc0 f   AI_Util.obj
 0001:0006ce70       ?GetClassType@rvAITetherBehind@@SAAAVidTypeInfo@@XZ 2006de70 f   AI_Util.obj
 0001:0006ce80       ?GetType@rvAITetherBehind@@UBEPAVidTypeInfo@@XZ 2006de80 f   AI_Util.obj
 0001:0006ce90       ?Spawn@rvAITetherBehind@@QAEXXZ 2006de90 f   AI_Util.obj
 0001:0006cea0       ?Restore@rvAITetherBehind@@QAEXPAVidRestoreGame@@@Z 2006dea0 f   AI_Util.obj
 0001:0006ceb0       ?InitNonPersistentSpawnArgs@rvAITetherBehind@@QAEXXZ 2006deb0 f   AI_Util.obj
 0001:0006cf00       ?ValidateDestination@rvAITetherBehind@@UAE_NPAVidAI@@ABVidVec3@@@Z 2006df00 f   AI_Util.obj
 0001:0006d190       ?ValidateBounds@rvAITetherBehind@@UAE_NABVidBounds@@@Z 2006e190 f   AI_Util.obj
 0001:0006d250       ?DebugDraw@rvAITetherBehind@@UAEXXZ 2006e250 f   AI_Util.obj
 0001:0006d4e0       ?RegisterClassA@rvAITetherRadius@@SAXXZ 2006e4e0 f   AI_Util.obj
 0001:0006d5a0       ?CreateInstance@rvAITetherRadius@@SAPAVidClass@@XZ 2006e5a0 f   AI_Util.obj
 0001:0006d650       ?GetClassType@rvAITetherRadius@@SAAAVidTypeInfo@@XZ 2006e650 f   AI_Util.obj
 0001:0006d660       ?GetType@rvAITetherRadius@@UBEPAVidTypeInfo@@XZ 2006e660 f   AI_Util.obj
 0001:0006d670       ?Spawn@rvAITetherRadius@@QAEXXZ 2006e670 f   AI_Util.obj
 0001:0006d680       ?Restore@rvAITetherRadius@@QAEXPAVidRestoreGame@@@Z 2006e680 f   AI_Util.obj
 0001:0006d690       ?InitNonPersistentSpawnArgs@rvAITetherRadius@@QAEXXZ 2006e690 f   AI_Util.obj
 0001:0006d700       ?ValidateDestination@rvAITetherRadius@@UAE_NPAVidAI@@ABVidVec3@@@Z 2006e700 f   AI_Util.obj
 0001:0006d790       ?ValidateBounds@rvAITetherRadius@@UAE_NABVidBounds@@@Z 2006e790 f   AI_Util.obj
 0001:0006d7e0       ?DebugDraw@rvAITetherRadius@@UAEXXZ 2006e7e0 f   AI_Util.obj
 0001:0006d860       ?RegisterClassA@rvAITetherClear@@SAXXZ 2006e860 f   AI_Util.obj
 0001:0006d920       ?CreateInstance@rvAITetherClear@@SAPAVidClass@@XZ 2006e920 f   AI_Util.obj
 0001:0006d9d0       ?GetClassType@rvAITetherClear@@SAAAVidTypeInfo@@XZ 2006e9d0 f   AI_Util.obj
 0001:0006d9e0       ?GetType@rvAITetherClear@@UBEPAVidTypeInfo@@XZ 2006e9e0 f   AI_Util.obj
 0001:0006d9f0       ?RegisterClassA@rvAIBecomePassive@@SAXXZ 2006e9f0 f   AI_Util.obj
 0001:0006dab0       ?CreateInstance@rvAIBecomePassive@@SAPAVidClass@@XZ 2006eab0 f   AI_Util.obj
 0001:0006db60       ?GetClassType@rvAIBecomePassive@@SAAAVidTypeInfo@@XZ 2006eb60 f   AI_Util.obj
 0001:0006db70       ?GetType@rvAIBecomePassive@@UBEPAVidTypeInfo@@XZ 2006eb70 f   AI_Util.obj
 0001:0006db80       ?Event_Activate@rvAIBecomePassive@@AAEXPAVidEntity@@@Z 2006eb80 f   AI_Util.obj
 0001:0006dc90       ?RegisterClassA@rvAIBecomeAggressive@@SAXXZ 2006ec90 f   AI_Util.obj
 0001:0006dd50       ?CreateInstance@rvAIBecomeAggressive@@SAPAVidClass@@XZ 2006ed50 f   AI_Util.obj
 0001:0006de00       ?GetClassType@rvAIBecomeAggressive@@SAAAVidTypeInfo@@XZ 2006ee00 f   AI_Util.obj
 0001:0006de10       ?GetType@rvAIBecomeAggressive@@UBEPAVidTypeInfo@@XZ 2006ee10 f   AI_Util.obj
 0001:0006de20       ?Event_Activate@rvAIBecomeAggressive@@AAEXPAVidEntity@@@Z 2006ee20 f   AI_Util.obj
 0001:0006def0       ?Register_rvAIHelper@@YAXXZ 2006eef0 f   AI_Util.obj
 0001:0006df00       ?RegisterClassA@rvAICombatHelper@@SAXXZ 2006ef00 f   AI_Util.obj
 0001:0006dfc0       ?CreateInstance@rvAICombatHelper@@SAPAVidClass@@XZ 2006efc0 f   AI_Util.obj
 0001:0006e060       ?GetClassType@rvAICombatHelper@@SAAAVidTypeInfo@@XZ 2006f060 f   AI_Util.obj
 0001:0006e070       ?GetType@rvAICombatHelper@@UBEPAVidTypeInfo@@XZ 2006f070 f   AI_Util.obj
 0001:0006e080       ??0rvAICombatHelper@@QAE@XZ 2006f080 f   AI_Util.obj
 0001:0006e0b0       ?Spawn@rvAICombatHelper@@QAEXXZ 2006f0b0 f   AI_Util.obj
 0001:0006e0c0       ?IsCombat@rvAICombatHelper@@UBE_NXZ 2006f0c0 f   AI_Util.obj
 0001:0006e0d0       ?ValidateDestination@rvAICombatHelper@@UBE_NPBVidAI@@ABVidVec3@@@Z 2006f0d0 f   AI_Util.obj
 0001:0006e2c0       ?OnActivate@rvAICombatHelper@@MAEX_N@Z 2006f2c0 f   AI_Util.obj
 0001:0006e360       ?Register_rvAICombatHelper@@YAXXZ 2006f360 f   AI_Util.obj
 0001:0006e370       ?RegisterClassA@rvAIAvoid@@SAXXZ 2006f370 f   AI_Util.obj
 0001:0006e430       ?CreateInstance@rvAIAvoid@@SAPAVidClass@@XZ 2006f430 f   AI_Util.obj
 0001:0006e4d0       ?GetClassType@rvAIAvoid@@SAAAVidTypeInfo@@XZ 2006f4d0 f   AI_Util.obj
 0001:0006e4e0       ?GetType@rvAIAvoid@@UBEPAVidTypeInfo@@XZ 2006f4e0 f   AI_Util.obj
 0001:0006e4f0       ??0rvAIAvoid@@QAE@XZ       2006f4f0 f   AI_Util.obj
 0001:0006e510       ?Spawn@rvAIAvoid@@QAEXXZ   2006f510 f   AI_Util.obj
 0001:0006e860       ?Register_rvAIAvoid@@YAXXZ 2006f860 f   AI_Util.obj
 0001:0006e870       ?Register_rvAITrigger@@YAXXZ 2006f870 f   AI_Util.obj
 0001:0006e880       ?Register_rvAITether@@YAXXZ 2006f880 f   AI_Util.obj
 0001:0006e890       ?Register_rvAITetherBehind@@YAXXZ 2006f890 f   AI_Util.obj
 0001:0006e8a0       ?Register_rvAITetherRadius@@YAXXZ 2006f8a0 f   AI_Util.obj
 0001:0006e8b0       ?Register_rvAITetherClear@@YAXXZ 2006f8b0 f   AI_Util.obj
 0001:0006e8c0       ?Register_rvAIBecomePassive@@YAXXZ 2006f8c0 f   AI_Util.obj
 0001:0006e8d0       ?Register_rvAIBecomeAggressive@@YAXXZ 2006f8d0 f   AI_Util.obj
 0001:0006e8e0       ??1rvAITether@@UAE@XZ      2006f8e0 f i AI_Util.obj
 0001:0006e970       ??_ErvAICombatHelper@@UAEPAXI@Z 2006f970 f i AI_Util.obj
 0001:0006e970       ??_GrvAICombatHelper@@UAEPAXI@Z 2006f970 f i AI_Util.obj
 0001:0006e9c0       ??_ErvAIHelper@@UAEPAXI@Z  2006f9c0 f i AI_Util.obj
 0001:0006e9c0       ??_GrvAIHelper@@UAEPAXI@Z  2006f9c0 f i AI_Util.obj
 0001:0006ea10       ??_ErvAITether@@UAEPAXI@Z  2006fa10 f i AI_Util.obj
 0001:0006ea10       ??_ErvAITetherClear@@UAEPAXI@Z 2006fa10 f i AI_Util.obj
 0001:0006ea10       ??_GrvAITether@@UAEPAXI@Z  2006fa10 f i AI_Util.obj
 0001:0006ea10       ??_GrvAITetherClear@@UAEPAXI@Z 2006fa10 f i AI_Util.obj
 0001:0006ea50       ??_ErvAITetherBehind@@UAEPAXI@Z 2006fa50 f i AI_Util.obj
 0001:0006ea50       ??_ErvAITetherRadius@@UAEPAXI@Z 2006fa50 f i AI_Util.obj
 0001:0006ea50       ??_GrvAITetherBehind@@UAEPAXI@Z 2006fa50 f i AI_Util.obj
 0001:0006ea50       ??_GrvAITetherRadius@@UAEPAXI@Z 2006fa50 f i AI_Util.obj
 0001:0006ea90       ??_ErvAITrigger@@UAEPAXI@Z 2006fa90 f i AI_Util.obj
 0001:0006ea90       ??_GrvAITrigger@@UAEPAXI@Z 2006fa90 f i AI_Util.obj
 0001:0006ebb0       ?GetOriginReachedRange@rvAITether@@UAEMXZ 2006fbb0 f i AI_Util.obj
 0001:0006ebc0       ?RegisterClassA@rvMonsterBerserker@@SAXXZ 2006fbc0 f   Monster_Berserker.obj
 0001:0006ec80       ?CreateInstance@rvMonsterBerserker@@SAPAVidClass@@XZ 2006fc80 f   Monster_Berserker.obj
 0001:0006ed20       ?GetClassType@rvMonsterBerserker@@SAAAVidTypeInfo@@XZ 2006fd20 f   Monster_Berserker.obj
 0001:0006ed30       ?GetType@rvMonsterBerserker@@UBEPAVidTypeInfo@@XZ 2006fd30 f   Monster_Berserker.obj
 0001:0006ed40       ??0rvMonsterBerserker@@QAE@XZ 2006fd40 f   Monster_Berserker.obj
 0001:0006edb0       ?Spawn@rvMonsterBerserker@@QAEXXZ 2006fdb0 f   Monster_Berserker.obj
 0001:0006ee80       ?Save@rvMonsterBerserker@@QBEXPAVidSaveGame@@@Z 2006fe80 f   Monster_Berserker.obj
 0001:0006eed0       ?Restore@rvMonsterBerserker@@QAEXPAVidRestoreGame@@@Z 2006fed0 f   Monster_Berserker.obj
 0001:0006ef20       ?GetDebugInfo@rvMonsterBerserker@@UAEXP6AXPBD00PAX@Z1@Z 2006ff20 f   Monster_Berserker.obj
 0001:0006ef80       ?Pain@rvMonsterBerserker@@UAE_NPAVidEntity@@0HABVidVec3@@H@Z 2006ff80 f   Monster_Berserker.obj
 0001:0006efc0       ?CheckPainActions@rvMonsterBerserker@@MAE_NXZ 2006ffc0 f   Monster_Berserker.obj
 0001:0006f050       ?CheckActions@rvMonsterBerserker@@MAE_NXZ 20070050 f   Monster_Berserker.obj
 0001:0006f1b0       ?FilterTactical@rvMonsterBerserker@@MAEHH@Z 200701b0 f   Monster_Berserker.obj
 0001:0006f210       ?OnTacticalChange@rvMonsterBerserker@@MAEXW4aiTactical_t@@@Z 20070210 f   Monster_Berserker.obj
 0001:0006f250       ?Berz_CanHitEnemyFromAnim@rvMonsterBerserker@@AAE_NH@Z 20070250 f   Monster_Berserker.obj
 0001:0006f590       ?CheckAction_RangedAttack@rvMonsterBerserker@@EAE_NPAVrvAIAction@@H@Z 20070590 f   Monster_Berserker.obj
 0001:0006f6d0       ?CheckAction_ChargeAttack@rvMonsterBerserker@@AAE_NPAVrvAIAction@@H@Z 200706d0 f   Monster_Berserker.obj
 0001:0006f8a0       ?State_Killed@rvMonsterBerserker@@AAE?AW4stateResult_t@@ABUstateParms_t@@@Z 200708a0 f   Monster_Berserker.obj
 0001:0006f8e0       ?State_Torso_Pain@rvMonsterBerserker@@AAE?AW4stateResult_t@@ABUstateParms_t@@@Z 200708e0 f   Monster_Berserker.obj
 0001:0006f910       ?State_Torso_ChargeAttack@rvMonsterBerserker@@AAE?AW4stateResult_t@@ABUstateParms_t@@@Z 20070910 f   Monster_Berserker.obj
 0001:0006f9d0       ?Frame_ChargeGroundImpact@rvMonsterBerserker@@AAE?AW4stateResult_t@@ABUstateParms_t@@@Z 200709d0 f   Monster_Berserker.obj
 0001:0006fab0       ?Frame_DoBlastAttack@rvMonsterBerserker@@AAE?AW4stateResult_t@@ABUstateParms_t@@@Z 20070ab0 f   Monster_Berserker.obj
 0001:0006fbb0       ?Register_rvMonsterBerserker@@YAXXZ 20070bb0 f   Monster_Berserker.obj
 0001:0006fbc0       ??_ErvMonsterBerserker@@UAEPAXI@Z 20070bc0 f i Monster_Berserker.obj
 0001:0006fbc0       ??_GrvMonsterBerserker@@UAEPAXI@Z 20070bc0 f i Monster_Berserker.obj
 0001:0006fd10       ?RegisterClassA@rvMonsterBossBuddy@@SAXXZ 20070d10 f   Monster_BossBuddy.obj
 0001:0006fdd0       ?CreateInstance@rvMonsterBossBuddy@@SAPAVidClass@@XZ 20070dd0 f   Monster_BossBuddy.obj
 0001:0006fe70       ?GetClassType@rvMonsterBossBuddy@@SAAAVidTypeInfo@@XZ 20070e70 f   Monster_BossBuddy.obj
 0001:0006fe80       ?GetType@rvMonsterBossBuddy@@UBEPAVidTypeInfo@@XZ 20070e80 f   Monster_BossBuddy.obj
 0001:0006fe90       ??0rvMonsterBossBuddy@@QAE@XZ 20070e90 f   Monster_BossBuddy.obj
 0001:0006ff80       ?Spawn@rvMonsterBossBuddy@@QAEXXZ 20070f80 f   Monster_BossBuddy.obj
 0001:00070070       ?InitSpawnArgsVariables@rvMonsterBossBuddy@@QAEXXZ 20071070 f   Monster_BossBuddy.obj
 0001:000700d0       ?Save@rvMonsterBossBuddy@@QBEXPAVidSaveGame@@@Z 200710d0 f   Monster_BossBuddy.obj
 0001:000701b0       ?Restore@rvMonsterBossBuddy@@QAEXPAVidRestoreGame@@@Z 200711b0 f   Monster_BossBuddy.obj
 0001:00070290       ?CanTurn@rvMonsterBossBuddy@@UBE_NXZ 20071290 f   Monster_BossBuddy.obj
 0001:000702c0       ?Think@rvMonsterBossBuddy@@UAEXXZ 200712c0 f   Monster_BossBuddy.obj
 0001:000703c0       ?Pain@rvMonsterBossBuddy@@UAE_NPAVidEntity@@0HABVidVec3@@H@Z 200713c0 f   Monster_BossBuddy.obj
 0001:000704d0       ?Damage@rvMonsterBossBuddy@@UAEXPAVidEntity@@0ABVidVec3@@PBDMH@Z 200714d0 f   Monster_BossBuddy.obj
 0001:000705e0       ?OnWakeUp@rvMonsterBossBuddy@@UAEXXZ 200715e0 f   Monster_BossBuddy.obj
 0001:00070640       ?GetDebugInfo@rvMonsterBossBuddy@@UAEXP6AXPBD00PAX@Z1@Z 20071640 f   Monster_BossBuddy.obj
 0001:000706d0       ?CheckActions@rvMonsterBossBuddy@@MAE_NXZ 200716d0 f   Monster_BossBuddy.obj
 0001:00070770       ?AdjustShieldState@rvMonsterBossBuddy@@IAEX_N@Z 20071770 f   Monster_BossBuddy.obj
 0001:00070800       ?ReduceShields@rvMonsterBossBuddy@@IAEXH@Z 20071800 f   Monster_BossBuddy.obj
 0001:000708b0       ?State_Torso_RocketAttack@rvMonsterBossBuddy@@AAE?AW4stateResult_t@@ABUstateParms_t@@@Z 200718b0 f   Monster_BossBuddy.obj
 0001:00070b00       ?State_Torso_SlashAttack@rvMonsterBossBuddy@@AAE?AW4stateResult_t@@ABUstateParms_t@@@Z 20071b00 f   Monster_BossBuddy.obj
 0001:00070ba0       ?State_Torso_TurnRight90@rvMonsterBossBuddy@@AAE?AW4stateResult_t@@ABUstateParms_t@@@Z 20071ba0 f   Monster_BossBuddy.obj
 0001:00070c50       ?State_Torso_TurnLeft90@rvMonsterBossBuddy@@AAE?AW4stateResult_t@@ABUstateParms_t@@@Z 20071c50 f   Monster_BossBuddy.obj
 0001:00070d00       ?Event_RechargeShields@rvMonsterBossBuddy@@AAEXM@Z 20071d00 f   Monster_BossBuddy.obj
 0001:00070d70       ?Register_rvMonsterBossBuddy@@YAXXZ 20071d70 f   Monster_BossBuddy.obj
 0001:00070d80       ??1rvMonsterBossBuddy@@UAE@XZ 20071d80 f i Monster_BossBuddy.obj
 0001:000710f0       ??_ErvMonsterBossBuddy@@UAEPAXI@Z 200720f0 f i Monster_BossBuddy.obj
 0001:000710f0       ??_GrvMonsterBossBuddy@@UAEPAXI@Z 200720f0 f i Monster_BossBuddy.obj
 0001:00071130       ?RegisterClassA@rvMonsterBossMakron@@SAXXZ 20072130 f   Monster_BossMakron.obj
 0001:000711f0       ?CreateInstance@rvMonsterBossMakron@@SAPAVidClass@@XZ 200721f0 f   Monster_BossMakron.obj
 0001:00071290       ?GetClassType@rvMonsterBossMakron@@SAAAVidTypeInfo@@XZ 20072290 f   Monster_BossMakron.obj
 0001:000712a0       ?GetType@rvMonsterBossMakron@@UBEPAVidTypeInfo@@XZ 200722a0 f   Monster_BossMakron.obj
 0001:000712b0       ??0rvMonsterBossMakron@@QAE@XZ 200722b0 f   Monster_BossMakron.obj
 0001:00071420       ?Spawn@rvMonsterBossMakron@@QAEXXZ 20072420 f   Monster_BossMakron.obj
 0001:000716a0       ?InitSpawnArgsVariables@rvMonsterBossMakron@@QAEXXZ 200726a0 f   Monster_BossMakron.obj
 0001:000717d0       ?CanTurn@rvMonsterBossMakron@@UBE_NXZ 200727d0 f   Monster_BossMakron.obj
 0001:00071840       ?Save@rvMonsterBossMakron@@QBEXPAVidSaveGame@@@Z 20072840 f   Monster_BossMakron.obj
 0001:00071af0       ?Restore@rvMonsterBossMakron@@QAEXPAVidRestoreGame@@@Z 20072af0 f   Monster_BossMakron.obj
 0001:00071d90       ?BuildActionArray@rvMonsterBossMakron@@QAEXXZ 20072d90 f   Monster_BossMakron.obj
 0001:00071e20       ?CheckActions@rvMonsterBossMakron@@MAE_NXZ 20072e20 f   Monster_BossMakron.obj
 0001:00071f80       ?CheckTurnActions@rvMonsterBossMakron@@IAE_NXZ 20072f80 f   Monster_BossMakron.obj
 0001:000720a0       ?Killed@rvMonsterBossMakron@@MAEXPAVidEntity@@0HABVidVec3@@H@Z 200730a0 f   Monster_BossMakron.obj
 0001:000721e0       ?Damage@rvMonsterBossMakron@@MAEXPAVidEntity@@0ABVidVec3@@PBDMH@Z 200731e0 f   Monster_BossMakron.obj
 0001:00072210       ?PerformAction@rvMonsterBossMakron@@IAEXPBDH_N@Z 20073210 f   Monster_BossMakron.obj
 0001:00072290       ?PerformAction@rvMonsterBossMakron@@IAE_NPAVrvAIAction@@P8idAI@@AE_N0H@ZPAVrvAIActionTimer@@@Z 20073290 f   Monster_BossMakron.obj
 0001:000722a0       ?PerformPatternedAction@rvMonsterBossMakron@@IAEXXZ 200732a0 f   Monster_BossMakron.obj
 0001:000723e0       ?OnStopAction@rvMonsterBossMakron@@MAEXXZ 200733e0 f   Monster_BossMakron.obj
 0001:000723f0       ?StopAllEffects@rvMonsterBossMakron@@IAEXXZ 200733f0 f   Monster_BossMakron.obj
 0001:00072440       ?BeginSeparation@rvMonsterBossMakron@@IAEXXZ 20073440 f   Monster_BossMakron.obj
 0001:000726d0       ?CompleteSeparation@rvMonsterBossMakron@@IAEXXZ 200736d0 f   Monster_BossMakron.obj
 0001:00072780       ?MaintainBoltSweep@rvMonsterBossMakron@@IAEXXZ 20073780 f   Monster_BossMakron.obj
 0001:00072c30       ?InitBoltSweep@rvMonsterBossMakron@@IAEXVidVec3@@@Z 20073c30 f   Monster_BossMakron.obj
 0001:00073010       ?LightningSweep@rvMonsterBossMakron@@IAEXVidVec3@@AAV?$rvClientEntityPtr@VrvClientEffect@@@@1@Z 20074010 f   Monster_BossMakron.obj
 0001:00073620       ?StopAllBoltEffects@rvMonsterBossMakron@@IAEXXZ 20074620 f   Monster_BossMakron.obj
 0001:00073750       ?State_Torso_DMGAttack@rvMonsterBossMakron@@IAE?AW4stateResult_t@@ABUstateParms_t@@@Z 20074750 f   Monster_BossMakron.obj
 0001:000737c0       ?State_Torso_GrenadeAttack@rvMonsterBossMakron@@IAE?AW4stateResult_t@@ABUstateParms_t@@@Z 200747c0 f   Monster_BossMakron.obj
 0001:00073840       ?State_Torso_MeleeAttack@rvMonsterBossMakron@@IAE?AW4stateResult_t@@ABUstateParms_t@@@Z 20074840 f   Monster_BossMakron.obj
 0001:000738b0       ?State_Torso_CannonAttack@rvMonsterBossMakron@@IAE?AW4stateResult_t@@ABUstateParms_t@@@Z 200748b0 f   Monster_BossMakron.obj
 0001:00073aa0       ?State_Torso_CannonSweepAttack@rvMonsterBossMakron@@IAE?AW4stateResult_t@@ABUstateParms_t@@@Z 20074aa0 f   Monster_BossMakron.obj
 0001:00073b10       ?State_Torso_Lightning1Attack@rvMonsterBossMakron@@IAE?AW4stateResult_t@@ABUstateParms_t@@@Z 20074b10 f   Monster_BossMakron.obj
 0001:00073cc0       ?State_Torso_Lightning2Attack@rvMonsterBossMakron@@IAE?AW4stateResult_t@@ABUstateParms_t@@@Z 20074cc0 f   Monster_BossMakron.obj
 0001:00073e60       ?State_Torso_StompAttack@rvMonsterBossMakron@@IAE?AW4stateResult_t@@ABUstateParms_t@@@Z 20074e60 f   Monster_BossMakron.obj
 0001:00073ed0       ?State_Torso_Recharge@rvMonsterBossMakron@@IAE?AW4stateResult_t@@ABUstateParms_t@@@Z 20074ed0 f   Monster_BossMakron.obj
 0001:00073ef0       ?State_Torso_Charge@rvMonsterBossMakron@@IAE?AW4stateResult_t@@ABUstateParms_t@@@Z 20074ef0 f   Monster_BossMakron.obj
 0001:00073f60       ?State_Torso_KillPlayer@rvMonsterBossMakron@@IAE?AW4stateResult_t@@ABUstateParms_t@@@Z 20074f60 f   Monster_BossMakron.obj
 0001:00074070       ?State_Torso_Teleport@rvMonsterBossMakron@@IAE?AW4stateResult_t@@ABUstateParms_t@@@Z 20075070 f   Monster_BossMakron.obj
 0001:00074110       ?State_Killed@rvMonsterBossMakron@@IAE?AW4stateResult_t@@ABUstateParms_t@@@Z 20075110 f   Monster_BossMakron.obj
 0001:00074240       ?State_Torso_TurnRight90@rvMonsterBossMakron@@IAE?AW4stateResult_t@@ABUstateParms_t@@@Z 20075240 f   Monster_BossMakron.obj
 0001:000742f0       ?State_Torso_TurnLeft90@rvMonsterBossMakron@@IAE?AW4stateResult_t@@ABUstateParms_t@@@Z 200752f0 f   Monster_BossMakron.obj
 0001:000743a0       ?State_Torso_RotateToAngle@rvMonsterBossMakron@@IAE?AW4stateResult_t@@ABUstateParms_t@@@Z 200753a0 f   Monster_BossMakron.obj
 0001:000745b0       ?State_ScriptedFace@rvMonsterBossMakron@@IAE?AW4stateResult_t@@ABUstateParms_t@@@Z 200755b0 f   Monster_BossMakron.obj
 0001:00074610       ?State_Torso_FirstDeath@rvMonsterBossMakron@@IAE?AW4stateResult_t@@ABUstateParms_t@@@Z 20075610 f   Monster_BossMakron.obj
 0001:00074670       ?State_Torso_Resurrection@rvMonsterBossMakron@@IAE?AW4stateResult_t@@ABUstateParms_t@@@Z 20075670 f   Monster_BossMakron.obj
 0001:00074790       ?Frame_BeginLightningSweep2@rvMonsterBossMakron@@IAE?AW4stateResult_t@@ABUstateParms_t@@@Z 20075790 f   Monster_BossMakron.obj
 0001:000747c0       ?Frame_EndLightningSweep2@rvMonsterBossMakron@@IAE?AW4stateResult_t@@ABUstateParms_t@@@Z 200757c0 f   Monster_BossMakron.obj
 0001:000747d0       ?Frame_StompAttack@rvMonsterBossMakron@@IAE?AW4stateResult_t@@ABUstateParms_t@@@Z 200757d0 f   Monster_BossMakron.obj
 0001:000748c0       ?Frame_Teleport@rvMonsterBossMakron@@IAE?AW4stateResult_t@@ABUstateParms_t@@@Z 200758c0 f   Monster_BossMakron.obj
 0001:000748f0       ?Event_AllowMoreSpawns@rvMonsterBossMakron@@IAEXXZ 200758f0 f   Monster_BossMakron.obj
 0001:00074900       ?Event_SetNextAction@rvMonsterBossMakron@@IAEXPBD@Z 20075900 f   Monster_BossMakron.obj
 0001:00074bc0       ?Event_EnablePatternMode@rvMonsterBossMakron@@IAEXXZ 20075bc0 f   Monster_BossMakron.obj
 0001:00074be0       ?Event_DisablePatternMode@rvMonsterBossMakron@@IAEXXZ 20075be0 f   Monster_BossMakron.obj
 0001:00074bf0       ?Event_StompAttack@rvMonsterBossMakron@@IAEXAAVidVec3@@@Z 20075bf0 f   Monster_BossMakron.obj
 0001:00074f20       ?Event_Separate@rvMonsterBossMakron@@IAEXXZ 20075f20 f   Monster_BossMakron.obj
 0001:00074f50       ?Event_FlyingRotate@rvMonsterBossMakron@@IAEXAAVidVec3@@@Z 20075f50 f   Monster_BossMakron.obj
 0001:00074f90       ?Event_ToggleCornerState@rvMonsterBossMakron@@IAEXM@Z 20075f90 f   Monster_BossMakron.obj
 0001:00074fc0       ?Register_rvMonsterBossMakron@@YAXXZ 20075fc0 f   Monster_BossMakron.obj
 0001:00074fd0       ??1rvMonsterBossMakron@@UAE@XZ 20075fd0 f i Monster_BossMakron.obj
 0001:00075550       ??_ErvMonsterBossMakron@@UAEPAXI@Z 20076550 f i Monster_BossMakron.obj
 0001:00075550       ??_GrvMonsterBossMakron@@UAEPAXI@Z 20076550 f i Monster_BossMakron.obj
 0001:00075590       ?RegisterClassA@rvMonsterConvoyGround@@SAXXZ 20076590 f   Monster_ConvoyGround.obj
 0001:00075650       ?CreateInstance@rvMonsterConvoyGround@@SAPAVidClass@@XZ 20076650 f   Monster_ConvoyGround.obj
 0001:000756f0       ?GetClassType@rvMonsterConvoyGround@@SAAAVidTypeInfo@@XZ 200766f0 f   Monster_ConvoyGround.obj
 0001:00075700       ?GetType@rvMonsterConvoyGround@@UBEPAVidTypeInfo@@XZ 20076700 f   Monster_ConvoyGround.obj
 0001:00075710       ??0rvMonsterConvoyGround@@QAE@XZ 20076710 f   Monster_ConvoyGround.obj
 0001:00075780       ?Spawn@rvMonsterConvoyGround@@QAEXXZ 20076780 f   Monster_ConvoyGround.obj
 0001:000757c0       ?InitSpawnArgsVariables@rvMonsterConvoyGround@@QAEXXZ 200767c0 f   Monster_ConvoyGround.obj
 0001:000758d0       ?Save@rvMonsterConvoyGround@@QBEXPAVidSaveGame@@@Z 200768d0 f   Monster_ConvoyGround.obj
 0001:00075960       ?Restore@rvMonsterConvoyGround@@QAEXPAVidRestoreGame@@@Z 20076960 f   Monster_ConvoyGround.obj
 0001:000759f0       ?Postthink@rvMonsterConvoyGround@@UAEXXZ 200769f0 f   Monster_ConvoyGround.obj
 0001:00075a00       ?Pain@rvMonsterConvoyGround@@UAE_NPAVidEntity@@0HABVidVec3@@H@Z 20076a00 f   Monster_ConvoyGround.obj
 0001:00075a30       ?CheckPainActions@rvMonsterConvoyGround@@UAE_NXZ 20076a30 f   Monster_ConvoyGround.obj
 0001:00075a50       ?CanTurn@rvMonsterConvoyGround@@UBE_NXZ 20076a50 f   Monster_ConvoyGround.obj
 0001:00075a90       ?CanMove@rvMonsterConvoyGround@@UBE_NXZ 20076a90 f   Monster_ConvoyGround.obj
 0001:00075ac0       ?Damage@rvMonsterConvoyGround@@UAEXPAVidEntity@@0ABVidVec3@@PBDMH@Z 20076ac0 f   Monster_ConvoyGround.obj
 0001:00075b40       ?AdjustHealthByDamage@rvMonsterConvoyGround@@UAEXH@Z 20076b40 f   Monster_ConvoyGround.obj
 0001:00075bc0       ?GetDebugInfo@rvMonsterConvoyGround@@UAEXP6AXPBD00PAX@Z1@Z 20076bc0 f   Monster_ConvoyGround.obj
 0001:00075c50       ?CheckActions@rvMonsterConvoyGround@@MAE_NXZ 20076c50 f   Monster_ConvoyGround.obj
 0001:00075d40       ?FilterTactical@rvMonsterConvoyGround@@MAEHH@Z 20076d40 f   Monster_ConvoyGround.obj
 0001:00075d50       ?GetIdleAnimName@rvMonsterConvoyGround@@MAEPBDXZ 20076d50 f   Monster_ConvoyGround.obj
 0001:00075d70       ?OnDeath@rvMonsterConvoyGround@@MAEXXZ 20076d70 f   Monster_ConvoyGround.obj
 0001:00075f50       ?State_Fall@rvMonsterConvoyGround@@AAE?AW4stateResult_t@@ABUstateParms_t@@@Z 20076f50 f   Monster_ConvoyGround.obj
 0001:00076210       ?State_Legs_Move@rvMonsterConvoyGround@@AAE?AW4stateResult_t@@ABUstateParms_t@@@Z 20077210 f   Monster_ConvoyGround.obj
 0001:000765c0       ?State_Torso_BlasterAttack@rvMonsterConvoyGround@@AAE?AW4stateResult_t@@ABUstateParms_t@@@Z 200775c0 f   Monster_ConvoyGround.obj
 0001:000766f0       ?State_Torso_Open@rvMonsterConvoyGround@@AAE?AW4stateResult_t@@ABUstateParms_t@@@Z 200776f0 f   Monster_ConvoyGround.obj
 0001:00076760       ?State_Torso_Close@rvMonsterConvoyGround@@AAE?AW4stateResult_t@@ABUstateParms_t@@@Z 20077760 f   Monster_ConvoyGround.obj
 0001:00076810       ?State_Torso_Pain@rvMonsterConvoyGround@@AAE?AW4stateResult_t@@ABUstateParms_t@@@Z 20077810 f   Monster_ConvoyGround.obj
 0001:00076940       ?Register_rvMonsterConvoyGround@@YAXXZ 20077940 f   Monster_ConvoyGround.obj
 0001:00076950       ??_ErvMonsterConvoyGround@@UAEPAXI@Z 20077950 f i Monster_ConvoyGround.obj
 0001:00076950       ??_GrvMonsterConvoyGround@@UAEPAXI@Z 20077950 f i Monster_ConvoyGround.obj
 0001:00076a30       ?RegisterClassA@rvMonsterConvoyHover@@SAXXZ 20077a30 f   Monster_ConvoyHover.obj
 0001:00076af0       ?CreateInstance@rvMonsterConvoyHover@@SAPAVidClass@@XZ 20077af0 f   Monster_ConvoyHover.obj
 0001:00076b90       ?GetClassType@rvMonsterConvoyHover@@SAAAVidTypeInfo@@XZ 20077b90 f   Monster_ConvoyHover.obj
 0001:00076ba0       ?GetType@rvMonsterConvoyHover@@UBEPAVidTypeInfo@@XZ 20077ba0 f   Monster_ConvoyHover.obj
 0001:00076bb0       ??0rvMonsterConvoyHover@@QAE@XZ 20077bb0 f   Monster_ConvoyHover.obj
 0001:00076c00       ??1rvMonsterConvoyHover@@UAE@XZ 20077c00 f   Monster_ConvoyHover.obj
 0001:00076c50       ?Save@rvMonsterConvoyHover@@QBEXPAVidSaveGame@@@Z 20077c50 f   Monster_ConvoyHover.obj
 0001:00076d00       ?Restore@rvMonsterConvoyHover@@QAEXPAVidRestoreGame@@@Z 20077d00 f   Monster_ConvoyHover.obj
 0001:00076e50       ?InitSpawnArgsVariables@rvMonsterConvoyHover@@QAEXXZ 20077e50 f   Monster_ConvoyHover.obj
 0001:00077150       ?Spawn@rvMonsterConvoyHover@@QAEXXZ 20078150 f   Monster_ConvoyHover.obj
 0001:00077530       ?Think@rvMonsterConvoyHover@@UAEXXZ 20078530 f   Monster_ConvoyHover.obj
 0001:00077d70       ?Think_Random@rvMonsterConvoyHover@@AAEXXZ 20078d70 f   Monster_ConvoyHover.obj
 0001:00078370       ?Think_Pathing@rvMonsterConvoyHover@@AAEXXZ 20079370 f   Monster_ConvoyHover.obj
 0001:00078380       ?AttackBlaster@rvMonsterConvoyHover@@AAEXXZ 20079380 f   Monster_ConvoyHover.obj
 0001:00078570       ?AttackBeam@rvMonsterConvoyHover@@AAEXXZ 20079570 f   Monster_ConvoyHover.obj
 0001:00078760       ?CalcDampening@rvMonsterConvoyHover@@AAEXABVidAngles@@AAV2@@Z 20079760 f   Monster_ConvoyHover.obj
 0001:00078a60       ?State_Idle@rvMonsterConvoyHover@@AAE?AW4stateResult_t@@ABUstateParms_t@@@Z 20079a60 f   Monster_ConvoyHover.obj
 0001:00078b50       ?State_BlasterAttack@rvMonsterConvoyHover@@AAE?AW4stateResult_t@@ABUstateParms_t@@@Z 20079b50 f   Monster_ConvoyHover.obj
 0001:00078be0       ?State_BeamAttack@rvMonsterConvoyHover@@AAE?AW4stateResult_t@@ABUstateParms_t@@@Z 20079be0 f   Monster_ConvoyHover.obj
 0001:00078c70       ?OnDeath@rvMonsterConvoyHover@@EAEXXZ 20079c70 f   Monster_ConvoyHover.obj
 0001:00078de0       ?Register_rvMonsterConvoyHover@@YAXXZ 20079de0 f   Monster_ConvoyHover.obj
 0001:00078df0       ??$SpawnSafeEntityDef@VidProjectile@@@idGameLocal@@QAEPAVidProjectile@@PBDPBVidDict@@@Z 20079df0 f i Monster_ConvoyHover.obj
 0001:00078e50       ??_ErvMonsterConvoyHover@@UAEPAXI@Z 20079e50 f i Monster_ConvoyHover.obj
 0001:00078e50       ??_GrvMonsterConvoyHover@@UAEPAXI@Z 20079e50 f i Monster_ConvoyHover.obj
 0001:00078e90       ?CanPlayImpactEffect@rvMonsterFatty@@UAE_NPAVidEntity@@0@Z 20079e90 f i Monster_Fatty.obj
 0001:00078e90       ?GetPhysicsToVisualTransform@rvVehicle@@UAE_NAAVidVec3@@AAVidMat3@@@Z 20079e90 f i Monster_ConvoyHover.obj
 0001:00078e90       ?RepeaterApplySnapshot@idGameLocal@@UAE_NHH@Z 20079e90 f i Game_local.obj
 0001:00078ea0       ?SetInput@rvVehicle@@UAEXHABVusercmd_t@@ABVidAngles@@@Z 20079ea0 f i Monster_ConvoyHover.obj
 0001:00078ed0       ?PushOntoStack@idTypeDef@@UAEXPAVidThread@@PBD@Z 20079ed0 f i Script_Compiler.obj
 0001:00078ed0       ?RepeaterProcessReliableMessage@idGameLocal@@UAEXHABVidBitMsg@@@Z 20079ed0 f i Game_local.obj
 0001:00078ed0       ?UpdateHUD@rvVehicle@@UAEXPAVidActor@@PAVidUserInterface@@@Z 20079ed0 f i Monster_ConvoyHover.obj
 0001:00078ee0       ?RegisterClassA@rvMonsterFailedTransfer@@SAXXZ 20079ee0 f   Monster_FailedTransfer.obj
 0001:00078fa0       ?CreateInstance@rvMonsterFailedTransfer@@SAPAVidClass@@XZ 20079fa0 f   Monster_FailedTransfer.obj
 0001:00079040       ?GetClassType@rvMonsterFailedTransfer@@SAAAVidTypeInfo@@XZ 2007a040 f   Monster_FailedTransfer.obj
 0001:00079050       ?GetType@rvMonsterFailedTransfer@@UBEPAVidTypeInfo@@XZ 2007a050 f   Monster_FailedTransfer.obj
 0001:00079060       ??0rvMonsterFailedTransfer@@QAE@XZ 2007a060 f   Monster_FailedTransfer.obj
 0001:00079090       ?Spawn@rvMonsterFailedTransfer@@QAEXXZ 2007a090 f   Monster_FailedTransfer.obj
 0001:000790c0       ?Killed@rvMonsterFailedTransfer@@UAEXPAVidEntity@@0HABVidVec3@@H@Z 2007a0c0 f   Monster_FailedTransfer.obj
 0001:00079110       ?Save@rvMonsterFailedTransfer@@QBEXPAVidSaveGame@@@Z 2007a110 f   Monster_FailedTransfer.obj
 0001:00079130       ?Restore@rvMonsterFailedTransfer@@QAEXPAVidRestoreGame@@@Z 2007a130 f   Monster_FailedTransfer.obj
 0001:00079150       ?OnDeath@rvMonsterFailedTransfer@@MAEXXZ 2007a150 f   Monster_FailedTransfer.obj
 0001:00079500       ?Register_rvMonsterFailedTransfer@@YAXXZ 2007a500 f   Monster_FailedTransfer.obj
 0001:00079510       ??_ErvMonsterFailedTransfer@@UAEPAXI@Z 2007a510 f i Monster_FailedTransfer.obj
 0001:00079510       ??_GrvMonsterFailedTransfer@@UAEPAXI@Z 2007a510 f i Monster_FailedTransfer.obj
 0001:00079550       ?RegisterClassA@rvMonsterFatty@@SAXXZ 2007a550 f   Monster_Fatty.obj
 0001:00079610       ?CreateInstance@rvMonsterFatty@@SAPAVidClass@@XZ 2007a610 f   Monster_Fatty.obj
 0001:000796e0       ?GetClassType@rvMonsterFatty@@SAAAVidTypeInfo@@XZ 2007a6e0 f   Monster_Fatty.obj
 0001:000796f0       ?GetType@rvMonsterFatty@@UBEPAVidTypeInfo@@XZ 2007a6f0 f   Monster_Fatty.obj
 0001:00079700       ??1rvMonsterFatty@@UAE@XZ  2007a700 f   Monster_Fatty.obj
 0001:000797b0       ?InitSpawnArgsVariables@rvMonsterFatty@@QAEXXZ 2007a7b0 f   Monster_Fatty.obj
 0001:000798c0       ?Spawn@rvMonsterFatty@@QAEXXZ 2007a8c0 f   Monster_Fatty.obj
 0001:00079910       ?Save@rvMonsterFatty@@QBEXPAVidSaveGame@@@Z 2007a910 f   Monster_Fatty.obj
 0001:00079960       ?Restore@rvMonsterFatty@@QAEXPAVidRestoreGame@@@Z 2007a960 f   Monster_Fatty.obj
 0001:000799c0       ?UpdateAnimationControllers@rvMonsterFatty@@UAE_NXZ 2007a9c0 f   Monster_Fatty.obj
 0001:00079d40       ?AddDamageEffect@rvMonsterFatty@@UAEXABUtrace_t@@ABVidVec3@@PBDPAVidEntity@@@Z 2007ad40 f   Monster_Fatty.obj
 0001:00079d50       ?CheckActions@rvMonsterFatty@@MAE_NXZ 2007ad50 f   Monster_Fatty.obj
 0001:00079d80       ?PlayAttackAnim@rvMonsterFatty@@IAEXABVidVec3@@H@Z 2007ad80 f   Monster_Fatty.obj
 0001:0007a040       ?ResetAllChains@rvMonsterFatty@@IAEXXZ 2007b040 f   Monster_Fatty.obj
 0001:0007a070       ?ChainIn@rvMonsterFatty@@IAEXH@Z 2007b070 f   Monster_Fatty.obj
 0001:0007a0c0       ?ChainOut@rvMonsterFatty@@IAEXH@Z 2007b0c0 f   Monster_Fatty.obj
 0001:0007a210       ?CheckAction_WhipAttack@rvMonsterFatty@@AAE_NPAVrvAIAction@@H@Z 2007b210 f   Monster_Fatty.obj
 0001:0007a240       ?Frame_LeftChainOut@rvMonsterFatty@@AAE?AW4stateResult_t@@ABUstateParms_t@@@Z 2007b240 f   Monster_Fatty.obj
 0001:0007a250       ?Frame_LeftChainIn@rvMonsterFatty@@AAE?AW4stateResult_t@@ABUstateParms_t@@@Z 2007b250 f   Monster_Fatty.obj
 0001:0007a260       ?Frame_RightChainOut@rvMonsterFatty@@AAE?AW4stateResult_t@@ABUstateParms_t@@@Z 2007b260 f   Monster_Fatty.obj
 0001:0007a270       ?Frame_RightChainIn@rvMonsterFatty@@AAE?AW4stateResult_t@@ABUstateParms_t@@@Z 2007b270 f   Monster_Fatty.obj
 0001:0007a280       ?State_Torso_WhipAttack@rvMonsterFatty@@AAE?AW4stateResult_t@@ABUstateParms_t@@@Z 2007b280 f   Monster_Fatty.obj
 0001:0007a320       ?Register_rvMonsterFatty@@YAXXZ 2007b320 f   Monster_Fatty.obj
 0001:0007a330       ??_ErvMonsterFatty@@UAEPAXI@Z 2007b330 f i Monster_Fatty.obj
 0001:0007a330       ??_GrvMonsterFatty@@UAEPAXI@Z 2007b330 f i Monster_Fatty.obj
 0001:0007a370       ?RegisterClassA@rvMonsterGladiator@@SAXXZ 2007b370 f   Monster_Gladiator.obj
 0001:0007a430       ?CreateInstance@rvMonsterGladiator@@SAPAVidClass@@XZ 2007b430 f   Monster_Gladiator.obj
 0001:0007a4d0       ?GetClassType@rvMonsterGladiator@@SAAAVidTypeInfo@@XZ 2007b4d0 f   Monster_Gladiator.obj
 0001:0007a4e0       ?GetType@rvMonsterGladiator@@UBEPAVidTypeInfo@@XZ 2007b4e0 f   Monster_Gladiator.obj
 0001:0007a4f0       ??0rvMonsterGladiator@@QAE@XZ 2007b4f0 f   Monster_Gladiator.obj
 0001:0007a560       ?InitSpawnArgsVariables@rvMonsterGladiator@@QAEXXZ 2007b560 f   Monster_Gladiator.obj
 0001:0007a620       ?Spawn@rvMonsterGladiator@@QAEXXZ 2007b620 f   Monster_Gladiator.obj
 0001:0007a6f0       ?Save@rvMonsterGladiator@@QBEXPAVidSaveGame@@@Z 2007b6f0 f   Monster_Gladiator.obj
 0001:0007a7c0       ?Restore@rvMonsterGladiator@@QAEXPAVidRestoreGame@@@Z 2007b7c0 f   Monster_Gladiator.obj
 0001:0007a8a0       ?CanTurn@rvMonsterGladiator@@UBE_NXZ 2007b8a0 f   Monster_Gladiator.obj
 0001:0007a8f0       ?GetDebugInfo@rvMonsterGladiator@@UAEXP6AXPBD00PAX@Z1@Z 2007b8f0 f   Monster_Gladiator.obj
 0001:0007a930       ?Damage@rvMonsterGladiator@@UAEXPAVidEntity@@0ABVidVec3@@PBDMH@Z 2007b930 f   Monster_Gladiator.obj
 0001:0007ac00       ?AddDamageEffect@rvMonsterGladiator@@UAEXABUtrace_t@@ABVidVec3@@PBDPAVidEntity@@@Z 2007bc00 f   Monster_Gladiator.obj
 0001:0007ac80       ?UpdateRunStatus@rvMonsterGladiator@@UAE_NXZ 2007bc80 f   Monster_Gladiator.obj
 0001:0007acd0       ?FilterTactical@rvMonsterGladiator@@UAEHH@Z 2007bcd0 f   Monster_Gladiator.obj
 0001:0007ad40       ?GetDamageForLocation@rvMonsterGladiator@@UAEHHH@Z 2007bd40 f   Monster_Gladiator.obj
 0001:0007ada0       ?CheckActions@rvMonsterGladiator@@MAE_NXZ 2007bda0 f   Monster_Gladiator.obj
 0001:0007b1b0       ?ShowShield@rvMonsterGladiator@@IAEXXZ 2007c1b0 f   Monster_Gladiator.obj
 0001:0007b6e0       ?HideShield@rvMonsterGladiator@@IAEXH@Z 2007c6e0 f   Monster_Gladiator.obj
 0001:0007b7e0       ?DestroyRailgun@rvMonsterGladiator@@IAEXXZ 2007c7e0 f   Monster_Gladiator.obj
 0001:0007ba50       ?State_Killed@rvMonsterGladiator@@AAE?AW4stateResult_t@@ABUstateParms_t@@@Z 2007ca50 f   Monster_Gladiator.obj
 0001:0007ba70       ?State_Torso_BlasterAttack@rvMonsterGladiator@@AAE?AW4stateResult_t@@ABUstateParms_t@@@Z 2007ca70 f   Monster_Gladiator.obj
 0001:0007bca0       ?State_Torso_RailgunAttack@rvMonsterGladiator@@AAE?AW4stateResult_t@@ABUstateParms_t@@@Z 2007cca0 f   Monster_Gladiator.obj
 0001:0007bd80       ?State_Torso_ShieldStart@rvMonsterGladiator@@AAE?AW4stateResult_t@@ABUstateParms_t@@@Z 2007cd80 f   Monster_Gladiator.obj
 0001:0007be70       ?State_Torso_ShieldEnd@rvMonsterGladiator@@AAE?AW4stateResult_t@@ABUstateParms_t@@@Z 2007ce70 f   Monster_Gladiator.obj
 0001:0007bfd0       ?State_Torso_TurnRight90@rvMonsterGladiator@@AAE?AW4stateResult_t@@ABUstateParms_t@@@Z 2007cfd0 f   Monster_Gladiator.obj
 0001:0007c0c0       ?State_Torso_TurnLeft90@rvMonsterGladiator@@AAE?AW4stateResult_t@@ABUstateParms_t@@@Z 2007d0c0 f   Monster_Gladiator.obj
 0001:0007c1b0       ?State_Torso_ShieldFire@rvMonsterGladiator@@AAE?AW4stateResult_t@@ABUstateParms_t@@@Z 2007d1b0 f   Monster_Gladiator.obj
 0001:0007c3a0       ?Register_rvMonsterGladiator@@YAXXZ 2007d3a0 f   Monster_Gladiator.obj
 0001:0007c3b0       ??_ErvMonsterGladiator@@UAEPAXI@Z 2007d3b0 f i Monster_Gladiator.obj
 0001:0007c3b0       ??_GrvMonsterGladiator@@UAEPAXI@Z 2007d3b0 f i Monster_Gladiator.obj
 0001:0007c500       ?RegisterClassA@rvMonsterGrunt@@SAXXZ 2007d500 f   Monster_Grunt.obj
 0001:0007c5c0       ?CreateInstance@rvMonsterGrunt@@SAPAVidClass@@XZ 2007d5c0 f   Monster_Grunt.obj
 0001:0007c660       ?GetClassType@rvMonsterGrunt@@SAAAVidTypeInfo@@XZ 2007d660 f   Monster_Grunt.obj
 0001:0007c670       ?GetType@rvMonsterGrunt@@UBEPAVidTypeInfo@@XZ 2007d670 f   Monster_Grunt.obj
 0001:0007c680       ??0rvMonsterGrunt@@QAE@XZ  2007d680 f   Monster_Grunt.obj
 0001:0007c6f0       ?Spawn@rvMonsterGrunt@@QAEXXZ 2007d6f0 f   Monster_Grunt.obj
 0001:0007c7a0       ?Save@rvMonsterGrunt@@QBEXPAVidSaveGame@@@Z 2007d7a0 f   Monster_Grunt.obj
 0001:0007c7f0       ?Restore@rvMonsterGrunt@@QAEXPAVidRestoreGame@@@Z 2007d7f0 f   Monster_Grunt.obj
 0001:0007c840       ?AdjustHealthByDamage@rvMonsterGrunt@@UAEXH@Z 2007d840 f   Monster_Grunt.obj
 0001:0007c890       ?CheckActions@rvMonsterGrunt@@MAE_NXZ 2007d890 f   Monster_Grunt.obj
 0001:0007c9f0       ?OnTacticalChange@rvMonsterGrunt@@MAEXW4aiTactical_t@@@Z 2007d9f0 f   Monster_Grunt.obj
 0001:0007ca20       ?OnDeath@rvMonsterGrunt@@MAEXXZ 2007da20 f   Monster_Grunt.obj
 0001:0007ca30       ?RageStart@rvMonsterGrunt@@AAEXXZ 2007da30 f   Monster_Grunt.obj
 0001:0007caa0       ?RageStop@rvMonsterGrunt@@AAEXXZ 2007daa0 f   Monster_Grunt.obj
 0001:0007cab0       ?State_Torso_Enrage@rvMonsterGrunt@@AAE?AW4stateResult_t@@ABUstateParms_t@@@Z 2007dab0 f   Monster_Grunt.obj
 0001:0007cb20       ?State_Torso_Pain@rvMonsterGrunt@@AAE?AW4stateResult_t@@ABUstateParms_t@@@Z 2007db20 f   Monster_Grunt.obj
 0001:0007cb50       ?State_Torso_LeapAttack@rvMonsterGrunt@@AAE?AW4stateResult_t@@ABUstateParms_t@@@Z 2007db50 f   Monster_Grunt.obj
 0001:0007cc00       ?Register_rvMonsterGrunt@@YAXXZ 2007dc00 f   Monster_Grunt.obj
 0001:0007cc10       ??_ErvMonsterGrunt@@UAEPAXI@Z 2007dc10 f i Monster_Grunt.obj
 0001:0007cc10       ??_GrvMonsterGrunt@@UAEPAXI@Z 2007dc10 f i Monster_Grunt.obj
 0001:0007cd60       ?RegisterClassA@rvMonsterGunner@@SAXXZ 2007dd60 f   Monster_Gunner.obj
 0001:0007ce20       ?CreateInstance@rvMonsterGunner@@SAPAVidClass@@XZ 2007de20 f   Monster_Gunner.obj
 0001:0007cec0       ?GetClassType@rvMonsterGunner@@SAAAVidTypeInfo@@XZ 2007dec0 f   Monster_Gunner.obj
 0001:0007ced0       ?GetType@rvMonsterGunner@@UBEPAVidTypeInfo@@XZ 2007ded0 f   Monster_Gunner.obj
 0001:0007cee0       ??0rvMonsterGunner@@QAE@XZ 2007dee0 f   Monster_Gunner.obj
 0001:0007cfa0       ?InitSpawnArgsVariables@rvMonsterGunner@@QAEXXZ 2007dfa0 f   Monster_Gunner.obj
 0001:0007d090       ?Spawn@rvMonsterGunner@@QAEXXZ 2007e090 f   Monster_Gunner.obj
 0001:0007d110       ?Save@rvMonsterGunner@@QBEXPAVidSaveGame@@@Z 2007e110 f   Monster_Gunner.obj
 0001:0007d190       ?Restore@rvMonsterGunner@@QAEXPAVidRestoreGame@@@Z 2007e190 f   Monster_Gunner.obj
 0001:0007d220       ?GetDebugInfo@rvMonsterGunner@@UAEXP6AXPBD00PAX@Z1@Z 2007e220 f   Monster_Gunner.obj
 0001:0007d2b0       ?Pain@rvMonsterGunner@@UAE_NPAVidEntity@@0HABVidVec3@@H@Z 2007e2b0 f   Monster_Gunner.obj
 0001:0007d300       ?OnStopMoving@rvMonsterGunner@@MAEXW4aiMoveCommand_t@@@Z 2007e300 f   Monster_Gunner.obj
 0001:0007d410       ?UpdateRunStatus@rvMonsterGunner@@MAE_NXZ 2007e410 f   Monster_Gunner.obj
 0001:0007d430       ?FilterTactical@rvMonsterGunner@@MAEHH@Z 2007e430 f   Monster_Gunner.obj
 0001:0007d4c0       ?CheckActions@rvMonsterGunner@@MAE_NXZ 2007e4c0 f   Monster_Gunner.obj
 0001:0007d5a0       ?OnTacticalChange@rvMonsterGunner@@MAEXW4aiTactical_t@@@Z 2007e5a0 f   Monster_Gunner.obj
 0001:0007d5f0       ?CheckAction_SideStepLeft@rvMonsterGunner@@AAE_NPAVrvAIAction@@H@Z 2007e5f0 f   Monster_Gunner.obj
 0001:0007d690       ?CheckAction_SideStepRight@rvMonsterGunner@@AAE_NPAVrvAIAction@@H@Z 2007e690 f   Monster_Gunner.obj
 0001:0007d730       ?State_Torso_NailgunAttack@rvMonsterGunner@@AAE?AW4stateResult_t@@ABUstateParms_t@@@Z 2007e730 f   Monster_Gunner.obj
 0001:0007d9b0       ?State_Torso_MovingRangedAttack@rvMonsterGunner@@AAE?AW4stateResult_t@@ABUstateParms_t@@@Z 2007e9b0 f   Monster_Gunner.obj
 0001:0007db60       ?Register_rvMonsterGunner@@YAXXZ 2007eb60 f   Monster_Gunner.obj
 0001:0007db70       ??1rvMonsterGunner@@UAE@XZ 2007eb70 f i Monster_Gunner.obj
 0001:0007dd60       ??_ErvMonsterGunner@@UAEPAXI@Z 2007ed60 f i Monster_Gunner.obj
 0001:0007dd60       ??_GrvMonsterGunner@@UAEPAXI@Z 2007ed60 f i Monster_Gunner.obj
 0001:0007dda0       ?RegisterClassA@rvMonsterHarvester@@SAXXZ 2007eda0 f   Monster_Harvester.obj
 0001:0007de60       ?CreateInstance@rvMonsterHarvester@@SAPAVidClass@@XZ 2007ee60 f   Monster_Harvester.obj
 0001:0007df00       ?GetClassType@rvMonsterHarvester@@SAAAVidTypeInfo@@XZ 2007ef00 f   Monster_Harvester.obj
 0001:0007df10       ?GetType@rvMonsterHarvester@@UBEPAVidTypeInfo@@XZ 2007ef10 f   Monster_Harvester.obj
 0001:0007df20       ??0rvMonsterHarvester@@QAE@XZ 2007ef20 f   Monster_Harvester.obj
 0001:0007e020       ?InitSpawnArgsVariables@rvMonsterHarvester@@QAEXXZ 2007f020 f   Monster_Harvester.obj
 0001:0007e230       ?Spawn@rvMonsterHarvester@@QAEXXZ 2007f230 f   Monster_Harvester.obj
 0001:0007e310       ?Save@rvMonsterHarvester@@QBEXPAVidSaveGame@@@Z 2007f310 f   Monster_Harvester.obj
 0001:0007e3e0       ?Restore@rvMonsterHarvester@@QAEXPAVidRestoreGame@@@Z 2007f3e0 f   Monster_Harvester.obj
 0001:0007e4a0       ?Attack@rvMonsterHarvester@@UAE_NPBDW4jointHandle_t@@PAVidEntity@@ABVidVec3@@@Z 2007f4a0 f   Monster_Harvester.obj
 0001:0007e4e0       ?UpdateAnimationControllers@rvMonsterHarvester@@UAE_NXZ 2007f4e0 f   Monster_Harvester.obj
 0001:0007e4f0       ?CanTurn@rvMonsterHarvester@@UBE_NXZ 2007f4f0 f   Monster_Harvester.obj
 0001:0007e540       ?GetDamageForLocation@rvMonsterHarvester@@UAEHHH@Z 2007f540 f   Monster_Harvester.obj
 0001:0007e710       ?Damage@rvMonsterHarvester@@UAEXPAVidEntity@@0ABVidVec3@@PBDMH@Z 2007f710 f   Monster_Harvester.obj
 0001:0007e740       ?SkipImpulse@rvMonsterHarvester@@UAE_NPAVidEntity@@H@Z 2007f740 f   Monster_Harvester.obj
 0001:0007e750       ?DestroyPart@rvMonsterHarvester@@IAEXH@Z 2007f750 f   Monster_Harvester.obj
 0001:0007e9e0       ?CheckActions@rvMonsterHarvester@@MAE_NXZ 2007f9e0 f   Monster_Harvester.obj
 0001:0007ec00       ?FilterTactical@rvMonsterHarvester@@MAEHH@Z 2007fc00 f   Monster_Harvester.obj
 0001:0007ec10       ?GetMeleeAttackAnim@rvMonsterHarvester@@IAEPBDABVidVec3@@@Z 2007fc10 f   Monster_Harvester.obj
 0001:0007ee80       ?PlayMeleeAttackAnim@rvMonsterHarvester@@IAE_NABVidVec3@@H@Z 2007fe80 f   Monster_Harvester.obj
 0001:0007eeb0       ?GetRangedAttackAnim@rvMonsterHarvester@@IAEPBDABVidVec3@@@Z 2007feb0 f   Monster_Harvester.obj
 0001:0007f0d0       ?PlayRangedAttackAnim@rvMonsterHarvester@@IAE_NABVidVec3@@H@Z 200800d0 f   Monster_Harvester.obj
 0001:0007f120       ?DropLeg@rvMonsterHarvester@@AAEXH@Z 20080120 f   Monster_Harvester.obj
 0001:0007f750       ?CheckAction_WhipAttack@rvMonsterHarvester@@AAE_NPAVrvAIAction@@H@Z 20080750 f   Monster_Harvester.obj
 0001:0007f780       ?CheckAction_MeleeAttack@rvMonsterHarvester@@EAE_NPAVrvAIAction@@H@Z 20080780 f   Monster_Harvester.obj
 0001:0007f830       ?CheckAction_RangedAttack@rvMonsterHarvester@@EAE_NPAVrvAIAction@@H@Z 20080830 f   Monster_Harvester.obj
 0001:0007f8a0       ?CheckAction_SprayAttack@rvMonsterHarvester@@AAE_NPAVrvAIAction@@H@Z 200808a0 f   Monster_Harvester.obj
 0001:0007fa90       ?CheckAction_RocketAttack@rvMonsterHarvester@@AAE_NPAVrvAIAction@@H@Z 20080a90 f   Monster_Harvester.obj
 0001:0007fbb0       ?CheckAction_GrenadeAttack@rvMonsterHarvester@@AAE_NPAVrvAIAction@@H@Z 20080bb0 f   Monster_Harvester.obj
 0001:0007fd20       ?State_Killed@rvMonsterHarvester@@AAE?AW4stateResult_t@@ABUstateParms_t@@@Z 20080d20 f   Monster_Harvester.obj
 0001:0007fda0       ?State_Dead@rvMonsterHarvester@@AAE?AW4stateResult_t@@ABUstateParms_t@@@Z 20080da0 f   Monster_Harvester.obj
 0001:0007fe10       ?State_Torso_WhipAttack@rvMonsterHarvester@@AAE?AW4stateResult_t@@ABUstateParms_t@@@Z 20080e10 f   Monster_Harvester.obj
 0001:00080030       ?State_Torso_ClawAttack@rvMonsterHarvester@@AAE?AW4stateResult_t@@ABUstateParms_t@@@Z 20081030 f   Monster_Harvester.obj
 0001:000800d0       ?State_Torso_RangedAttack@rvMonsterHarvester@@AAE?AW4stateResult_t@@ABUstateParms_t@@@Z 200810d0 f   Monster_Harvester.obj
 0001:00080270       ?State_Torso_TurnRight90@rvMonsterHarvester@@AAE?AW4stateResult_t@@ABUstateParms_t@@@Z 20081270 f   Monster_Harvester.obj
 0001:000805a0       ?State_Torso_TurnLeft90@rvMonsterHarvester@@AAE?AW4stateResult_t@@ABUstateParms_t@@@Z 200815a0 f   Monster_Harvester.obj
 0001:000808d0       ?State_Torso_SprayAttack@rvMonsterHarvester@@AAE?AW4stateResult_t@@ABUstateParms_t@@@Z 200818d0 f   Monster_Harvester.obj
 0001:000809e0       ?State_Torso_RocketAttack@rvMonsterHarvester@@AAE?AW4stateResult_t@@ABUstateParms_t@@@Z 200819e0 f   Monster_Harvester.obj
 0001:00080c40       ?Register_rvMonsterHarvester@@YAXXZ 20081c40 f   Monster_Harvester.obj
 0001:00080c50       ??1rvMonsterHarvester@@UAE@XZ 20081c50 f i Monster_Harvester.obj
 0001:00080e70       ??_ErvMonsterHarvester@@UAEPAXI@Z 20081e70 f i Monster_Harvester.obj
 0001:00080e70       ??_GrvMonsterHarvester@@UAEPAXI@Z 20081e70 f i Monster_Harvester.obj
 0001:00080eb0       ?RegisterClassA@rvMonsterHarvesterDispersal@@SAXXZ 20081eb0 f   Monster_HarvesterDispersal.obj
 0001:00080f70       ?CreateInstance@rvMonsterHarvesterDispersal@@SAPAVidClass@@XZ 20081f70 f   Monster_HarvesterDispersal.obj
 0001:00081010       ?GetClassType@rvMonsterHarvesterDispersal@@SAAAVidTypeInfo@@XZ 20082010 f   Monster_HarvesterDispersal.obj
 0001:00081020       ?GetType@rvMonsterHarvesterDispersal@@UBEPAVidTypeInfo@@XZ 20082020 f   Monster_HarvesterDispersal.obj
 0001:00081030       ??0rvMonsterHarvesterDispersal@@QAE@XZ 20082030 f   Monster_HarvesterDispersal.obj
 0001:00081080       ?InitSpawnArgsVariables@rvMonsterHarvesterDispersal@@QAEXXZ 20082080 f   Monster_HarvesterDispersal.obj
 0001:00081100       ?Spawn@rvMonsterHarvesterDispersal@@QAEXXZ 20082100 f   Monster_HarvesterDispersal.obj
 0001:00081140       ?Save@rvMonsterHarvesterDispersal@@QBEXPAVidSaveGame@@@Z 20082140 f   Monster_HarvesterDispersal.obj
 0001:00081190       ?Restore@rvMonsterHarvesterDispersal@@QAEXPAVidRestoreGame@@@Z 20082190 f   Monster_HarvesterDispersal.obj
 0001:000811e0       ?CanTurn@rvMonsterHarvesterDispersal@@UBE_NXZ 200821e0 f   Monster_HarvesterDispersal.obj
 0001:000811f0       ?SkipImpulse@rvMonsterHarvesterDispersal@@UAE_NPAVidEntity@@H@Z 200821f0 f   Monster_HarvesterDispersal.obj
 0001:00081200       ?CheckActions@rvMonsterHarvesterDispersal@@MAE_NXZ 20082200 f   Monster_HarvesterDispersal.obj
 0001:00081240       ?FilterTactical@rvMonsterHarvesterDispersal@@MAEHH@Z 20082240 f   Monster_HarvesterDispersal.obj
 0001:00081250       ?CheckAction_SprayScream@rvMonsterHarvesterDispersal@@EAE_NPAVrvAIAction@@H@Z 20082250 f   Monster_HarvesterDispersal.obj
 0001:000812c0       ?CheckAction_RangedAttack@rvMonsterHarvesterDispersal@@EAE_NPAVrvAIAction@@H@Z 200822c0 f   Monster_HarvesterDispersal.obj
 0001:00081360       ?State_Torso_RangedAttack@rvMonsterHarvesterDispersal@@AAE?AW4stateResult_t@@ABUstateParms_t@@@Z 20082360 f   Monster_HarvesterDispersal.obj
 0001:000814f0       ?State_Torso_TurnRight90@rvMonsterHarvesterDispersal@@AAE?AW4stateResult_t@@ABUstateParms_t@@@Z 200824f0 f   Monster_HarvesterDispersal.obj
 0001:000815c0       ?State_Torso_TurnLeft90@rvMonsterHarvesterDispersal@@AAE?AW4stateResult_t@@ABUstateParms_t@@@Z 200825c0 f   Monster_HarvesterDispersal.obj
 0001:00081690       ?State_SprayScream@rvMonsterHarvesterDispersal@@AAE?AW4stateResult_t@@ABUstateParms_t@@@Z 20082690 f   Monster_HarvesterDispersal.obj
 0001:000818c0       ?Register_rvMonsterHarvesterDispersal@@YAXXZ 200828c0 f   Monster_HarvesterDispersal.obj
 0001:000818c5       ??_9rvMonsterHarvesterDispersal@@$BCJI@AE 200828c5 f i Monster_HarvesterDispersal.obj
 0001:000818c5       ??_9rvMonsterTeleportDropper@@$BCJI@AE 200828c5 f i Monster_TeleportDropper.obj
 0001:000818d0       ??_ErvMonsterHarvesterDispersal@@UAEPAXI@Z 200828d0 f i Monster_HarvesterDispersal.obj
 0001:000818d0       ??_GrvMonsterHarvesterDispersal@@UAEPAXI@Z 200828d0 f i Monster_HarvesterDispersal.obj
 0001:000819b0       ?RegisterClassA@rvMonsterHeavyHoverTank@@SAXXZ 200829b0 f   Monster_HeavyHoverTank.obj
 0001:00081a70       ?CreateInstance@rvMonsterHeavyHoverTank@@SAPAVidClass@@XZ 20082a70 f   Monster_HeavyHoverTank.obj
 0001:00081b10       ?GetClassType@rvMonsterHeavyHoverTank@@SAAAVidTypeInfo@@XZ 20082b10 f   Monster_HeavyHoverTank.obj
 0001:00081b20       ?GetType@rvMonsterHeavyHoverTank@@UBEPAVidTypeInfo@@XZ 20082b20 f   Monster_HeavyHoverTank.obj
 0001:00081b30       ??0rvMonsterHeavyHoverTank@@QAE@XZ 20082b30 f   Monster_HeavyHoverTank.obj
 0001:00081c00       ?InitSpawnArgsVariables@rvMonsterHeavyHoverTank@@QAEXXZ 20082c00 f   Monster_HeavyHoverTank.obj
 0001:00081c80       ?Spawn@rvMonsterHeavyHoverTank@@QAEXXZ 20082c80 f   Monster_HeavyHoverTank.obj
 0001:00081d40       ?Save@rvMonsterHeavyHoverTank@@QBEXPAVidSaveGame@@@Z 20082d40 f   Monster_HeavyHoverTank.obj
 0001:00081dd0       ?Restore@rvMonsterHeavyHoverTank@@QAEXPAVidRestoreGame@@@Z 20082dd0 f   Monster_HeavyHoverTank.obj
 0001:00081e60       ?Think@rvMonsterHeavyHoverTank@@UAEXXZ 20082e60 f   Monster_HeavyHoverTank.obj
 0001:00082190       ?Damage@rvMonsterHeavyHoverTank@@UAEXPAVidEntity@@0ABVidVec3@@PBDMH@Z 20083190 f   Monster_HeavyHoverTank.obj
 0001:000822d0       ?OnDeath@rvMonsterHeavyHoverTank@@UAEXXZ 200832d0 f   Monster_HeavyHoverTank.obj
 0001:00082360       ?CheckActions@rvMonsterHeavyHoverTank@@MAE_NXZ 20083360 f   Monster_HeavyHoverTank.obj
 0001:000823f0       ?OnEnemyChange@rvMonsterHeavyHoverTank@@MAEXPAVidEntity@@@Z 200833f0 f   Monster_HeavyHoverTank.obj
 0001:00082450       ?CheckAction_Strafe@rvMonsterHeavyHoverTank@@AAE_NPAVrvAIAction@@H@Z 20083450 f   Monster_HeavyHoverTank.obj
 0001:000824b0       ?State_Torso_BlasterAttack@rvMonsterHeavyHoverTank@@AAE?AW4stateResult_t@@ABUstateParms_t@@@Z 200834b0 f   Monster_HeavyHoverTank.obj
 0001:00082640       ?State_Torso_RocketAttack@rvMonsterHeavyHoverTank@@AAE?AW4stateResult_t@@ABUstateParms_t@@@Z 20083640 f   Monster_HeavyHoverTank.obj
 0001:000826f0       ?State_Torso_ChangeWeaponState@rvMonsterHeavyHoverTank@@AAE?AW4stateResult_t@@ABUstateParms_t@@@Z 200836f0 f   Monster_HeavyHoverTank.obj
 0001:000827b0       ?State_Torso_EvadeLeft@rvMonsterHeavyHoverTank@@AAE?AW4stateResult_t@@ABUstateParms_t@@@Z 200837b0 f   Monster_HeavyHoverTank.obj
 0001:000828a0       ?State_Torso_EvadeRight@rvMonsterHeavyHoverTank@@AAE?AW4stateResult_t@@ABUstateParms_t@@@Z 200838a0 f   Monster_HeavyHoverTank.obj
 0001:00082990       ?State_Torso_Strafe@rvMonsterHeavyHoverTank@@AAE?AW4stateResult_t@@ABUstateParms_t@@@Z 20083990 f   Monster_HeavyHoverTank.obj
 0001:000829f0       ?Register_rvMonsterHeavyHoverTank@@YAXXZ 200839f0 f   Monster_HeavyHoverTank.obj
 0001:00082a00       ??B?$rvClientEntityPtr@VrvClientAFAttachment@@@@QBEPAVrvClientAFAttachment@@XZ 20083a00 f i Player.obj
 0001:00082a00       ??B?$rvClientEntityPtr@VrvClientEffect@@@@QBEPAVrvClientEffect@@XZ 20083a00 f i Monster_HeavyHoverTank.obj
 0001:00082a00       ??C?$rvClientEntityPtr@VrvClientAFAttachment@@@@QBEPAVrvClientAFAttachment@@XZ 20083a00 f i Player.obj
 0001:00082a00       ??C?$rvClientEntityPtr@VrvClientEffect@@@@QBEPAVrvClientEffect@@XZ 20083a00 f i Monster_HeavyHoverTank.obj
 0001:00082a30       ??_ErvMonsterHeavyHoverTank@@UAEPAXI@Z 20083a30 f i Monster_HeavyHoverTank.obj
 0001:00082a30       ??_GrvMonsterHeavyHoverTank@@UAEPAXI@Z 20083a30 f i Monster_HeavyHoverTank.obj
 0001:00082be0       ?RegisterClassA@rvMonsterIronMaiden@@SAXXZ 20083be0 f   Monster_IronMaiden.obj
 0001:00082ca0       ?CreateInstance@rvMonsterIronMaiden@@SAPAVidClass@@XZ 20083ca0 f   Monster_IronMaiden.obj
 0001:00082d40       ?GetClassType@rvMonsterIronMaiden@@SAAAVidTypeInfo@@XZ 20083d40 f   Monster_IronMaiden.obj
 0001:00082d50       ?GetType@rvMonsterIronMaiden@@UBEPAVidTypeInfo@@XZ 20083d50 f   Monster_IronMaiden.obj
 0001:00082d60       ??0rvMonsterIronMaiden@@QAE@XZ 20083d60 f   Monster_IronMaiden.obj
 0001:00082dd0       ?InitSpawnArgsVariables@rvMonsterIronMaiden@@QAEXXZ 20083dd0 f   Monster_IronMaiden.obj
 0001:00082e20       ?Spawn@rvMonsterIronMaiden@@QAEXXZ 20083e20 f   Monster_IronMaiden.obj
 0001:00082eb0       ?Save@rvMonsterIronMaiden@@QBEXPAVidSaveGame@@@Z 20083eb0 f   Monster_IronMaiden.obj
 0001:00082ef0       ?Restore@rvMonsterIronMaiden@@QAEXPAVidRestoreGame@@@Z 20083ef0 f   Monster_IronMaiden.obj
 0001:00082f30       ?GetDebugInfo@rvMonsterIronMaiden@@UAEXP6AXPBD00PAX@Z1@Z 20083f30 f   Monster_IronMaiden.obj
 0001:00082f70       ?FilterTactical@rvMonsterIronMaiden@@UAEHH@Z 20083f70 f   Monster_IronMaiden.obj
 0001:00082fa0       ?CheckActions@rvMonsterIronMaiden@@MAE_NXZ 20083fa0 f   Monster_IronMaiden.obj
 0001:00082ff0       ?PhaseOut@rvMonsterIronMaiden@@IAEXXZ 20083ff0 f   Monster_IronMaiden.obj
 0001:000830d0       ?PhaseIn@rvMonsterIronMaiden@@IAEXXZ 200840d0 f   Monster_IronMaiden.obj
 0001:000831d0       ?OnDeath@rvMonsterIronMaiden@@MAEXXZ 200841d0 f   Monster_IronMaiden.obj
 0001:00083200       ?CheckAction_BansheeAttack@rvMonsterIronMaiden@@AAE_NPAVrvAIAction@@H@Z 20084200 f   Monster_IronMaiden.obj
 0001:00083210       ?PerformAction_PhaseOut@rvMonsterIronMaiden@@AAE_NXZ 20084210 f   Monster_IronMaiden.obj
 0001:00083270       ?PerformAction_PhaseIn@rvMonsterIronMaiden@@AAE_NXZ 20084270 f   Monster_IronMaiden.obj
 0001:000832c0       ?State_Phased@rvMonsterIronMaiden@@AAE?AW4stateResult_t@@ABUstateParms_t@@@Z 200842c0 f   Monster_IronMaiden.obj
 0001:00083360       ?State_Torso_PhaseIn@rvMonsterIronMaiden@@AAE?AW4stateResult_t@@ABUstateParms_t@@@Z 20084360 f   Monster_IronMaiden.obj
 0001:00083400       ?State_Torso_PhaseOut@rvMonsterIronMaiden@@AAE?AW4stateResult_t@@ABUstateParms_t@@@Z 20084400 f   Monster_IronMaiden.obj
 0001:00083470       ?State_Torso_BansheeAttack@rvMonsterIronMaiden@@AAE?AW4stateResult_t@@ABUstateParms_t@@@Z 20084470 f   Monster_IronMaiden.obj
 0001:00083510       ?State_Torso_BansheeAttackDone@rvMonsterIronMaiden@@AAE?AW4stateResult_t@@ABUstateParms_t@@@Z 20084510 f   Monster_IronMaiden.obj
 0001:00083530       ?Frame_PhaseIn@rvMonsterIronMaiden@@AAE?AW4stateResult_t@@ABUstateParms_t@@@Z 20084530 f   Monster_IronMaiden.obj
 0001:00083540       ?Frame_PhaseOut@rvMonsterIronMaiden@@AAE?AW4stateResult_t@@ABUstateParms_t@@@Z 20084540 f   Monster_IronMaiden.obj
 0001:00083550       ?Frame_BansheeAttack@rvMonsterIronMaiden@@AAE?AW4stateResult_t@@ABUstateParms_t@@@Z 20084550 f   Monster_IronMaiden.obj
 0001:00083760       ?Frame_EndBansheeAttack@rvMonsterIronMaiden@@AAE?AW4stateResult_t@@ABUstateParms_t@@@Z 20084760 f   Monster_IronMaiden.obj
 0001:00083780       ?Register_rvMonsterIronMaiden@@YAXXZ 20084780 f   Monster_IronMaiden.obj
 0001:00083790       ??_ErvMonsterIronMaiden@@UAEPAXI@Z 20084790 f i Monster_IronMaiden.obj
 0001:00083790       ??_ErvMonsterSlimyTransfer@@UAEPAXI@Z 20084790 f i Monster_SlimyTransfer.obj
 0001:00083790       ??_GrvMonsterIronMaiden@@UAEPAXI@Z 20084790 f i Monster_IronMaiden.obj
 0001:00083790       ??_GrvMonsterSlimyTransfer@@UAEPAXI@Z 20084790 f i Monster_SlimyTransfer.obj
 0001:00083870       ?RegisterClassA@rvMonsterLightTank@@SAXXZ 20084870 f   Monster_LightTank.obj
 0001:00083930       ?CreateInstance@rvMonsterLightTank@@SAPAVidClass@@XZ 20084930 f   Monster_LightTank.obj
 0001:000839d0       ?GetClassType@rvMonsterLightTank@@SAAAVidTypeInfo@@XZ 200849d0 f   Monster_LightTank.obj
 0001:000839e0       ?GetType@rvMonsterLightTank@@UBEPAVidTypeInfo@@XZ 200849e0 f   Monster_LightTank.obj
 0001:000839f0       ??0rvMonsterLightTank@@QAE@XZ 200849f0 f   Monster_LightTank.obj
 0001:00083a80       ?Spawn@rvMonsterLightTank@@QAEXXZ 20084a80 f   Monster_LightTank.obj
 0001:00083b30       ?Save@rvMonsterLightTank@@QBEXPAVidSaveGame@@@Z 20084b30 f   Monster_LightTank.obj
 0001:00083bc0       ?Restore@rvMonsterLightTank@@QAEXPAVidRestoreGame@@@Z 20084bc0 f   Monster_LightTank.obj
 0001:00083c50       ?Pain@rvMonsterLightTank@@UAE_NPAVidEntity@@0HABVidVec3@@H@Z 20084c50 f   Monster_LightTank.obj
 0001:00083ca0       ?GetDamageForLocation@rvMonsterLightTank@@UAEHHH@Z 20084ca0 f   Monster_LightTank.obj
 0001:00083d10       ?DamageFeedback@rvMonsterLightTank@@UAEXPAVidEntity@@0AAH@Z 20084d10 f   Monster_LightTank.obj
 0001:00083db0       ?OnStopMoving@rvMonsterLightTank@@MAEXW4aiMoveCommand_t@@@Z 20084db0 f   Monster_LightTank.obj
 0001:00083e50       ?CheckActions@rvMonsterLightTank@@MAE_NXZ 20084e50 f   Monster_LightTank.obj
 0001:00083fd0       ?OnTacticalChange@rvMonsterLightTank@@MAEXW4aiTactical_t@@@Z 20084fd0 f   Monster_LightTank.obj
 0001:00084020       ?UpdateRunStatus@rvMonsterLightTank@@MAE_NXZ 20085020 f   Monster_LightTank.obj
 0001:00084060       ?FilterTactical@rvMonsterLightTank@@MAEHH@Z 20085060 f   Monster_LightTank.obj
 0001:000840c0       ?DestroyFlamethrower@rvMonsterLightTank@@IAEXXZ 200850c0 f   Monster_LightTank.obj
 0001:00084320       ?CheckAction_PowerUp@rvMonsterLightTank@@AAE_NPAVrvAIAction@@H@Z 20085320 f   Monster_LightTank.obj
 0001:00084360       ?CheckAction_EvadeLeft@rvMonsterLightTank@@EAE_NPAVrvAIAction@@H@Z 20085360 f   Monster_LightTank.obj
 0001:00084390       ?CheckAction_EvadeRight@rvMonsterLightTank@@EAE_NPAVrvAIAction@@H@Z 20085390 f   Monster_LightTank.obj
 0001:000843c0       ?CheckAction_ChargeAttack@rvMonsterLightTank@@AAE_NPAVrvAIAction@@H@Z 200853c0 f   Monster_LightTank.obj
 0001:00084450       ?State_Killed@rvMonsterLightTank@@AAE?AW4stateResult_t@@ABUstateParms_t@@@Z 20085450 f   Monster_LightTank.obj
 0001:00084480       ?State_Torso_FlameThrower@rvMonsterLightTank@@AAE?AW4stateResult_t@@ABUstateParms_t@@@Z 20085480 f   Monster_LightTank.obj
 0001:00084510       ?State_Torso_FlameThrowerThink@rvMonsterLightTank@@AAE?AW4stateResult_t@@ABUstateParms_t@@@Z 20085510 f   Monster_LightTank.obj
 0001:00084550       ?State_Torso_Pain@rvMonsterLightTank@@AAE?AW4stateResult_t@@ABUstateParms_t@@@Z 20085550 f   Monster_LightTank.obj
 0001:00084580       ?State_Torso_RangedAttack@rvMonsterLightTank@@AAE?AW4stateResult_t@@ABUstateParms_t@@@Z 20085580 f   Monster_LightTank.obj
 0001:00084600       ?State_Torso_PowerUp@rvMonsterLightTank@@AAE?AW4stateResult_t@@ABUstateParms_t@@@Z 20085600 f   Monster_LightTank.obj
 0001:00084720       ?Register_rvMonsterLightTank@@YAXXZ 20085720 f   Monster_LightTank.obj
 0001:00084730       ??1rvMonsterLightTank@@UAE@XZ 20085730 f i Monster_LightTank.obj
 0001:00084910       ??_ErvMonsterLightTank@@UAEPAXI@Z 20085910 f i Monster_LightTank.obj
 0001:00084910       ??_GrvMonsterLightTank@@UAEPAXI@Z 20085910 f i Monster_LightTank.obj
 0001:00084950       ?RegisterClassA@rvMonsterNetworkGuardian@@SAXXZ 20085950 f   Monster_NetworkGuardian.obj
 0001:00084a10       ?CreateInstance@rvMonsterNetworkGuardian@@SAPAVidClass@@XZ 20085a10 f   Monster_NetworkGuardian.obj
 0001:00084ab0       ?GetClassType@rvMonsterNetworkGuardian@@SAAAVidTypeInfo@@XZ 20085ab0 f   Monster_NetworkGuardian.obj
 0001:00084ac0       ?GetType@rvMonsterNetworkGuardian@@UBEPAVidTypeInfo@@XZ 20085ac0 f   Monster_NetworkGuardian.obj
 0001:00084ad0       ??0rvMonsterNetworkGuardian@@QAE@XZ 20085ad0 f   Monster_NetworkGuardian.obj
 0001:00084bb0       ?Spawn@rvMonsterNetworkGuardian@@QAEXXZ 20085bb0 f   Monster_NetworkGuardian.obj
 0001:00084ca0       ?Save@rvMonsterNetworkGuardian@@QBEXPAVidSaveGame@@@Z 20085ca0 f   Monster_NetworkGuardian.obj
 0001:00084d60       ?Restore@rvMonsterNetworkGuardian@@QAEXPAVidRestoreGame@@@Z 20085d60 f   Monster_NetworkGuardian.obj
 0001:00084e20       ?CheckActions@rvMonsterNetworkGuardian@@MAE_NXZ 20085e20 f   Monster_NetworkGuardian.obj
 0001:000851f0       ?State_Wait_Flying@rvMonsterNetworkGuardian@@AAE?AW4stateResult_t@@ABUstateParms_t@@@Z 200861f0 f   Monster_NetworkGuardian.obj
 0001:00085210       ?State_Torso_ShotgunRocket@rvMonsterNetworkGuardian@@AAE?AW4stateResult_t@@ABUstateParms_t@@@Z 20086210 f   Monster_NetworkGuardian.obj
 0001:00085280       ?State_Torso_BlasterSweepGround@rvMonsterNetworkGuardian@@AAE?AW4stateResult_t@@ABUstateParms_t@@@Z 20086280 f   Monster_NetworkGuardian.obj
 0001:000852f0       ?State_Torso_BlasterAttack@rvMonsterNetworkGuardian@@AAE?AW4stateResult_t@@ABUstateParms_t@@@Z 200862f0 f   Monster_NetworkGuardian.obj
 0001:00085470       ?State_Torso_MIRVAttack@rvMonsterNetworkGuardian@@AAE?AW4stateResult_t@@ABUstateParms_t@@@Z 20086470 f   Monster_NetworkGuardian.obj
 0001:000854e0       ?State_Torso_EvadeLeft@rvMonsterNetworkGuardian@@AAE?AW4stateResult_t@@ABUstateParms_t@@@Z 200864e0 f   Monster_NetworkGuardian.obj
 0001:000855d0       ?State_Torso_EvadeRight@rvMonsterNetworkGuardian@@AAE?AW4stateResult_t@@ABUstateParms_t@@@Z 200865d0 f   Monster_NetworkGuardian.obj
 0001:000856c0       ?State_Torso_FlyingRanged@rvMonsterNetworkGuardian@@AAE?AW4stateResult_t@@ABUstateParms_t@@@Z 200866c0 f   Monster_NetworkGuardian.obj
 0001:00085730       ?State_Torso_FlyingSweep@rvMonsterNetworkGuardian@@AAE?AW4stateResult_t@@ABUstateParms_t@@@Z 20086730 f   Monster_NetworkGuardian.obj
 0001:000857a0       ?State_Torso_LiftOff@rvMonsterNetworkGuardian@@AAE?AW4stateResult_t@@ABUstateParms_t@@@Z 200867a0 f   Monster_NetworkGuardian.obj
 0001:00085890       ?State_Torso_Fall@rvMonsterNetworkGuardian@@AAE?AW4stateResult_t@@ABUstateParms_t@@@Z 20086890 f   Monster_NetworkGuardian.obj
 0001:000859a0       ?State_Torso_TurnRight90@rvMonsterNetworkGuardian@@AAE?AW4stateResult_t@@ABUstateParms_t@@@Z 200869a0 f   Monster_NetworkGuardian.obj
 0001:00085a50       ?State_Torso_TurnLeft90@rvMonsterNetworkGuardian@@AAE?AW4stateResult_t@@ABUstateParms_t@@@Z 20086a50 f   Monster_NetworkGuardian.obj
 0001:00085b00       ?Event_ForceWalkMode@rvMonsterNetworkGuardian@@AAEXXZ 20086b00 f   Monster_NetworkGuardian.obj
 0001:00085b50       ?Event_ForceLanding@rvMonsterNetworkGuardian@@AAEXXZ 20086b50 f   Monster_NetworkGuardian.obj
 0001:00085bc0       ?Event_ForceTakeoff@rvMonsterNetworkGuardian@@AAEXXZ 20086bc0 f   Monster_NetworkGuardian.obj
 0001:00085c10       ?Event_AllowAutopilot@rvMonsterNetworkGuardian@@AAEXM@Z 20086c10 f   Monster_NetworkGuardian.obj
 0001:00085c40       ?Event_SetBattleStage@rvMonsterNetworkGuardian@@AAEXM@Z 20086c40 f   Monster_NetworkGuardian.obj
 0001:00085c60       ?Register_rvMonsterNetworkGuardian@@YAXXZ 20086c60 f   Monster_NetworkGuardian.obj
 0001:00085c70       ??1rvMonsterNetworkGuardian@@UAE@XZ 20086c70 f i Monster_NetworkGuardian.obj
 0001:00085f80       ??_ErvMonsterNetworkGuardian@@UAEPAXI@Z 20086f80 f i Monster_NetworkGuardian.obj
 0001:00085f80       ??_GrvMonsterNetworkGuardian@@UAEPAXI@Z 20086f80 f i Monster_NetworkGuardian.obj
 0001:00085fc0       ?Save@repairBotArm_t@@QBEXPAVidSaveGame@@@Z 20086fc0 f   Monster_RepairBot.obj
 0001:00086010       ?Restore@repairBotArm_t@@QAEXPAVidRestoreGame@@@Z 20087010 f   Monster_RepairBot.obj
 0001:00086060       ?RegisterClassA@rvMonsterRepairBot@@SAXXZ 20087060 f   Monster_RepairBot.obj
 0001:00086120       ?CreateInstance@rvMonsterRepairBot@@SAPAVidClass@@XZ 20087120 f   Monster_RepairBot.obj
 0001:000861c0       ?GetClassType@rvMonsterRepairBot@@SAAAVidTypeInfo@@XZ 200871c0 f   Monster_RepairBot.obj
 0001:000861d0       ?GetType@rvMonsterRepairBot@@UBEPAVidTypeInfo@@XZ 200871d0 f   Monster_RepairBot.obj
 0001:000861e0       ??0rvMonsterRepairBot@@QAE@XZ 200871e0 f   Monster_RepairBot.obj
 0001:00086240       ?InitSpawnArgsVariables@rvMonsterRepairBot@@QAEXXZ 20087240 f   Monster_RepairBot.obj
 0001:000862f0       ?Spawn@rvMonsterRepairBot@@QAEXXZ 200872f0 f   Monster_RepairBot.obj
 0001:00086300       ?Save@rvMonsterRepairBot@@QBEXPAVidSaveGame@@@Z 20087300 f   Monster_RepairBot.obj
 0001:00086340       ?Restore@rvMonsterRepairBot@@QAEXPAVidRestoreGame@@@Z 20087340 f   Monster_RepairBot.obj
 0001:00086380       ?Think@rvMonsterRepairBot@@UAEXXZ 20087380 f   Monster_RepairBot.obj
 0001:000863b0       ?GetDebugInfo@rvMonsterRepairBot@@UAEXP6AXPBD00PAX@Z1@Z 200873b0 f   Monster_RepairBot.obj
 0001:000863c0       ?CheckActions@rvMonsterRepairBot@@MAE_NXZ 200873c0 f   Monster_RepairBot.obj
 0001:000863d0       ?OnDeath@rvMonsterRepairBot@@MAEXXZ 200873d0 f   Monster_RepairBot.obj
 0001:00086450       ?UpdateRepairs@rvMonsterRepairBot@@AAEXAAVrepairBotArm_t@@@Z 20087450 f   Monster_RepairBot.obj
 0001:000868b0       ?StopRepairs@rvMonsterRepairBot@@AAEXAAVrepairBotArm_t@@@Z 200878b0 f   Monster_RepairBot.obj
 0001:00086930       ?State_Legs_Move@rvMonsterRepairBot@@AAE?AW4stateResult_t@@ABUstateParms_t@@@Z 20087930 f   Monster_RepairBot.obj
 0001:00086a30       ?State_TorsoAction_Repair@rvMonsterRepairBot@@AAE?AW4stateResult_t@@ABUstateParms_t@@@Z 20087a30 f   Monster_RepairBot.obj
 0001:00086b20       ?State_TorsoAction_RepairDone@rvMonsterRepairBot@@AAE?AW4stateResult_t@@ABUstateParms_t@@@Z 20087b20 f   Monster_RepairBot.obj
 0001:00086b50       ?Register_rvMonsterRepairBot@@YAXXZ 20087b50 f   Monster_RepairBot.obj
 0001:00086b60       ??_ErvMonsterRepairBot@@UAEPAXI@Z 20087b60 f i Monster_RepairBot.obj
 0001:00086b60       ??_GrvMonsterRepairBot@@UAEPAXI@Z 20087b60 f i Monster_RepairBot.obj
 0001:00086ba0       ?RegisterClassA@rvMonsterScientist@@SAXXZ 20087ba0 f   Monster_Scientist.obj
 0001:00086c60       ?CreateInstance@rvMonsterScientist@@SAPAVidClass@@XZ 20087c60 f   Monster_Scientist.obj
 0001:00086d00       ?GetClassType@rvMonsterScientist@@SAAAVidTypeInfo@@XZ 20087d00 f   Monster_Scientist.obj
 0001:00086d10       ?GetType@rvMonsterScientist@@UBEPAVidTypeInfo@@XZ 20087d10 f   Monster_Scientist.obj
 0001:00086d20       ??0rvMonsterScientist@@QAE@XZ 20087d20 f   Monster_Scientist.obj
 0001:00086d40       ?Spawn@rvMonsterScientist@@QAEXXZ 20087d40 f   Monster_Scientist.obj
 0001:00086d90       ?OnDeath@rvMonsterScientist@@UAEXXZ 20087d90 f   Monster_Scientist.obj
 0001:00086db0       ?GetDebugInfo@rvMonsterScientist@@UAEXP6AXPBD00PAX@Z1@Z 20087db0 f   Monster_Scientist.obj
 0001:00086dc0       ?Register_rvMonsterScientist@@YAXXZ 20087dc0 f   Monster_Scientist.obj
 0001:00086dd0       ?RegisterClassA@rvMonsterSentry@@SAXXZ 20087dd0 f   Monster_Sentry.obj
 0001:00086e90       ?CreateInstance@rvMonsterSentry@@SAPAVidClass@@XZ 20087e90 f   Monster_Sentry.obj
 0001:00086f30       ?GetClassType@rvMonsterSentry@@SAAAVidTypeInfo@@XZ 20087f30 f   Monster_Sentry.obj
 0001:00086f40       ?GetType@rvMonsterSentry@@UBEPAVidTypeInfo@@XZ 20087f40 f   Monster_Sentry.obj
 0001:00086f50       ??0rvMonsterSentry@@QAE@XZ 20087f50 f   Monster_Sentry.obj
 0001:00086fd0       ?InitSpawnArgsVariables@rvMonsterSentry@@QAEXXZ 20087fd0 f   Monster_Sentry.obj
 0001:00087050       ?Spawn@rvMonsterSentry@@QAEXXZ 20088050 f   Monster_Sentry.obj
 0001:00087100       ?Save@rvMonsterSentry@@QBEXPAVidSaveGame@@@Z 20088100 f   Monster_Sentry.obj
 0001:00087180       ?Restore@rvMonsterSentry@@QAEXPAVidRestoreGame@@@Z 20088180 f   Monster_Sentry.obj
 0001:00087210       ?Think@rvMonsterSentry@@UAEXXZ 20088210 f   Monster_Sentry.obj
 0001:00087240       ?Pain@rvMonsterSentry@@UAE_NPAVidEntity@@0HABVidVec3@@H@Z 20088240 f   Monster_Sentry.obj
 0001:00087390       ?GetDebugInfo@rvMonsterSentry@@UAEXP6AXPBD00PAX@Z1@Z 20088390 f   Monster_Sentry.obj
 0001:00087470       ?CheckActions@rvMonsterSentry@@MAE_NXZ 20088470 f   Monster_Sentry.obj
 0001:000874e0       ?FilterTactical@rvMonsterSentry@@MAEHH@Z 200884e0 f   Monster_Sentry.obj
 0001:00087510       ?OnDeath@rvMonsterSentry@@MAEXXZ 20088510 f   Monster_Sentry.obj
 0001:00087530       ?Explode@rvMonsterSentry@@IAEX_N@Z 20088530 f   Monster_Sentry.obj
 0001:000875c0       ?CheckAction_CircleStrafe@rvMonsterSentry@@AAE_NPAVrvAIAction@@H@Z 200885c0 f   Monster_Sentry.obj
 0001:000875e0       ?State_Torso_BlasterAttack@rvMonsterSentry@@AAE?AW4stateResult_t@@ABUstateParms_t@@@Z 200885e0 f   Monster_Sentry.obj
 0001:00087710       ?State_Torso_KamakaziAttack@rvMonsterSentry@@AAE?AW4stateResult_t@@ABUstateParms_t@@@Z 20088710 f   Monster_Sentry.obj
 0001:00087720       ?State_CircleStrafe@rvMonsterSentry@@AAE?AW4stateResult_t@@ABUstateParms_t@@@Z 20088720 f   Monster_Sentry.obj
 0001:000879a0       ?State_Action_CircleStrafe@rvMonsterSentry@@AAE?AW4stateResult_t@@ABUstateParms_t@@@Z 200889a0 f   Monster_Sentry.obj
 0001:000879c0       ?State_Torso_EvadeLeft@rvMonsterSentry@@AAE?AW4stateResult_t@@ABUstateParms_t@@@Z 200889c0 f   Monster_Sentry.obj
 0001:00087a80       ?State_Torso_EvadeRight@rvMonsterSentry@@AAE?AW4stateResult_t@@ABUstateParms_t@@@Z 20088a80 f   Monster_Sentry.obj
 0001:00087b50       ?Register_rvMonsterSentry@@YAXXZ 20088b50 f   Monster_Sentry.obj
 0001:00087b60       ??_ErvMonsterSentry@@UAEPAXI@Z 20088b60 f i Monster_Sentry.obj
 0001:00087b60       ??_GrvMonsterSentry@@UAEPAXI@Z 20088b60 f i Monster_Sentry.obj
 0001:00087d10       ?RegisterClassA@rvMonsterSlimyTransfer@@SAXXZ 20088d10 f   Monster_SlimyTransfer.obj
 0001:00087dd0       ?CreateInstance@rvMonsterSlimyTransfer@@SAPAVidClass@@XZ 20088dd0 f   Monster_SlimyTransfer.obj
 0001:00087e70       ?GetClassType@rvMonsterSlimyTransfer@@SAAAVidTypeInfo@@XZ 20088e70 f   Monster_SlimyTransfer.obj
 0001:00087e80       ?GetType@rvMonsterSlimyTransfer@@UBEPAVidTypeInfo@@XZ 20088e80 f   Monster_SlimyTransfer.obj
 0001:00087e90       ??0rvMonsterSlimyTransfer@@QAE@XZ 20088e90 f   Monster_SlimyTransfer.obj
 0001:00087ee0       ?InitSpawnArgsVariables@rvMonsterSlimyTransfer@@QAEXXZ 20088ee0 f   Monster_SlimyTransfer.obj
 0001:00087f70       ?Spawn@rvMonsterSlimyTransfer@@QAEXXZ 20088f70 f   Monster_SlimyTransfer.obj
 0001:00087fa0       ?Save@rvMonsterSlimyTransfer@@QBEXPAVidSaveGame@@@Z 20088fa0 f   Monster_SlimyTransfer.obj
 0001:00087fd0       ?Restore@rvMonsterSlimyTransfer@@QAEXPAVidRestoreGame@@@Z 20088fd0 f   Monster_SlimyTransfer.obj
 0001:00088000       ?CheckActions@rvMonsterSlimyTransfer@@MAE_NXZ 20089000 f   Monster_SlimyTransfer.obj
 0001:00088030       ?OnDeath@rvMonsterSlimyTransfer@@MAEXXZ 20089030 f   Monster_SlimyTransfer.obj
 0001:00088050       ?State_Torso_VomitAttack@rvMonsterSlimyTransfer@@AAE?AW4stateResult_t@@ABUstateParms_t@@@Z 20089050 f   Monster_SlimyTransfer.obj
 0001:00088140       ?State_Torso_FinishVomitAttack@rvMonsterSlimyTransfer@@AAE?AW4stateResult_t@@ABUstateParms_t@@@Z 20089140 f   Monster_SlimyTransfer.obj
 0001:00088160       ?State_Frame_StartVomit@rvMonsterSlimyTransfer@@AAE?AW4stateResult_t@@ABUstateParms_t@@@Z 20089160 f   Monster_SlimyTransfer.obj
 0001:000881c0       ?State_Frame_StopVomit@rvMonsterSlimyTransfer@@AAE?AW4stateResult_t@@ABUstateParms_t@@@Z 200891c0 f   Monster_SlimyTransfer.obj
 0001:000881f0       ?Register_rvMonsterSlimyTransfer@@YAXXZ 200891f0 f   Monster_SlimyTransfer.obj
 0001:00088200       ?RegisterClassA@rvMonsterStreamProtector@@SAXXZ 20089200 f   Monster_StreamProtector.obj
 0001:000882c0       ?CreateInstance@rvMonsterStreamProtector@@SAPAVidClass@@XZ 200892c0 f   Monster_StreamProtector.obj
 0001:00088360       ?GetClassType@rvMonsterStreamProtector@@SAAAVidTypeInfo@@XZ 20089360 f   Monster_StreamProtector.obj
 0001:00088370       ?GetType@rvMonsterStreamProtector@@UBEPAVidTypeInfo@@XZ 20089370 f   Monster_StreamProtector.obj
 0001:00088380       ??0rvMonsterStreamProtector@@QAE@XZ 20089380 f   Monster_StreamProtector.obj
 0001:00088430       ?InitSpawnArgsVariables@rvMonsterStreamProtector@@QAEXXZ 20089430 f   Monster_StreamProtector.obj
 0001:000884c0       ?Spawn@rvMonsterStreamProtector@@QAEXXZ 200894c0 f   Monster_StreamProtector.obj
 0001:00088560       ?Save@rvMonsterStreamProtector@@QBEXPAVidSaveGame@@@Z 20089560 f   Monster_StreamProtector.obj
 0001:000885f0       ?Restore@rvMonsterStreamProtector@@QAEXPAVidRestoreGame@@@Z 200895f0 f   Monster_StreamProtector.obj
 0001:00088690       ?CanTurn@rvMonsterStreamProtector@@UBE_NXZ 20089690 f   Monster_StreamProtector.obj
 0001:000886e0       ?Pain@rvMonsterStreamProtector@@UAE_NPAVidEntity@@0HABVidVec3@@H@Z 200896e0 f   Monster_StreamProtector.obj
 0001:00088720       ?Damage@rvMonsterStreamProtector@@UAEXPAVidEntity@@0ABVidVec3@@PBDMH@Z 20089720 f   Monster_StreamProtector.obj
 0001:00088770       ?CheckPainActions@rvMonsterStreamProtector@@MAE_NXZ 20089770 f   Monster_StreamProtector.obj
 0001:00088800       ?CheckActions@rvMonsterStreamProtector@@MAE_NXZ 20089800 f   Monster_StreamProtector.obj
 0001:000889a0       ?UpdateAnimationControllers@rvMonsterStreamProtector@@MAE_NXZ 200899a0 f   Monster_StreamProtector.obj
 0001:000889b0       ?State_Killed@rvMonsterStreamProtector@@AAE?AW4stateResult_t@@ABUstateParms_t@@@Z 200899b0 f   Monster_StreamProtector.obj
 0001:00088a30       ?State_Dead@rvMonsterStreamProtector@@AAE?AW4stateResult_t@@ABUstateParms_t@@@Z 20089a30 f   Monster_StreamProtector.obj
 0001:00088a60       ?State_Torso_PlasmaAttack@rvMonsterStreamProtector@@AAE?AW4stateResult_t@@ABUstateParms_t@@@Z 20089a60 f   Monster_StreamProtector.obj
 0001:00088d20       ?State_Torso_FinishPlasmaAttack@rvMonsterStreamProtector@@AAE?AW4stateResult_t@@ABUstateParms_t@@@Z 20089d20 f   Monster_StreamProtector.obj
 0001:00088d40       ?State_Torso_BlasterAttack@rvMonsterStreamProtector@@AAE?AW4stateResult_t@@ABUstateParms_t@@@Z 20089d40 f   Monster_StreamProtector.obj
 0001:00088e90       ?State_Torso_LightningAttack@rvMonsterStreamProtector@@AAE?AW4stateResult_t@@ABUstateParms_t@@@Z 20089e90 f   Monster_StreamProtector.obj
 0001:00088fe0       ?State_Torso_TurnRight90@rvMonsterStreamProtector@@AAE?AW4stateResult_t@@ABUstateParms_t@@@Z 20089fe0 f   Monster_StreamProtector.obj
 0001:00089090       ?State_Torso_TurnLeft90@rvMonsterStreamProtector@@AAE?AW4stateResult_t@@ABUstateParms_t@@@Z 2008a090 f   Monster_StreamProtector.obj
 0001:00089140       ?Register_rvMonsterStreamProtector@@YAXXZ 2008a140 f   Monster_StreamProtector.obj
 0001:00089150       ??1rvMonsterStreamProtector@@UAE@XZ 2008a150 f i Monster_StreamProtector.obj
 0001:00089400       ??_ErvMonsterStreamProtector@@UAEPAXI@Z 2008a400 f i Monster_StreamProtector.obj
 0001:00089400       ??_GrvMonsterStreamProtector@@UAEPAXI@Z 2008a400 f i Monster_StreamProtector.obj
 0001:00089440       ?RegisterClassA@rvMonsterStroggFlyer@@SAXXZ 2008a440 f   Monster_StroggFlyer.obj
 0001:00089500       ?CreateInstance@rvMonsterStroggFlyer@@SAPAVidClass@@XZ 2008a500 f   Monster_StroggFlyer.obj
 0001:000895a0       ?GetClassType@rvMonsterStroggFlyer@@SAAAVidTypeInfo@@XZ 2008a5a0 f   Monster_StroggFlyer.obj
 0001:000895b0       ?GetType@rvMonsterStroggFlyer@@UBEPAVidTypeInfo@@XZ 2008a5b0 f   Monster_StroggFlyer.obj
 0001:000895c0       ??0rvMonsterStroggFlyer@@QAE@XZ 2008a5c0 f   Monster_StroggFlyer.obj
 0001:00089640       ?InitSpawnArgsVariables@rvMonsterStroggFlyer@@QAEXXZ 2008a640 f   Monster_StroggFlyer.obj
 0001:000897e0       ?Spawn@rvMonsterStroggFlyer@@QAEXXZ 2008a7e0 f   Monster_StroggFlyer.obj
 0001:00089820       ?Save@rvMonsterStroggFlyer@@QBEXPAVidSaveGame@@@Z 2008a820 f   Monster_StroggFlyer.obj
 0001:00089880       ?Restore@rvMonsterStroggFlyer@@QAEXPAVidRestoreGame@@@Z 2008a880 f   Monster_StroggFlyer.obj
 0001:000898f0       ?GetDebugInfo@rvMonsterStroggFlyer@@UAEXP6AXPBD00PAX@Z1@Z 2008a8f0 f   Monster_StroggFlyer.obj
 0001:00089950       ?CheckActions@rvMonsterStroggFlyer@@MAE_NXZ 2008a950 f   Monster_StroggFlyer.obj
 0001:000899a0       ?OnUpdatePlayback@rvMonsterStroggFlyer@@MAEXABVrvDeclPlaybackData@@@Z 2008a9a0 f   Monster_StroggFlyer.obj
 0001:00089a30       ?OnWakeUp@rvMonsterStroggFlyer@@MAEXXZ 2008aa30 f   Monster_StroggFlyer.obj
 0001:00089ac0       ?State_ScriptedPlaybackMove@rvMonsterStroggFlyer@@AAE?AW4stateResult_t@@ABUstateParms_t@@@Z 2008aac0 f   Monster_StroggFlyer.obj
 0001:00089b30       ?State_Killed@rvMonsterStroggFlyer@@AAE?AW4stateResult_t@@ABUstateParms_t@@@Z 2008ab30 f   Monster_StroggFlyer.obj
 0001:00089be0       ?State_Torso_BlasterAttack@rvMonsterStroggFlyer@@AAE?AW4stateResult_t@@ABUstateParms_t@@@Z 2008abe0 f   Monster_StroggFlyer.obj
 0001:00089c80       ?State_Torso_BombAttack@rvMonsterStroggFlyer@@AAE?AW4stateResult_t@@ABUstateParms_t@@@Z 2008ac80 f   Monster_StroggFlyer.obj
 0001:00089d20       ?AttackBlaster@rvMonsterStroggFlyer@@AAEXXZ 2008ad20 f   Monster_StroggFlyer.obj
 0001:00089dc0       ?AttackBomb@rvMonsterStroggFlyer@@AAEXXZ 2008adc0 f   Monster_StroggFlyer.obj
 0001:00089e80       ?Register_rvMonsterStroggFlyer@@YAXXZ 2008ae80 f   Monster_StroggFlyer.obj
 0001:00089e90       ??_ErvMonsterStroggFlyer@@UAEPAXI@Z 2008ae90 f i Monster_StroggFlyer.obj
 0001:00089e90       ??_GrvMonsterStroggFlyer@@UAEPAXI@Z 2008ae90 f i Monster_StroggFlyer.obj
 0001:00089ff0       ?RegisterClassA@rvMonsterStroggHover@@SAXXZ 2008aff0 f   Monster_StroggHover.obj
 0001:0008a0b0       ?CreateInstance@rvMonsterStroggHover@@SAPAVidClass@@XZ 2008b0b0 f   Monster_StroggHover.obj
 0001:0008a150       ?GetClassType@rvMonsterStroggHover@@SAAAVidTypeInfo@@XZ 2008b150 f   Monster_StroggHover.obj
 0001:0008a160       ?GetType@rvMonsterStroggHover@@UBEPAVidTypeInfo@@XZ 2008b160 f   Monster_StroggHover.obj
 0001:0008a170       ??0rvMonsterStroggHover@@QAE@XZ 2008b170 f   Monster_StroggHover.obj
 0001:0008a360       ??1rvMonsterStroggHover@@UAE@XZ 2008b360 f   Monster_StroggHover.obj
 0001:0008a5d0       ?InitSpawnArgsVariables@rvMonsterStroggHover@@QAEXXZ 2008b5d0 f   Monster_StroggHover.obj
 0001:0008ab20       ?Spawn@rvMonsterStroggHover@@QAEXXZ 2008bb20 f   Monster_StroggHover.obj
 0001:0008ad50       ?Save@rvMonsterStroggHover@@QBEXPAVidSaveGame@@@Z 2008bd50 f   Monster_StroggHover.obj
 0001:0008af50       ?Restore@rvMonsterStroggHover@@QAEXPAVidRestoreGame@@@Z 2008bf50 f   Monster_StroggHover.obj
 0001:0008b150       ?Think@rvMonsterStroggHover@@UAEXXZ 2008c150 f   Monster_StroggHover.obj
 0001:0008ba40       ?Collide@rvMonsterStroggHover@@UAE_NABUtrace_t@@ABVidVec3@@@Z 2008ca40 f   Monster_StroggHover.obj
 0001:0008bb70       ?Damage@rvMonsterStroggHover@@UAEXPAVidEntity@@0ABVidVec3@@PBDMH@Z 2008cb70 f   Monster_StroggHover.obj
 0001:0008bbd0       ?OnDeath@rvMonsterStroggHover@@UAEXXZ 2008cbd0 f   Monster_StroggHover.obj
 0001:0008bc70       ?DeadMove@rvMonsterStroggHover@@UAEXXZ 2008cc70 f   Monster_StroggHover.obj
 0001:0008bc90       ?SkipImpulse@rvMonsterStroggHover@@UAE_NPAVidEntity@@H@Z 2008cc90 f   Monster_StroggHover.obj
 0001:0008bcb0       ?FilterTactical@rvMonsterStroggHover@@UAEHH@Z 2008ccb0 f   Monster_StroggHover.obj
 0001:0008bd00       ?GetDebugInfo@rvMonsterStroggHover@@UAEXP6AXPBD00PAX@Z1@Z 2008cd00 f   Monster_StroggHover.obj
 0001:0008c200       ?Hide@rvMonsterStroggHover@@UAEXXZ 2008d200 f   Monster_StroggHover.obj
 0001:0008c210       ?Show@rvMonsterStroggHover@@UAEXXZ 2008d210 f   Monster_StroggHover.obj
 0001:0008c220       ?StartHeadlight@rvMonsterStroggHover@@QAEXXZ 2008d220 f   Monster_StroggHover.obj
 0001:0008c4d0       ?StopHeadlight@rvMonsterStroggHover@@QAEXXZ 2008d4d0 f   Monster_StroggHover.obj
 0001:0008c510       ?CheckActions@rvMonsterStroggHover@@MAE_NXZ 2008d510 f   Monster_StroggHover.obj
 0001:0008c5b0       ?OnEnemyChange@rvMonsterStroggHover@@MAEXPAVidEntity@@@Z 2008d5b0 f   Monster_StroggHover.obj
 0001:0008c5c0       ?OnStartMoving@rvMonsterStroggHover@@MAEXXZ 2008d5c0 f   Monster_StroggHover.obj
 0001:0008c5e0       ?GetIdleAnimName@rvMonsterStroggHover@@MAEPBDXZ 2008d5e0 f   Monster_StroggHover.obj
 0001:0008c5f0       ?MarkerPosValid@rvMonsterStroggHover@@AAE_NXZ 2008d5f0 f   Monster_StroggHover.obj
 0001:0008c970       ?TryStartPursuit@rvMonsterStroggHover@@AAEXXZ 2008d970 f   Monster_StroggHover.obj
 0001:0008ccb0       ?Pursue@rvMonsterStroggHover@@AAEXXZ 2008dcb0 f   Monster_StroggHover.obj
 0001:0008ceb0       ?CircleStrafe@rvMonsterStroggHover@@AAEXXZ 2008deb0 f   Monster_StroggHover.obj
 0001:0008d100       ?Evade@rvMonsterStroggHover@@AAEX_N@Z 2008e100 f   Monster_StroggHover.obj
 0001:0008d1b0       ?DoNamedAttack@rvMonsterStroggHover@@AAEXPBDW4jointHandle_t@@@Z 2008e1b0 f   Monster_StroggHover.obj
 0001:0008d270       ?UpdateLightDef@rvMonsterStroggHover@@AAEXXZ 2008e270 f   Monster_StroggHover.obj
 0001:0008d3f0       ?CheckAction_Strafe@rvMonsterStroggHover@@AAE_NPAVrvAIAction@@H@Z 2008e3f0 f   Monster_StroggHover.obj
 0001:0008d470       ?CheckAction_CircleStrafe@rvMonsterStroggHover@@AAE_NPAVrvAIAction@@H@Z 2008e470 f   Monster_StroggHover.obj
 0001:0008d4a0       ?CheckAction_BombAttack@rvMonsterStroggHover@@AAE_NPAVrvAIAction@@H@Z 2008e4a0 f   Monster_StroggHover.obj
 0001:0008d5a0       ?State_Torso_MGunAttack@rvMonsterStroggHover@@AAE?AW4stateResult_t@@ABUstateParms_t@@@Z 2008e5a0 f   Monster_StroggHover.obj
 0001:0008d6a0       ?State_Torso_MissileAttack@rvMonsterStroggHover@@AAE?AW4stateResult_t@@ABUstateParms_t@@@Z 2008e6a0 f   Monster_StroggHover.obj
 0001:0008d7e0       ?State_Torso_BombAttack@rvMonsterStroggHover@@AAE?AW4stateResult_t@@ABUstateParms_t@@@Z 2008e7e0 f   Monster_StroggHover.obj
 0001:0008daf0       ?State_Torso_Strafe@rvMonsterStroggHover@@AAE?AW4stateResult_t@@ABUstateParms_t@@@Z 2008eaf0 f   Monster_StroggHover.obj
 0001:0008db30       ?State_Torso_CircleStrafe@rvMonsterStroggHover@@AAE?AW4stateResult_t@@ABUstateParms_t@@@Z 2008eb30 f   Monster_StroggHover.obj
 0001:0008db40       ?State_CircleStrafe@rvMonsterStroggHover@@AAE?AW4stateResult_t@@ABUstateParms_t@@@Z 2008eb40 f   Monster_StroggHover.obj
 0001:0008db80       ?State_DeathSpiral@rvMonsterStroggHover@@AAE?AW4stateResult_t@@ABUstateParms_t@@@Z 2008eb80 f   Monster_StroggHover.obj
 0001:0008e120       ?State_Pursue@rvMonsterStroggHover@@AAE?AW4stateResult_t@@ABUstateParms_t@@@Z 2008f120 f   Monster_StroggHover.obj
 0001:0008e160       ?Register_rvMonsterStroggHover@@YAXXZ 2008f160 f   Monster_StroggHover.obj
 0001:0008e170       ??_ErvMonsterStroggHover@@UAEPAXI@Z 2008f170 f i Monster_StroggHover.obj
 0001:0008e170       ??_GrvMonsterStroggHover@@UAEPAXI@Z 2008f170 f i Monster_StroggHover.obj
 0001:0008e1b0       ?RegisterClassA@rvMonsterStroggMarine@@SAXXZ 2008f1b0 f   Monster_StroggMarine.obj
 0001:0008e270       ?CreateInstance@rvMonsterStroggMarine@@SAPAVidClass@@XZ 2008f270 f   Monster_StroggMarine.obj
 0001:0008e310       ?GetClassType@rvMonsterStroggMarine@@SAAAVidTypeInfo@@XZ 2008f310 f   Monster_StroggMarine.obj
 0001:0008e320       ?GetType@rvMonsterStroggMarine@@UBEPAVidTypeInfo@@XZ 2008f320 f   Monster_StroggMarine.obj
 0001:0008e330       ??0rvMonsterStroggMarine@@QAE@XZ 2008f330 f   Monster_StroggMarine.obj
 0001:0008e3e0       ?InitSpawnArgsVariables@rvMonsterStroggMarine@@QAEXXZ 2008f3e0 f   Monster_StroggMarine.obj
 0001:0008e4d0       ?Spawn@rvMonsterStroggMarine@@QAEXXZ 2008f4d0 f   Monster_StroggMarine.obj
 0001:0008e580       ?Save@rvMonsterStroggMarine@@QBEXPAVidSaveGame@@@Z 2008f580 f   Monster_StroggMarine.obj
 0001:0008e630       ?Restore@rvMonsterStroggMarine@@QAEXPAVidRestoreGame@@@Z 2008f630 f   Monster_StroggMarine.obj
 0001:0008e6f0       ?OnStopMoving@rvMonsterStroggMarine@@MAEXW4aiMoveCommand_t@@@Z 2008f6f0 f   Monster_StroggMarine.obj
 0001:0008e790       ?CheckActions@rvMonsterStroggMarine@@MAE_NXZ 2008f790 f   Monster_StroggMarine.obj
 0001:0008e850       ?EnemyMovingToRight@rvMonsterStroggMarine@@IAE_NXZ 2008f850 f   Monster_StroggMarine.obj
 0001:0008e970       ?CalculateShots@rvMonsterStroggMarine@@AAEXXZ 2008f970 f   Monster_StroggMarine.obj
 0001:0008e9d0       ?CheckAction_JumpBack@rvMonsterStroggMarine@@EAE_NPAVrvAIAction@@H@Z 2008f9d0 f   Monster_StroggMarine.obj
 0001:0008ea40       ?CheckAction_EvadeLeft@rvMonsterStroggMarine@@EAE_NPAVrvAIAction@@H@Z 2008fa40 f   Monster_StroggMarine.obj
 0001:0008eaa0       ?CheckAction_EvadeRight@rvMonsterStroggMarine@@EAE_NPAVrvAIAction@@H@Z 2008faa0 f   Monster_StroggMarine.obj
 0001:0008eb00       ?CheckAction_Strafe@rvMonsterStroggMarine@@AAE_NPAVrvAIAction@@H@Z 2008fb00 f   Monster_StroggMarine.obj
 0001:0008eb50       ?CheckAction_RangedAttack@rvMonsterStroggMarine@@EAE_NPAVrvAIAction@@H@Z 2008fb50 f   Monster_StroggMarine.obj
 0001:0008eca0       ?CheckAction_CrouchRangedAttack@rvMonsterStroggMarine@@AAE_NPAVrvAIAction@@H@Z 2008fca0 f   Monster_StroggMarine.obj
 0001:0008eee0       ?CheckAction_RollAttack@rvMonsterStroggMarine@@AAE_NPAVrvAIAction@@H@Z 2008fee0 f   Monster_StroggMarine.obj
 0001:0008ef30       ?CheckAction_SprayAttack@rvMonsterStroggMarine@@AAE_NPAVrvAIAction@@H@Z 2008ff30 f   Monster_StroggMarine.obj
 0001:0008f0d0       ?CheckAction_Angry@rvMonsterStroggMarine@@AAE_NPAVrvAIAction@@H@Z 200900d0 f   Monster_StroggMarine.obj
 0001:0008f110       ?CheckAction_Reload@rvMonsterStroggMarine@@AAE_NPAVrvAIAction@@H@Z 20090110 f   Monster_StroggMarine.obj
 0001:0008f150       ?State_Torso_RollAttack@rvMonsterStroggMarine@@AAE?AW4stateResult_t@@ABUstateParms_t@@@Z 20090150 f   Monster_StroggMarine.obj
 0001:0008f260       ?State_Torso_RangedAttack@rvMonsterStroggMarine@@AAE?AW4stateResult_t@@ABUstateParms_t@@@Z 20090260 f   Monster_StroggMarine.obj
 0001:0008f480       ?State_Torso_MovingRangedAttack@rvMonsterStroggMarine@@AAE?AW4stateResult_t@@ABUstateParms_t@@@Z 20090480 f   Monster_StroggMarine.obj
 0001:0008f5e0       ?State_Torso_SprayAttack@rvMonsterStroggMarine@@AAE?AW4stateResult_t@@ABUstateParms_t@@@Z 200905e0 f   Monster_StroggMarine.obj
 0001:0008f750       ?Register_rvMonsterStroggMarine@@YAXXZ 20090750 f   Monster_StroggMarine.obj
 0001:0008f760       ??1rvMonsterStroggMarine@@UAE@XZ 20090760 f i Monster_StroggMarine.obj
 0001:0008fa10       ??_ErvMonsterStroggMarine@@UAEPAXI@Z 20090a10 f i Monster_StroggMarine.obj
 0001:0008fa10       ??_GrvMonsterStroggMarine@@UAEPAXI@Z 20090a10 f i Monster_StroggMarine.obj
 0001:0008fa50       ?RegisterClassA@rvMonsterTeleportDropper@@SAXXZ 20090a50 f   Monster_TeleportDropper.obj
 0001:0008fb10       ?CreateInstance@rvMonsterTeleportDropper@@SAPAVidClass@@XZ 20090b10 f   Monster_TeleportDropper.obj
 0001:0008fbb0       ?GetClassType@rvMonsterTeleportDropper@@SAAAVidTypeInfo@@XZ 20090bb0 f   Monster_TeleportDropper.obj
 0001:0008fbc0       ?GetType@rvMonsterTeleportDropper@@UBEPAVidTypeInfo@@XZ 20090bc0 f   Monster_TeleportDropper.obj
 0001:0008fbd0       ??0rvMonsterTeleportDropper@@QAE@XZ 20090bd0 f   Monster_TeleportDropper.obj
 0001:0008fc50       ?InitSpawnArgsVariables@rvMonsterTeleportDropper@@QAEXXZ 20090c50 f   Monster_TeleportDropper.obj
 0001:0008fd20       ?Spawn@rvMonsterTeleportDropper@@QAEXXZ 20090d20 f   Monster_TeleportDropper.obj
 0001:0008ffe0       ?Save@rvMonsterTeleportDropper@@QBEXPAVidSaveGame@@@Z 20090fe0 f   Monster_TeleportDropper.obj
 0001:00090040       ?Restore@rvMonsterTeleportDropper@@QAEXPAVidRestoreGame@@@Z 20091040 f   Monster_TeleportDropper.obj
 0001:000900a0       ?Think@rvMonsterTeleportDropper@@UAEXXZ 200910a0 f   Monster_TeleportDropper.obj
 0001:00090170       ?AttackRanged@rvMonsterTeleportDropper@@UAEPAVidProjectile@@PBDPBVidDict@@W4jointHandle_t@@PAVidEntity@@ABVidVec3@@@Z 20091170 f   Monster_TeleportDropper.obj
 0001:00090260       ?GetIdleAnimName@rvMonsterTeleportDropper@@UAEPBDXZ 20091260 f   Monster_TeleportDropper.obj
 0001:00090280       ?GetDebugInfo@rvMonsterTeleportDropper@@UAEXP6AXPBD00PAX@Z1@Z 20091280 f   Monster_TeleportDropper.obj
 0001:000902c0       ?CheckAction_LeapAttack@rvMonsterTeleportDropper@@UAE_NPAVrvAIAction@@H@Z 200912c0 f   Monster_TeleportDropper.obj
 0001:00090310       ?FilterTactical@rvMonsterTeleportDropper@@MAEHH@Z 20091310 f   Monster_TeleportDropper.obj
 0001:000903d0       ?CheckActions@rvMonsterTeleportDropper@@MAE_NXZ 200913d0 f   Monster_TeleportDropper.obj
 0001:00090420       ?State_CombatHide@rvMonsterTeleportDropper@@MAE?AW4stateResult_t@@ABUstateParms_t@@@Z 20091420 f   Monster_TeleportDropper.obj
 0001:000904e0       ?CheckAction_DropSpawners@rvMonsterTeleportDropper@@AAE_NPAVrvAIAction@@H@Z 200914e0 f   Monster_TeleportDropper.obj
 0001:00090740       ?State_Torso_DropSpawners@rvMonsterTeleportDropper@@AAE?AW4stateResult_t@@ABUstateParms_t@@@Z 20091740 f   Monster_TeleportDropper.obj
 0001:000907d0       ?Register_rvMonsterTeleportDropper@@YAXXZ 200917d0 f   Monster_TeleportDropper.obj
 0001:000907e0       ??_ErvMonsterTeleportDropper@@UAEPAXI@Z 200917e0 f i Monster_TeleportDropper.obj
 0001:000907e0       ??_GrvMonsterTeleportDropper@@UAEPAXI@Z 200917e0 f i Monster_TeleportDropper.obj
 0001:000908c0       ?RegisterClassA@rvMonsterTurret@@SAXXZ 200918c0 f   Monster_Turret.obj
 0001:00090980       ?CreateInstance@rvMonsterTurret@@SAPAVidClass@@XZ 20091980 f   Monster_Turret.obj
 0001:00090a20       ?GetClassType@rvMonsterTurret@@SAAAVidTypeInfo@@XZ 20091a20 f   Monster_Turret.obj
 0001:00090a30       ?GetType@rvMonsterTurret@@UBEPAVidTypeInfo@@XZ 20091a30 f   Monster_Turret.obj
 0001:00090a40       ??0rvMonsterTurret@@QAE@XZ 20091a40 f   Monster_Turret.obj
 0001:00090aa0       ?InitSpawnArgsVariables@rvMonsterTurret@@QAEXXZ 20091aa0 f   Monster_Turret.obj
 0001:00090b20       ?Spawn@rvMonsterTurret@@QAEXXZ 20091b20 f   Monster_Turret.obj
 0001:00090b90       ?Save@rvMonsterTurret@@QBEXPAVidSaveGame@@@Z 20091b90 f   Monster_Turret.obj
 0001:00090bd0       ?Restore@rvMonsterTurret@@QAEXPAVidRestoreGame@@@Z 20091bd0 f   Monster_Turret.obj
 0001:00090c10       ?Pain@rvMonsterTurret@@UAE_NPAVidEntity@@0HABVidVec3@@H@Z 20091c10 f   Monster_Turret.obj
 0001:00090d50       ?CheckActions@rvMonsterTurret@@MAE_NXZ 20091d50 f   Monster_Turret.obj
 0001:00090d80       ?State_Combat@rvMonsterTurret@@IAE?AW4stateResult_t@@ABUstateParms_t@@@Z 20091d80 f   Monster_Turret.obj
 0001:00090dd0       ?State_Killed@rvMonsterTurret@@IAE?AW4stateResult_t@@ABUstateParms_t@@@Z 20091dd0 f   Monster_Turret.obj
 0001:00090e80       ?State_Torso_BlasterAttack@rvMonsterTurret@@AAE?AW4stateResult_t@@ABUstateParms_t@@@Z 20091e80 f   Monster_Turret.obj
 0001:00090f60       ?Register_rvMonsterTurret@@YAXXZ 20091f60 f   Monster_Turret.obj
 0001:00090f70       ??_ErvMonsterTurret@@UAEPAXI@Z 20091f70 f i Monster_Turret.obj
 0001:00090f70       ??_ErvMonsterTurretFlying@@UAEPAXI@Z 20091f70 f i Monster_TurretFlying.obj
 0001:00090f70       ??_GrvMonsterTurret@@UAEPAXI@Z 20091f70 f i Monster_Turret.obj
 0001:00090f70       ??_GrvMonsterTurretFlying@@UAEPAXI@Z 20091f70 f i Monster_TurretFlying.obj
 0001:00091050       ?RegisterClassA@rvMonsterTurretFlying@@SAXXZ 20092050 f   Monster_TurretFlying.obj
 0001:00091110       ?CreateInstance@rvMonsterTurretFlying@@SAPAVidClass@@XZ 20092110 f   Monster_TurretFlying.obj
 0001:000911b0       ?GetClassType@rvMonsterTurretFlying@@SAAAVidTypeInfo@@XZ 200921b0 f   Monster_TurretFlying.obj
 0001:000911c0       ?GetType@rvMonsterTurretFlying@@UBEPAVidTypeInfo@@XZ 200921c0 f   Monster_TurretFlying.obj
 0001:000911d0       ??0rvMonsterTurretFlying@@QAE@XZ 200921d0 f   Monster_TurretFlying.obj
 0001:00091250       ?InitSpawnArgsVariables@rvMonsterTurretFlying@@QAEXXZ 20092250 f   Monster_TurretFlying.obj
 0001:000912d0       ?Spawn@rvMonsterTurretFlying@@QAEXXZ 200922d0 f   Monster_TurretFlying.obj
 0001:00091340       ?Save@rvMonsterTurretFlying@@QBEXPAVidSaveGame@@@Z 20092340 f   Monster_TurretFlying.obj
 0001:00091380       ?Restore@rvMonsterTurretFlying@@QAEXPAVidRestoreGame@@@Z 20092380 f   Monster_TurretFlying.obj
 0001:000913c0       ?Pain@rvMonsterTurretFlying@@UAE_NPAVidEntity@@0HABVidVec3@@H@Z 200923c0 f   Monster_TurretFlying.obj
 0001:00091500       ?CheckActions@rvMonsterTurretFlying@@UAE_NXZ 20092500 f   Monster_TurretFlying.obj
 0001:00091530       ?State_Combat@rvMonsterTurretFlying@@IAE?AW4stateResult_t@@ABUstateParms_t@@@Z 20092530 f   Monster_TurretFlying.obj
 0001:000915b0       ?State_Fall@rvMonsterTurretFlying@@IAE?AW4stateResult_t@@ABUstateParms_t@@@Z 200925b0 f   Monster_TurretFlying.obj
 0001:00091850       ?State_Killed@rvMonsterTurretFlying@@IAE?AW4stateResult_t@@ABUstateParms_t@@@Z 20092850 f   Monster_TurretFlying.obj
 0001:00091960       ?State_Torso_Idle@rvMonsterTurretFlying@@IAE?AW4stateResult_t@@ABUstateParms_t@@@Z 20092960 f   Monster_TurretFlying.obj
 0001:00091990       ?State_Legs_Idle@rvMonsterTurretFlying@@IAE?AW4stateResult_t@@ABUstateParms_t@@@Z 20092990 f   Monster_TurretFlying.obj
 0001:000919a0       ?State_Torso_BlasterAttack@rvMonsterTurretFlying@@IAE?AW4stateResult_t@@ABUstateParms_t@@@Z 200929a0 f   Monster_TurretFlying.obj
 0001:00091a90       ?Register_rvMonsterTurretFlying@@YAXXZ 20092a90 f   Monster_TurretFlying.obj
 0001:00091aa0       ?RegisterClassA@rvVehicleAI@@SAXXZ 20092aa0 f   VehicleAI.obj
 0001:00091b60       ?CreateInstance@rvVehicleAI@@SAPAVidClass@@XZ 20092b60 f   VehicleAI.obj
 0001:00091c00       ?GetClassType@rvVehicleAI@@SAAAVidTypeInfo@@XZ 20092c00 f   VehicleAI.obj
 0001:00091c10       ?GetType@rvVehicleAI@@UBEPAVidTypeInfo@@XZ 20092c10 f   VehicleAI.obj
 0001:00091c20       ??0rvVehicleAI@@QAE@XZ     20092c20 f   VehicleAI.obj
 0001:00091c50       ??1rvVehicleAI@@UAE@XZ     20092c50 f   VehicleAI.obj
 0001:00091c60       ?Spawn@rvVehicleAI@@QAEXXZ 20092c60 f   VehicleAI.obj
 0001:00091ca0       ?Think@rvVehicleAI@@UAEXXZ 20092ca0 f   VehicleAI.obj
 0001:00091e50       ?Save@rvVehicleAI@@QBEXPAVidSaveGame@@@Z 20092e50 f   VehicleAI.obj
 0001:00091e80       ?Restore@rvVehicleAI@@QAEXPAVidRestoreGame@@@Z 20092e80 f   VehicleAI.obj
 0001:00091eb0       ?SetVehicle@rvVehicleAI@@QAEXPAVrvVehicleMonster@@@Z 20092eb0 f   VehicleAI.obj
 0001:000920c0       ?OnWakeUp@rvVehicleAI@@EAEXXZ 200930c0 f   VehicleAI.obj
 0001:000920d0       ?CustomMove@rvVehicleAI@@EAEXXZ 200930d0 f   VehicleAI.obj
 0001:000921b0       ?MoveCloserTo@rvVehicleAI@@AAEPBVidEntity@@ABVidVec3@@PAV2@@Z 200931b0 f   VehicleAI.obj
 0001:000922b0       ?MoveAwayFrom@rvVehicleAI@@AAEPBVidEntity@@ABVidVec3@@PAV2@@Z 200932b0 f   VehicleAI.obj
 0001:000923b0       ?FindClosestNode@rvVehicleAI@@ABEPBVidEntity@@XZ 200933b0 f   VehicleAI.obj
 0001:000924a0       ?Event_ChoosePathTarget@rvVehicleAI@@AAEXPAVidEntity@@@Z 200934a0 f   VehicleAI.obj
 0001:00092530       ?Register_rvVehicleAI@@YAXXZ 20093530 f   VehicleAI.obj
 0001:00092540       ??_ErvVehicleAI@@UAEPAXI@Z 20093540 f i VehicleAI.obj
 0001:00092540       ??_GrvVehicleAI@@UAEPAXI@Z 20093540 f i VehicleAI.obj
 0001:00092580       ??0idMD5Anim@@QAE@XZ       20093580 f   Anim.obj
 0001:00092650       ??1idMD5Anim@@QAE@XZ       20093650 f   Anim.obj
 0001:000927d0       ?Free@idMD5Anim@@QAEXXZ    200937d0 f   Anim.obj
 0001:00092930       ?Reload@idMD5Anim@@QAE_NXZ 20093930 f   Anim.obj
 0001:000929e0       ?Allocated@idMD5Anim@@QBEIXZ 200939e0 f   Anim.obj
 0001:00092a20       ?LoadAnim@idMD5Anim@@QAE_NPBD@Z 20093a20 f   Anim.obj
 0001:000939f0       ?IncreaseRefs@idMD5Anim@@QBEXXZ 200949f0 f   Anim.obj
 0001:00093a00       ?DecreaseRefs@idMD5Anim@@QBEXXZ 20094a00 f   Anim.obj
 0001:00093a10       ?NumRefs@idMD5Anim@@QBEHXZ 20094a10 f   Anim.obj
 0001:00093a20       ?CheckModelHierarchy@idMD5Anim@@QBEXPBVidRenderModel@@@Z 20094a20 f   Anim.obj
 0001:00093b70       ?GetInterpolatedFrame@idMD5Anim@@QBEXABUframeBlend_t@@PAVidJointQuat@@PBHH@Z 20094b70 f   Anim.obj
 0001:000941b0       ?GetSingleFrame@idMD5Anim@@QBEXHPAVidJointQuat@@PBHH@Z 200951b0 f   Anim.obj
 0001:00094300       ?Length@idMD5Anim@@QBEHXZ  20095300 f   Anim.obj
 0001:00094310       ?NumFrames@idMD5Anim@@QBEHXZ 20095310 f   Anim.obj
 0001:00094320       ?NumJoints@idMD5Anim@@QBEHXZ 20095320 f   Anim.obj
 0001:00094330       ?TotalMovementDelta@idMD5Anim@@QBEABVidVec3@@XZ 20095330 f   Anim.obj
 0001:00094340       ?Name@idMD5Anim@@QBEPBDXZ  20095340 f   Anim.obj
 0001:00094350       ?ConvertTimeToFrame@idMD5Anim@@QBEXHHAAUframeBlend_t@@@Z 20095350 f   Anim.obj
 0001:00094450       ?ConvertFrameToTime@idMD5Anim@@QBEHAAUframeBlend_t@@@Z 20095450 f   Anim.obj
 0001:00094480       ?GetOrigin@idMD5Anim@@QBEXAAVidVec3@@HH@Z 20095480 f   Anim.obj
 0001:000945d0       ?GetOriginRotation@idMD5Anim@@QBEXAAVidQuat@@HH@Z 200955d0 f   Anim.obj
 0001:00094c60       ?GetBounds@idMD5Anim@@QBEXAAVidBounds@@HH@Z 20095c60 f   Anim.obj
 0001:00094e20       ??0idAnimManager@@QAE@XZ   20095e20 f   Anim.obj
 0001:00094ee0       ??1idAnimManager@@QAE@XZ   20095ee0 f   Anim.obj
 0001:00095030       ?Shutdown@idAnimManager@@QAEXXZ 20096030 f   Anim.obj
 0001:00095170       ?GetAnim@idAnimManager@@QAEPAVidMD5Anim@@PBD@Z 20096170 f   Anim.obj
 0001:00095490       ?ReloadAnims@idAnimManager@@QAEXXZ 20096490 f   Anim.obj
 0001:00095510       ?ListAnims@idAnimManager@@QBEXXZ 20096510 f   Anim.obj
 0001:00095660       ?PrintMemInfo@idAnimManager@@QAEXPAVMemInfo@@@Z 20096660 f   Anim.obj
 0001:00095910       ?JointIndex@idAnimManager@@QAEHPBD@Z 20096910 f   Anim.obj
 0001:00095d70       ?JointName@idAnimManager@@QBEPBDH@Z 20096d70 f   Anim.obj
 0001:00095d90       ?FlushUnusedAnims@idAnimManager@@QAEXXZ 20096d90 f   Anim.obj
 0001:00096150       ??1?$idAutoPtr@VLexer@@@@QAE@XZ 20097150 f i Anim.obj
 0001:00096170       ??1?$idHashTable@PAVidMD5Anim@@@@QAE@XZ 20097170 f i Anim.obj
 0001:00096260       ?ANIM_GetModelFromEntityDef@idGameEdit@@UAEPAVidRenderModel@@PBD@Z 20097260 f   Anim_Blend.obj
 0001:00096290       ?ANIM_GetModelOffsetFromEntityDef@idGameEdit@@UAEABVidVec3@@PBD@Z 20097290 f   Anim_Blend.obj
 0001:000962d0       ?ANIM_GetModelFromEntityDef@idGameEdit@@UAEPAVidRenderModel@@PBVidDict@@@Z 200972d0 f   Anim_Blend.obj
 0001:000963f0       ?ANIM_GetModelFromName@idGameEdit@@UAEPAVidRenderModel@@PBD@Z 200973f0 f   Anim_Blend.obj
 0001:00096430       ?ANIM_GetAnimFromEntityDef@idGameEdit@@UAEPBVidMD5Anim@@PBD0@Z 20097430 f   Anim_Blend.obj
 0001:000964c0       ?ANIM_GetAnimFromEntity@idGameEdit@@UAEPBVidMD5Anim@@PBVidEntity@@H@Z 200974c0 f   Anim_Blend.obj
 0001:000964f0       ?ANIM_GetAnimPlaybackRateFromEntity@idGameEdit@@UAEMPAVidEntity@@H@Z 200974f0 f   Anim_Blend.obj
 0001:00096520       ?ANIM_GetAnimNameFromEntity@idGameEdit@@UAEPBDPBVidEntity@@H@Z 20097520 f   Anim_Blend.obj
 0001:00096550       ?ANIM_GetNumAnimsFromEntityDef@idGameEdit@@UAEHPBVidDict@@@Z 20097550 f   Anim_Blend.obj
 0001:000965a0       ?ANIM_GetAnimNameFromEntityDef@idGameEdit@@UAEPBDPBVidDict@@H@Z 200975a0 f   Anim_Blend.obj
 0001:00096610       ?ANIM_GetAnim@idGameEdit@@UAEPBVidMD5Anim@@PBD@Z 20097610 f   Anim_Blend.obj
 0001:00096620       ?ANIM_GetLength@idGameEdit@@UAEHPBVidMD5Anim@@@Z 20097620 f   Anim_Blend.obj
 0001:00096640       ?ANIM_GetNumFrames@idGameEdit@@UAEHPBVidMD5Anim@@@Z 20097640 f   Anim_Blend.obj
 0001:00096660       ?ANIM_GetFilename@idGameEdit@@UAEPBDPBVidMD5Anim@@@Z 20097660 f   Anim_Blend.obj
 0001:00096670       ?ANIM_ConvertFrameToTime@idGameEdit@@UAEHPBVidMD5Anim@@H@Z 20097670 f   Anim_Blend.obj
 0001:000966a0       ?ANIM_ConvertTimeToFrame@idGameEdit@@UAEHPBVidMD5Anim@@H@Z 200976a0 f   Anim_Blend.obj
 0001:000966c0       ?ANIM_CreateAnimFrame@idGameEdit@@UAEXPBVidRenderModel@@PBVidMD5Anim@@HPAVidJointMat@@HABVidVec3@@_N@Z 200976c0 f   Anim_Blend.obj
 0001:00096bd0       ?ANIM_CreateMeshForAnim@idGameEdit@@UAEPAVidRenderModel@@PAV2@PBD1H_N@Z 20097bd0 f   Anim_Blend.obj
 0001:00096eb0       ??0idAnim@@QAE@XZ          20097eb0 f   Anim_Blend.obj
 0001:00096f50       ??0idAnim@@QAE@PBVidDeclModelDef@@PBV0@@Z 20097f50 f   Anim_Blend.obj
 0001:00097710       ??1idAnim@@QAE@XZ          20098710 f   Anim_Blend.obj
 0001:00097920       ?SetAnim@idAnim@@QAEXPBVidDeclModelDef@@PBD1HQAPBVidMD5Anim@@@Z 20098920 f   Anim_Blend.obj
 0001:00097b80       ?Name@idAnim@@QBEPBDXZ     20098b80 f   Anim_Blend.obj
 0001:00097b90       ?FullName@idAnim@@QBEPBDXZ 20098b90 f   Anim_Blend.obj
 0001:00097ba0       ?MD5Anim@idAnim@@QBEPBVidMD5Anim@@H@Z 20098ba0 f   Anim_Blend.obj
 0001:00097bc0       ?ModelDef@idAnim@@QBEPBVidDeclModelDef@@XZ 20098bc0 f   Anim_Blend.obj
 0001:00097bd0       ?Length@idAnim@@QBEHXZ     20098bd0 f   Anim_Blend.obj
 0001:00097be0       ?NumFrames@idAnim@@QBEHXZ  20098be0 f   Anim_Blend.obj
 0001:00097bf0       ?NumAnims@idAnim@@QBEHXZ   20098bf0 f   Anim_Blend.obj
 0001:00097c00       ?TotalMovementDelta@idAnim@@QBEABVidVec3@@XZ 20098c00 f   Anim_Blend.obj
 0001:00097c20       ?GetOrigin@idAnim@@QBE_NAAVidVec3@@HHH@Z 20098c20 f   Anim_Blend.obj
 0001:00097c60       ?GetOriginRotation@idAnim@@QBE_NAAVidQuat@@HHH@Z 20098c60 f   Anim_Blend.obj
 0001:00097ca0       ?AddFrameCommand@idAnim@@QAEPBDPBVidDeclModelDef@@ABV?$idList@H@@AAVidLexer@@PBVidDict@@@Z 20098ca0 f   Anim_Blend.obj
 0001:00099ed0       ?CallFrameCommands@idAnim@@QBEXPAVidEntity@@HH@Z 2009aed0 f   Anim_Blend.obj
 0001:0009a8a0       ?HasFrameCommands@idAnim@@QBE_NXZ 2009b8a0 f   Anim_Blend.obj
 0001:0009a8b0       ?FindFrameForFrameCommand@idAnim@@QBEHW4frameCommandType_t@@PAPBUframeCommand_t@@@Z 2009b8b0 f   Anim_Blend.obj
 0001:0009a950       ?SetAnimFlags@idAnim@@QAEXABUanimFlags_t@@@Z 2009b950 f   Anim_Blend.obj
 0001:0009a960       ?GetAnimFlags@idAnim@@QBEABUanimFlags_t@@XZ 2009b960 f   Anim_Blend.obj
 0001:0009a970       ?CallFrameCommandSound@idAnim@@QBEXABUframeCommand_t@@PAVidEntity@@H@Z 2009b970 f   Anim_Blend.obj
 0001:0009a9b0       ??0idDeclModelDef@@QAE@XZ  2009b9b0 f   Anim_Blend.obj
 0001:0009ab00       ??1idDeclModelDef@@UAE@XZ  2009bb00 f   Anim_Blend.obj
 0001:0009ac50       ?Size@idDeclModelDef@@UBEIXZ 2009bc50 f   Anim_Blend.obj
 0001:0009ac80       ?DefaultDefinition@idDeclModelDef@@UBEPBDXZ 2009bc80 f   Anim_Blend.obj
 0001:0009ac90       ?Parse@idDeclModelDef@@UAE_NPBDH_N@Z 2009bc90 f   Anim_Blend.obj
 0001:0009bf40       ?FreeData@idDeclModelDef@@UAEXXZ 2009cf40 f   Anim_Blend.obj
 0001:0009c160       ?Validate@idDeclModelDef@@UBE_NPBDHAAVidStr@@@Z 2009d160 f   Anim_Blend.obj
 0001:0009c1b0       ?Touch@idDeclModelDef@@QBEXXZ 2009d1b0 f   Anim_Blend.obj
 0001:0009c1e0       ?GetDefaultSkin@idDeclModelDef@@QBEPBVidDeclSkin@@XZ 2009d1e0 f   Anim_Blend.obj
 0001:0009c1f0       ?GetDefaultPose@idDeclModelDef@@QBEPBVidJointQuat@@XZ 2009d1f0 f   Anim_Blend.obj
 0001:0009c200       ?SetupJoints@idDeclModelDef@@QBEXPAHPAPAVidJointMat@@AAVidBounds@@_N@Z 2009d200 f   Anim_Blend.obj
 0001:0009c3c0       ?ModelHandle@idDeclModelDef@@QBEPAVidRenderModel@@XZ 2009d3c0 f   Anim_Blend.obj
 0001:0009c3d0       ?GetJointList@idDeclModelDef@@QBEXPBDAAV?$idList@W4jointHandle_t@@@@@Z 2009d3d0 f   Anim_Blend.obj
 0001:0009ca90       ?FindJoint@idDeclModelDef@@QBEPBUjointInfo_t@@PBD@Z 2009da90 f   Anim_Blend.obj
 0001:0009caf0       ?NumAnims@idDeclModelDef@@QBEHXZ 2009daf0 f   Anim_Blend.obj
 0001:0009cb00       ?GetSpecificAnim@idDeclModelDef@@QBEHPBD@Z 2009db00 f   Anim_Blend.obj
 0001:0009cb50       ?GetAnim@idDeclModelDef@@QBEHPBD@Z 2009db50 f   Anim_Blend.obj
 0001:0009cc10       ?HasAnim@idDeclModelDef@@QBE_NPBD@Z 2009dc10 f   Anim_Blend.obj
 0001:0009cc60       ?GetSkin@idDeclModelDef@@QBEPBVidDeclSkin@@XZ 2009dc60 f   Anim_Blend.obj
 0001:0009cc70       ?GetModelName@idDeclModelDef@@QBEPBDXZ 2009dc70 f   Anim_Blend.obj
 0001:0009cc90       ?Joints@idDeclModelDef@@QBEABV?$idList@UjointInfo_t@@@@XZ 2009dc90 f   Anim_Blend.obj
 0001:0009cca0       ?JointParents@idDeclModelDef@@QBEPBHXZ 2009dca0 f   Anim_Blend.obj
 0001:0009ccb0       ?NumJoints@idDeclModelDef@@QBEHXZ 2009dcb0 f   Anim_Blend.obj
 0001:0009ccc0       ?GetJoint@idDeclModelDef@@QBEPBUjointInfo_t@@H@Z 2009dcc0 f   Anim_Blend.obj
 0001:0009cd00       ?GetJointName@idDeclModelDef@@QBEPBDH@Z 2009dd00 f   Anim_Blend.obj
 0001:0009cd60       ?NumJointsOnChannel@idDeclModelDef@@QBEHH@Z 2009dd60 f   Anim_Blend.obj
 0001:0009cda0       ?GetChannelJoints@idDeclModelDef@@QBEPBHH@Z 2009dda0 f   Anim_Blend.obj
 0001:0009cde0       ?GetVisualOffset@idDeclModelDef@@QBEABVidVec3@@XZ 2009dde0 f   Anim_Blend.obj
 0001:0009cdf0       ?CopyDecl@idDeclModelDef@@AAEXPBV1@@Z 2009ddf0 f   Anim_Blend.obj
 0001:0009d340       ?ParseAnim@idDeclModelDef@@AAE_NAAVidLexer@@H@Z 2009e340 f   Anim_Blend.obj
 0001:0009dd10       ?Reset@idAnimBlend@@AAEXPBVidDeclModelDef@@@Z 2009ed10 f   Anim_Blend.obj
 0001:0009dd80       ?CallFrameCommands@idAnimBlend@@ABEXPAVidEntity@@HH@Z 2009ed80 f   Anim_Blend.obj
 0001:0009dea0       ?SetFrame@idAnimBlend@@AAEXPBVidDeclModelDef@@HABUframeBlend_t@@@Z 2009eea0 f   Anim_Blend.obj
 0001:0009dfd0       ?CycleAnim@idAnimBlend@@AAEXPBVidDeclModelDef@@HHHM@Z 2009efd0 f   Anim_Blend.obj
 0001:0009e140       ?PlayAnim@idAnimBlend@@AAEXPBVidDeclModelDef@@HHHM@Z 2009f140 f   Anim_Blend.obj
 0001:0009e260       ?BlendAnim@idAnimBlend@@ABE_NHHHPAVidJointQuat@@AAM_N22@Z 2009f260 f   Anim_Blend.obj
 0001:0009e6d0       ?BlendOrigin@idAnimBlend@@ABEXHAAVidVec3@@AAM_N@Z 2009f6d0 f   Anim_Blend.obj
 0001:0009e890       ?BlendDelta@idAnimBlend@@ABEXHHAAVidVec3@@AAM@Z 2009f890 f   Anim_Blend.obj
 0001:0009eaf0       ?BlendDeltaRotation@idAnimBlend@@ABEXHHAAVidQuat@@AAM@Z 2009faf0 f   Anim_Blend.obj
 0001:0009ee90       ?AddBounds@idAnimBlend@@ABE_NHAAVidBounds@@_N@Z 2009fe90 f   Anim_Blend.obj
 0001:0009f070       ??0idAnimBlend@@QAE@XZ     200a0070 f   Anim_Blend.obj
 0001:0009f080       ?Save@idAnimBlend@@QBEXPAVidSaveGame@@@Z 200a0080 f   Anim_Blend.obj
 0001:0009f170       ?Restore@idAnimBlend@@QAEXPAVidRestoreGame@@PBVidDeclModelDef@@@Z 200a0170 f   Anim_Blend.obj
 0001:0009f280       ?AnimName@idAnimBlend@@QBEPBDXZ 200a0280 f   Anim_Blend.obj
 0001:0009f2c0       ?AnimFullName@idAnimBlend@@QBEPBDXZ 200a02c0 f   Anim_Blend.obj
 0001:0009f300       ?GetWeight@idAnimBlend@@QBEMH@Z 200a0300 f   Anim_Blend.obj
 0001:0009f370       ?GetFinalWeight@idAnimBlend@@QBEMXZ 200a0370 f   Anim_Blend.obj
 0001:0009f380       ?SetWeight@idAnimBlend@@QAEXMHH@Z 200a0380 f   Anim_Blend.obj
 0001:0009f3d0       ?NumSyncedAnims@idAnimBlend@@QBEHXZ 200a03d0 f   Anim_Blend.obj
 0001:0009f400       ?SetSyncedAnimWeight@idAnimBlend@@QAE_NHM@Z 200a0400 f   Anim_Blend.obj
 0001:0009f460       ?Clear@idAnimBlend@@QAEXHH@Z 200a0460 f   Anim_Blend.obj
 0001:0009f490       ?IsDone@idAnimBlend@@QBE_NH@Z 200a0490 f   Anim_Blend.obj
 0001:0009f4d0       ?FrameHasChanged@idAnimBlend@@QBE_NH@Z 200a04d0 f   Anim_Blend.obj
 0001:0009f540       ?GetCycleCount@idAnimBlend@@QBEHXZ 200a0540 f   Anim_Blend.obj
 0001:0009f550       ?SetCycleCount@idAnimBlend@@QAEXH@Z 200a0550 f   Anim_Blend.obj
 0001:0009f6c0       ?SetPlaybackRate@idAnimBlend@@QAEXHM@Z 200a06c0 f   Anim_Blend.obj
 0001:0009f740       ?GetPlaybackRate@idAnimBlend@@QBEMXZ 200a0740 f   Anim_Blend.obj
 0001:0009f750       ?SetStartTime@idAnimBlend@@QAEXH@Z 200a0750 f   Anim_Blend.obj
 0001:0009f770       ?GetStartTime@idAnimBlend@@QBEHXZ 200a0770 f   Anim_Blend.obj
 0001:0009f780       ?GetEndTime@idAnimBlend@@QBEHXZ 200a0780 f   Anim_Blend.obj
 0001:0009f790       ?GetFrameNumber@idAnimBlend@@QBEHH@Z 200a0790 f   Anim_Blend.obj
 0001:0009f810       ?AnimTime@idAnimBlend@@QBEHH@Z 200a0810 f   Anim_Blend.obj
 0001:0009f8d0       ?NumFrames@idAnimBlend@@QBEHXZ 200a08d0 f   Anim_Blend.obj
 0001:0009f900       ?Length@idAnimBlend@@QBEHXZ 200a0900 f   Anim_Blend.obj
 0001:0009f930       ?PlayLength@idAnimBlend@@QBEHXZ 200a0930 f   Anim_Blend.obj
 0001:0009f950       ?AllowMovement@idAnimBlend@@QAEX_N@Z 200a0950 f   Anim_Blend.obj
 0001:0009f960       ?AllowFrameCommands@idAnimBlend@@QAEX_N@Z 200a0960 f   Anim_Blend.obj
 0001:0009f970       ?AnimNum@idAnimBlend@@QBEHXZ 200a0970 f   Anim_Blend.obj
 0001:0009f980       ??0idAnimator@@QAE@XZ      200a0980 f   Anim_Blend.obj
 0001:0009fe60       ??1idAnimator@@QAE@XZ      200a0e60 f   Anim_Blend.obj
 0001:0009ffa0       ?Allocated@idAnimator@@QBEIXZ 200a0fa0 f   Anim_Blend.obj
 0001:0009ffe0       ?Size@idAnimator@@QBEIXZ   200a0fe0 f   Anim_Blend.obj
 0001:0009fff0       ?Save@idAnimator@@QBEXPAVidSaveGame@@@Z 200a0ff0 f   Anim_Blend.obj
 0001:000a01a0       ?Restore@idAnimator@@QAEXPAVidRestoreGame@@@Z 200a11a0 f   Anim_Blend.obj
 0001:000a0c70       ?SetEntity@idAnimator@@QAEXPAVidEntity@@@Z 200a1c70 f   Anim_Blend.obj
 0001:000a0c80       ?GetEntity@idAnimator@@QBEPAVidEntity@@XZ 200a1c80 f   Anim_Blend.obj
 0001:000a0c90       ?RemoveOriginOffset@idAnimator@@QAEX_N@Z 200a1c90 f   Anim_Blend.obj
 0001:000a0ca0       ?RemoveOrigin@idAnimator@@QBE_NXZ 200a1ca0 f   Anim_Blend.obj
 0001:000a0cb0       ?GetJointList@idAnimator@@QBEXPBDAAV?$idList@W4jointHandle_t@@@@@Z 200a1cb0 f   Anim_Blend.obj
 0001:000a0cd0       ?NumAnims@idAnimator@@QBEHXZ 200a1cd0 f   Anim_Blend.obj
 0001:000a0ce0       ?GetAnim@idAnimator@@QBEPBVidAnim@@H@Z 200a1ce0 f   Anim_Blend.obj
 0001:000a0d10       ?GetAnim@idAnimator@@QBEHPBD@Z 200a1d10 f   Anim_Blend.obj
 0001:000a0d30       ?HasAnim@idAnimator@@QBE_NPBD@Z 200a1d30 f   Anim_Blend.obj
 0001:000a0d50       ?ServiceAnims@idAnimator@@QAEXHH@Z 200a1d50 f   Anim_Blend.obj
 0001:000a0de0       ?IsAnimating@idAnimator@@QBE_NH_N@Z 200a1de0 f   Anim_Blend.obj
 0001:000a0e60       ?IsBlending@idAnimator@@QBE_NHH@Z 200a1e60 f   Anim_Blend.obj
 0001:000a0ed0       ?GetJoints@idAnimator@@QAEXPAHPAPAVidJointMat@@@Z 200a1ed0 f   Anim_Blend.obj
 0001:000a0ef0       ?NumJoints@idAnimator@@QBEHXZ 200a1ef0 f   Anim_Blend.obj
 0001:000a0f00       ?GetFirstChild@idAnimator@@QBE?AW4jointHandle_t@@W42@@Z 200a1f00 f   Anim_Blend.obj
 0001:000a0f60       ?GetFirstChild@idAnimator@@QBE?AW4jointHandle_t@@PBD@Z 200a1f60 f   Anim_Blend.obj
 0001:000a0f80       ?SetModel@idAnimator@@QAEPAVidRenderModel@@PBD@Z 200a1f80 f   Anim_Blend.obj
 0001:000a1060       ?ModelHandle@idAnimator@@QBEPAVidRenderModel@@XZ 200a2060 f   Anim_Blend.obj
 0001:000a1070       ?ModelDef@idAnimator@@QBEPBVidDeclModelDef@@XZ 200a2070 f   Anim_Blend.obj
 0001:000a1080       ?ForceUpdate@idAnimator@@QAEXXZ 200a2080 f   Anim_Blend.obj
 0001:000a10a0       ?ClearForceUpdate@idAnimator@@QAEXXZ 200a20a0 f   Anim_Blend.obj
 0001:000a10b0       ?CreateFrame@idAnimator@@QAE_NH_N@Z 200a20b0 f   Anim_Blend.obj
 0001:000a3220       ?FrameHasChanged@idAnimator@@QBE_NH@Z 200a4220 f   Anim_Blend.obj
 0001:000a32c0       ?GetDelta@idAnimator@@QBEXHHAAVidVec3@@@Z 200a42c0 f   Anim_Blend.obj
 0001:000a33b0       ?GetDeltaRotation@idAnimator@@QBE_NHHAAVidMat3@@@Z 200a43b0 f   Anim_Blend.obj
 0001:000a3550       ?GetOrigin@idAnimator@@QBEXHAAVidVec3@@@Z 200a4550 f   Anim_Blend.obj
 0001:000a3660       ?GetBounds@idAnimator@@QAE_NHAAVidBounds@@@Z 200a4660 f   Anim_Blend.obj
 0001:000a3940       ?CurrentAnim@idAnimator@@QAEPAVidAnimBlend@@H@Z 200a4940 f   Anim_Blend.obj
 0001:000a3980       ?Clear@idAnimator@@QAEXHHH@Z 200a4980 f   Anim_Blend.obj
 0001:000a39f0       ?SetFrame@idAnimator@@QAEXHHABUframeBlend_t@@@Z 200a49f0 f   Anim_Blend.obj
 0001:000a3a80       ?CycleAnim@idAnimator@@QAEXHHHH@Z 200a4a80 f   Anim_Blend.obj
 0001:000a3c40       ?PlayAnim@idAnimator@@QAEXHHHH@Z 200a4c40 f   Anim_Blend.obj
 0001:000a3cf0       ?SyncAnimChannels@idAnimator@@QAEXHHHH@Z 200a4cf0 f   Anim_Blend.obj
 0001:000a3e50       ?SetJointPos@idAnimator@@QAEXW4jointHandle_t@@W4jointModTransform_t@@ABVidVec3@@@Z 200a4e50 f   Anim_Blend.obj
 0001:000a3ec0       ?SetJointAxis@idAnimator@@QAEXW4jointHandle_t@@W4jointModTransform_t@@ABVidMat3@@@Z 200a4ec0 f   Anim_Blend.obj
 0001:000a3f20       ?GetJointAxis@idAnimator@@QAEXW4jointHandle_t@@AAVidMat3@@@Z 200a4f20 f   Anim_Blend.obj
 0001:000a3f60       ?CollapseJoint@idAnimator@@QAEXW4jointHandle_t@@0@Z 200a4f60 f   Anim_Blend.obj
 0001:000a3fc0       ?CollapseJoints@idAnimator@@QAEXPBDW4jointHandle_t@@@Z 200a4fc0 f   Anim_Blend.obj
 0001:000a4090       ?ClearJoint@idAnimator@@QAEXW4jointHandle_t@@@Z 200a5090 f   Anim_Blend.obj
 0001:000a4160       ?ClearAllJoints@idAnimator@@QAEXXZ 200a5160 f   Anim_Blend.obj
 0001:000a4250       ?AimJointAt@idAnimator@@QAEXW4jointHandle_t@@ABVidVec3@@H@Z 200a5250 f   Anim_Blend.obj
 0001:000a4500       ?SetJointAngularVelocity@idAnimator@@QAEXW4jointHandle_t@@ABVidAngles@@HH@Z 200a5500 f   Anim_Blend.obj
 0001:000a56a0       ?GetJointAngularVelocity@idAnimator@@QAE?AVidAngles@@W4jointHandle_t@@H@Z 200a66a0 f   Anim_Blend.obj
 0001:000a5e30       ?ClearJointAngularVelocity@idAnimator@@QAEXW4jointHandle_t@@@Z 200a6e30 f   Anim_Blend.obj
 0001:000a5e90       ?SetPlaybackRate@idAnimator@@QAEXPBDM@Z 200a6e90 f   Anim_Blend.obj
 0001:000a5ec0       ?SetPlaybackRate@idAnimator@@QAEXHM@Z 200a6ec0 f   Anim_Blend.obj
 0001:000a5ee0       ?InitAFPose@idAnimator@@QAEXXZ 200a6ee0 f   Anim_Blend.obj
 0001:000a6340       ?SetAFPoseJointMod@idAnimator@@QAEXW4jointHandle_t@@W4AFJointModType_t@@ABVidMat3@@ABVidVec3@@@Z 200a7340 f   Anim_Blend.obj
 0001:000a66b0       ?FinishAFPose@idAnimator@@QAEXHABVidBounds@@H@Z 200a76b0 f   Anim_Blend.obj
 0001:000a7040       ?SetAFPoseBlendWeight@idAnimator@@QAEXM@Z 200a8040 f   Anim_Blend.obj
 0001:000a7060       ?BlendAFPose@idAnimator@@QBE_NPAVidJointQuat@@@Z 200a8060 f   Anim_Blend.obj
 0001:000a70b0       ?ClearAFPose@idAnimator@@QAEXXZ 200a80b0 f   Anim_Blend.obj
 0001:000a71c0       ?ClearAllAnims@idAnimator@@QAEXHH@Z 200a81c0 f   Anim_Blend.obj
 0001:000a7200       ?GetJointHandle@idAnimator@@QBE?AW4jointHandle_t@@PBD@Z 200a8200 f   Anim_Blend.obj
 0001:000a7230       ?GetJointName@idAnimator@@QBEPBDW4jointHandle_t@@@Z 200a8230 f   Anim_Blend.obj
 0001:000a7270       ?GetChannelForJoint@idAnimator@@QBEHW4jointHandle_t@@@Z 200a8270 f   Anim_Blend.obj
 0001:000a72d0       ?GetJointTransform@idAnimator@@QAE_NW4jointHandle_t@@HAAVidVec3@@AAVidMat3@@@Z 200a82d0 f   Anim_Blend.obj
 0001:000a7440       ?GetJointLocalTransform@idAnimator@@QAE_NW4jointHandle_t@@HAAVidVec3@@AAVidMat3@@@Z 200a8440 f   Anim_Blend.obj
 0001:000a78c0       ?GetAnimFlags@idAnimator@@QBE?BUanimFlags_t@@H@Z 200a88c0 f   Anim_Blend.obj
 0001:000a78f0       ?NumFrames@idAnimator@@QBEHH@Z 200a88f0 f   Anim_Blend.obj
 0001:000a7910       ?NumSyncedAnims@idAnimator@@QBEHH@Z 200a8910 f   Anim_Blend.obj
 0001:000a7930       ?AnimName@idAnimator@@QBEPBDH@Z 200a8930 f   Anim_Blend.obj
 0001:000a7960       ?AnimFullName@idAnimator@@QBEPBDH@Z 200a8960 f   Anim_Blend.obj
 0001:000a7990       ?AnimMD5Name@idAnimator@@QBEPBDHH@Z 200a8990 f   Anim_Blend.obj
 0001:000a79d0       ?AnimLength@idAnimator@@QBEHH@Z 200a89d0 f   Anim_Blend.obj
 0001:000a79f0       ?TotalMovementDelta@idAnimator@@QBEABVidVec3@@H@Z 200a89f0 f   Anim_Blend.obj
 0001:000a7a20       ?GetNearestJoint@idAnimator@@QAE?AW4jointHandle_t@@ABVidVec3@@0HPAW42@H@Z 200a8a20 f   Anim_Blend.obj
 0001:000a7d30       ?FindExistingJointMod@idAnimator@@QAEPAUjointMod_t@@W4jointHandle_t@@PAH@Z 200a8d30 f   Anim_Blend.obj
 0001:000a7d80       ?FindJointMod@idAnimator@@AAEPAUjointMod_t@@W4jointHandle_t@@@Z 200a8d80 f   Anim_Blend.obj
 0001:000a8140       ?FreeData@idAnimator@@AAEXXZ 200a9140 f   Anim_Blend.obj
 0001:000a82b0       ?PushAnims@idAnimator@@AAEXHHH@Z 200a92b0 f   Anim_Blend.obj
 0001:000a83a0       ?ANIM_GetModelDefFromEntityDef@@YAPBVidDeclModelDef@@PBVidDict@@@Z 200a93a0 f   Anim_Blend.obj
 0001:000a84a0       ??$ArgCompletion_Integer@$0A@$02@idCmdSystem@@SAXABVidCmdArgs@@P6AXPBD@Z@Z 200a94a0 f i Anim_Blend.obj
 0001:000a84e0       ??0jointMod_t@@QAE@XZ      200a94e0 f i Anim_Blend.obj
 0001:000a8590       ??1idDecl@@UAE@XZ          200a9590 f i Anim_Blend.obj
 0001:000a85a0       ??_F?$idList@H@@QAEXXZ     200a95a0 f i Anim_Blend.obj
 0001:000a85a0       ??_F?$idList@PAVidPlayerStart@@@@QAEXXZ 200a95a0 f i Game_local.obj
 0001:000a85a0       ??_F?$idList@Usignal_t@@@@QAEXXZ 200a95a0 f i Entity.obj
 0001:000a85a0       ??_F?$idList@V?$rvPair@PAVrvIcon@@H@@@@QAEXXZ 200a95a0 f i IconManager.obj
 0001:000a85c0       ??_G?$idList@VidStr@@@@QAEPAXI@Z 200a95c0 f i Anim_Blend.obj
 0001:000a8650       ??_EidCVar@@UAEPAXI@Z      200a9650 f i Anim_Blend.obj
 0001:000a8650       ??_GidCVar@@UAEPAXI@Z      200a9650 f i Anim_Blend.obj
 0001:000a8680       ??_EidDecl@@UAEPAXI@Z      200a9680 f i Anim_Blend.obj
 0001:000a8680       ??_GidDecl@@UAEPAXI@Z      200a9680 f i Anim_Blend.obj
 0001:000a86b0       ??_EidDeclModelDef@@UAEPAXI@Z 200a96b0 f i Anim_Blend.obj
 0001:000a86b0       ??_GidDeclModelDef@@UAEPAXI@Z 200a96b0 f i Anim_Blend.obj
 0001:000a86e0       ?DefaultDefinition@idDecl@@UBEPBDXZ 200a96e0 f i Anim_Blend.obj
 0001:000a86f0       ?FreeData@idDecl@@UAEXXZ   200a96f0 f i Anim_Blend.obj
 0001:000a8700       ?List@idDecl@@UBEXXZ       200a9700 f i Anim_Blend.obj
 0001:000a8710       ?Parse@idDecl@@UAE_NPBDH_N@Z 200a9710 f i Anim_Blend.obj
 0001:000a8720       ?Print@idDecl@@UBEXXZ      200a9720 f i Anim_Blend.obj
 0001:000a8730       ?RebuildTextSource@idDecl@@UAE_NXZ 200a9730 f i Anim_Blend.obj
 0001:000a8740       ?SetDefaultText@idDecl@@UAE_NXZ 200a9740 f i Anim_Blend.obj
 0001:000a8750       ?SetReferencedThisLevel@idDecl@@UAEXXZ 200a9750 f i Anim_Blend.obj
 0001:000a8760       ?Size@idDecl@@UBEIXZ       200a9760 f i Anim_Blend.obj
 0001:000a8770       ?Validate@idDecl@@UBE_NPBDHAAVidStr@@@Z 200a9770 f i Anim_Blend.obj
 0001:000a8780       ?Reset@idModelExport@@AAEXXZ 200a9780 f   Anim_Import.obj
 0001:000a87b0       ?ParseOptions@idModelExport@@AAE_NAAVidLexer@@@Z 200a97b0 f   Anim_Import.obj
 0001:000a8c30       ?ParseExportSection@idModelExport@@AAEHAAVidParser@@@Z 200a9c30 f   Anim_Import.obj
 0001:000a9200       ?CheckMayaInstall@idModelExport@@CA_NXZ 200aa200 f   Anim_Import.obj
 0001:000a9230       ?LoadMayaDll@idModelExport@@CAXXZ 200aa230 f   Anim_Import.obj
 0001:000a9390       ?ConvertMayaToMD5@idModelExport@@AAE_NXZ 200aa390 f   Anim_Import.obj
 0001:000a96d0       ??0idModelExport@@QAE@XZ   200aa6d0 f   Anim_Import.obj
 0001:000a9760       ?Shutdown@idModelExport@@SAXXZ 200aa760 f   Anim_Import.obj
 0001:000a97e0       ?ExportDefFile@idModelExport@@QAEHPBD@Z 200aa7e0 f   Anim_Import.obj
 0001:000a9900       ?ExportModel@idModelExport@@QAE_NPBD@Z 200aa900 f   Anim_Import.obj
 0001:000a9a00       ?ExportAnim@idModelExport@@QAE_NPBD@Z 200aaa00 f   Anim_Import.obj
 0001:000a9ad0       ?ExportModels@idModelExport@@QAEHPBD0@Z 200aaad0 f   Anim_Import.obj
 0001:000a9bb0       ??1MayaConversionCleaner@@QAE@XZ 200aabb0 f i Anim_Import.obj
 0001:000a9c00       ?Free@Memory@@SAXPAX@Z     200aac00 f i Anim_Import.obj
 0001:000a9c30       ?MSize@Memory@@SAIPAX@Z    200aac30 f i Anim_Import.obj
 0001:000a9c60       ?RegisterClassA@idTestModel@@SAXXZ 200aac60 f   Anim_Testmodel.obj
 0001:000a9d20       ?CreateInstance@idTestModel@@SAPAVidClass@@XZ 200aad20 f   Anim_Testmodel.obj
 0001:000a9dc0       ?GetClassType@idTestModel@@SAAAVidTypeInfo@@XZ 200aadc0 f   Anim_Testmodel.obj
 0001:000a9dd0       ?GetType@idTestModel@@UBEPAVidTypeInfo@@XZ 200aadd0 f   Anim_Testmodel.obj
 0001:000a9de0       ??0idTestModel@@QAE@XZ     200aade0 f   Anim_Testmodel.obj
 0001:000a9ef0       ??1idTestModel@@UAE@XZ     200aaef0 f   Anim_Testmodel.obj
 0001:000aa0b0       ?Save@idTestModel@@QAEXPAVidSaveGame@@@Z 200ab0b0 f   Anim_Testmodel.obj
 0001:000aa0c0       ?Restore@idTestModel@@QAEXPAVidRestoreGame@@@Z 200ab0c0 f   Anim_Testmodel.obj
 0001:000aa0d0       ?Spawn@idTestModel@@QAEXXZ 200ab0d0 f   Anim_Testmodel.obj
 0001:000aab20       ?ShouldConstructScriptObjectAtSpawn@idTestModel@@UBE_NXZ 200abb20 f   Anim_Testmodel.obj
 0001:000aab30       ?NextAnim@idTestModel@@QAEXABVidCmdArgs@@@Z 200abb30 f   Anim_Testmodel.obj
 0001:000aad20       ?PrevAnim@idTestModel@@QAEXABVidCmdArgs@@@Z 200abd20 f   Anim_Testmodel.obj
 0001:000aaf10       ?NextFrame@idTestModel@@QAEXABVidCmdArgs@@@Z 200abf10 f   Anim_Testmodel.obj
 0001:000aafa0       ?PrevFrame@idTestModel@@QAEXABVidCmdArgs@@@Z 200abfa0 f   Anim_Testmodel.obj
 0001:000ab030       ?TestAnim@idTestModel@@QAEXABVidCmdArgs@@@Z 200ac030 f   Anim_Testmodel.obj
 0001:000ab270       ?BlendAnim@idTestModel@@QAEXABVidCmdArgs@@@Z 200ac270 f   Anim_Testmodel.obj
 0001:000ab3b0       ?KeepTestModel_f@idTestModel@@SAXABVidCmdArgs@@@Z 200ac3b0 f   Anim_Testmodel.obj
 0001:000ab3f0       ?TestModel_f@idTestModel@@SAXABVidCmdArgs@@@Z 200ac3f0 f   Anim_Testmodel.obj
 0001:000ab890       ?ArgCompletion_TestModel@idTestModel@@SAXABVidCmdArgs@@P6AXPBD@Z@Z 200ac890 f   Anim_Testmodel.obj
 0001:000abdf0       ?TestSkin_f@idTestModel@@SAXABVidCmdArgs@@@Z 200acdf0 f   Anim_Testmodel.obj
 0001:000ac090       ?TestShaderParm_f@idTestModel@@SAXABVidCmdArgs@@@Z 200ad090 f   Anim_Testmodel.obj
 0001:000ac3b0       ?TestParticleStopTime_f@idTestModel@@SAXABVidCmdArgs@@@Z 200ad3b0 f   Anim_Testmodel.obj
 0001:000ac400       ?TestAnim_f@idTestModel@@SAXABVidCmdArgs@@@Z 200ad400 f   Anim_Testmodel.obj
 0001:000ac430       ?ArgCompletion_TestAnim@idTestModel@@SAXABVidCmdArgs@@P6AXPBD@Z@Z 200ad430 f   Anim_Testmodel.obj
 0001:000ac4a0       ?TestBlend_f@idTestModel@@SAXABVidCmdArgs@@@Z 200ad4a0 f   Anim_Testmodel.obj
 0001:000ac4d0       ?TestModelNextAnim_f@idTestModel@@SAXABVidCmdArgs@@@Z 200ad4d0 f   Anim_Testmodel.obj
 0001:000ac500       ?TestModelPrevAnim_f@idTestModel@@SAXABVidCmdArgs@@@Z 200ad500 f   Anim_Testmodel.obj
 0001:000ac530       ?TestModelNextFrame_f@idTestModel@@SAXABVidCmdArgs@@@Z 200ad530 f   Anim_Testmodel.obj
 0001:000ac560       ?TestModelPrevFrame_f@idTestModel@@SAXABVidCmdArgs@@@Z 200ad560 f   Anim_Testmodel.obj
 0001:000ac590       ?Think@idTestModel@@EAEXXZ 200ad590 f   Anim_Testmodel.obj
 0001:000ad180       ?Event_Footstep@idTestModel@@AAEXXZ 200ae180 f   Anim_Testmodel.obj
 0001:000ad1a0       ?Register_idTestModel@@YAXXZ 200ae1a0 f   Anim_Testmodel.obj
 0001:000ad1b0       ??1idModelExport@@QAE@XZ   200ae1b0 f i Anim_Testmodel.obj
 0001:000ad1b0       ??1idObjectiveInfo@@QAE@XZ 200ae1b0 f i Player.obj
 0001:000ad210       ??_EidTestModel@@UAEPAXI@Z 200ae210 f i Anim_Testmodel.obj
 0001:000ad210       ??_GidTestModel@@UAEPAXI@Z 200ae210 f i Anim_Testmodel.obj
 0001:000ad260       ?RegisterClassA@idBrittleFracture@@SAXXZ 200ae260 f   BrittleFracture.obj
 0001:000ad320       ?CreateInstance@idBrittleFracture@@SAPAVidClass@@XZ 200ae320 f   BrittleFracture.obj
 0001:000ad3c0       ?GetClassType@idBrittleFracture@@SAAAVidTypeInfo@@XZ 200ae3c0 f   BrittleFracture.obj
 0001:000ad3d0       ?GetType@idBrittleFracture@@UBEPAVidTypeInfo@@XZ 200ae3d0 f   BrittleFracture.obj
 0001:000ad3e0       ??0idBrittleFracture@@QAE@XZ 200ae3e0 f   BrittleFracture.obj
 0001:000ad590       ??1idBrittleFracture@@UAE@XZ 200ae590 f   BrittleFracture.obj
 0001:000ad8c0       ?Save@idBrittleFracture@@QBEXPAVidSaveGame@@@Z 200ae8c0 f   BrittleFracture.obj
 0001:000adc30       ?Restore@idBrittleFracture@@QAEXPAVidRestoreGame@@@Z 200aec30 f   BrittleFracture.obj
 0001:000ae5b0       ?Spawn@idBrittleFracture@@QAEXXZ 200af5b0 f   BrittleFracture.obj
 0001:000ae910       ?Present@idBrittleFracture@@UAEXXZ 200af910 f   BrittleFracture.obj
 0001:000aea60       ?Think@idBrittleFracture@@UAEXXZ 200afa60 f   BrittleFracture.obj
 0001:000aed20       ?ApplyImpulse@idBrittleFracture@@UAEXPAVidEntity@@HABVidVec3@@1_N@Z 200afd20 f   BrittleFracture.obj
 0001:000aed90       ?AddForce@idBrittleFracture@@UAEXPAVidEntity@@HABVidVec3@@1@Z 200afd90 f   BrittleFracture.obj
 0001:000aee00       ?AddDamageEffect@idBrittleFracture@@UAEXABUtrace_t@@ABVidVec3@@PBDPAVidEntity@@@Z 200afe00 f   BrittleFracture.obj
 0001:000aee30       ?Killed@idBrittleFracture@@UAEXPAVidEntity@@0HABVidVec3@@H@Z 200afe30 f   BrittleFracture.obj
 0001:000aee50       ?ProjectDecal@idBrittleFracture@@QAEXABVidVec3@@0HPBD@Z 200afe50 f   BrittleFracture.obj
 0001:000af8b0       ?IsBroken@idBrittleFracture@@QBE_NXZ 200b08b0 f   BrittleFracture.obj
 0001:000af8c0       ?ClientPredictionThink@idBrittleFracture@@UAEXXZ 200b08c0 f   BrittleFracture.obj
 0001:000af8d0       ?ClientReceiveEvent@idBrittleFracture@@UAE_NHHABVidBitMsg@@@Z 200b08d0 f   BrittleFracture.obj
 0001:000af9e0       ?UpdateRenderEntity@idBrittleFracture@@ABE_NPAUrenderEntity_s@@PBUrenderView_s@@@Z 200b09e0 f   BrittleFracture.obj
 0001:000b07b0       ?ModelCallback@idBrittleFracture@@CA_NPAUrenderEntity_s@@PBUrenderView_s@@@Z 200b17b0 f   BrittleFracture.obj
 0001:000b07f0       ?AddShard@idBrittleFracture@@AAEXPAVidClipModel@@AAVidFixedWinding@@@Z 200b17f0 f   BrittleFracture.obj
 0001:000b0dd0       ?RemoveShard@idBrittleFracture@@AAEXH@Z 200b1dd0 f   BrittleFracture.obj
 0001:000b0e70       ?DropShard@idBrittleFracture@@AAEXPAUshard_s@@ABVidVec3@@1MH@Z 200b1e70 f   BrittleFracture.obj
 0001:000b1480       ?Shatter@idBrittleFracture@@AAEXABVidVec3@@0H@Z 200b2480 f   BrittleFracture.obj
 0001:000b1780       ?DropFloatingIslands@idBrittleFracture@@AAEXABVidVec3@@0H@Z 200b2780 f   BrittleFracture.obj
 0001:000b19f0       ?Break@idBrittleFracture@@AAEXXZ 200b29f0 f   BrittleFracture.obj
 0001:000b1a10       ?Fracture_r@idBrittleFracture@@AAEXAAVidFixedWinding@@@Z 200b2a10 f   BrittleFracture.obj
 0001:000b2070       ?CreateFractures@idBrittleFracture@@AAEXPBVidRenderModel@@@Z 200b3070 f   BrittleFracture.obj
 0001:000b22e0       ?FindNeighbours@idBrittleFracture@@AAEXXZ 200b32e0 f   BrittleFracture.obj
 0001:000b2fa0       ?Event_Activate@idBrittleFracture@@AAEXPAVidEntity@@@Z 200b3fa0 f   BrittleFracture.obj
 0001:000b2fc0       ?Event_Touch@idBrittleFracture@@AAEXPAVidEntity@@PAUtrace_t@@@Z 200b3fc0 f   BrittleFracture.obj
 0001:000b3090       ?Register_idBrittleFracture@@YAXXZ 200b4090 f   BrittleFracture.obj
 0001:000b30a0       ??0shard_s@@QAE@XZ         200b40a0 f i BrittleFracture.obj
 0001:000b3180       ??1idFixedWinding@@UAE@XZ  200b4180 f i BrittleFracture.obj
 0001:000b31f0       ??_EidBrittleFracture@@UAEPAXI@Z 200b41f0 f i BrittleFracture.obj
 0001:000b31f0       ??_GidBrittleFracture@@UAEPAXI@Z 200b41f0 f i BrittleFracture.obj
 0001:000b3230       ??_EidFixedWinding@@UAEPAXI@Z 200b4230 f i BrittleFracture.obj
 0001:000b3230       ??_GidFixedWinding@@UAEPAXI@Z 200b4230 f i BrittleFracture.obj
 0001:000b32c0       ??_Gshard_s@@QAEPAXI@Z     200b42c0 f i BrittleFracture.obj
 0001:000b3450       ?Clear@idFixedWinding@@UAEXXZ 200b4450 f i BrittleFracture.obj
 0001:000b3480       ?RegisterClassA@idCamera@@SAXXZ 200b4480 f   Camera.obj
 0001:000b3540       ?CreateInstance@idCamera@@SAPAVidClass@@XZ 200b4540 f   Camera.obj
 0001:000b3560       ?GetClassType@idCamera@@SAAAVidTypeInfo@@XZ 200b4560 f   Camera.obj
 0001:000b3570       ?GetType@idCamera@@UBEPAVidTypeInfo@@XZ 200b4570 f   Camera.obj
 0001:000b3580       ?Spawn@idCamera@@QAEXXZ    200b4580 f   Camera.obj
 0001:000b3590       ?GetRenderView@idCamera@@UAEPAUrenderView_s@@XZ 200b4590 f   Camera.obj
 0001:000b35b0       ?RegisterClassA@idCameraView@@SAXXZ 200b45b0 f   Camera.obj
 0001:000b3670       ?CreateInstance@idCameraView@@SAPAVidClass@@XZ 200b4670 f   Camera.obj
 0001:000b3710       ?GetClassType@idCameraView@@SAAAVidTypeInfo@@XZ 200b4710 f   Camera.obj
 0001:000b3720       ?GetType@idCameraView@@UBEPAVidTypeInfo@@XZ 200b4720 f   Camera.obj
 0001:000b3730       ??0idCameraView@@QAE@XZ    200b4730 f   Camera.obj
 0001:000b3800       ?Save@idCameraView@@QBEXPAVidSaveGame@@@Z 200b4800 f   Camera.obj
 0001:000b3880       ?Restore@idCameraView@@QAEXPAVidRestoreGame@@@Z 200b4880 f   Camera.obj
 0001:000b3920       ?Spawn@idCameraView@@QAEXXZ 200b4920 f   Camera.obj
 0001:000b3a80       ?GetViewParms@idCameraView@@UAEXPAUrenderView_s@@@Z 200b4a80 f   Camera.obj
 0001:000b3c40       ?Stop@idCameraView@@UAEXXZ 200b4c40 f   Camera.obj
 0001:000b3ca0       ?Event_Activate@idCameraView@@IAEXPAVidEntity@@@Z 200b4ca0 f   Camera.obj
 0001:000b3d50       ?Event_SetAttachments@idCameraView@@IAEXXZ 200b4d50 f   Camera.obj
 0001:000b3d80       ?SetAttachment@idCameraView@@IAEXPAPAVidEntity@@PBD@Z 200b4d80 f   Camera.obj
 0001:000b3dd0       ?Event_SetFOV@idCameraView@@IAEXM@Z 200b4dd0 f   Camera.obj
 0001:000b3e30       ?Event_BlendFOV@idCameraView@@IAEXMMM@Z 200b4e30 f   Camera.obj
 0001:000b3eb0       ?Event_GetFOV@idCameraView@@IAEXXZ 200b4eb0 f   Camera.obj
 0001:000b3ee0       ??0rvCameraAnimation@@QAE@XZ 200b4ee0 f   Camera.obj
 0001:000b3fa0       ??0rvCameraAnimation@@QAE@PBVidDeclCameraDef@@PBV0@@Z 200b4fa0 f   Camera.obj
 0001:000b44a0       ??1rvCameraAnimation@@QAE@XZ 200b54a0 f   Camera.obj
 0001:000b4630       ?SetAnim@rvCameraAnimation@@QAEXPBVidDeclCameraDef@@PBD1VidStr@@@Z 200b5630 f   Camera.obj
 0001:000b4c40       ?Name@rvCameraAnimation@@QBEPBDXZ 200b5c40 f   Camera.obj
 0001:000b4c50       ?FullName@rvCameraAnimation@@QBEPBDXZ 200b5c50 f   Camera.obj
 0001:000b4c60       ?NumFrames@rvCameraAnimation@@QBEHXZ 200b5c60 f   Camera.obj
 0001:000b4c70       ?NumCuts@rvCameraAnimation@@QBEHXZ 200b5c70 f   Camera.obj
 0001:000b4c80       ?AddFrameCommand@rvCameraAnimation@@QAEPBDPBVidDeclCameraDef@@ABV?$idList@H@@AAVidLexer@@PBVidDict@@@Z 200b5c80 f   Camera.obj
 0001:000b6e60       ?CallFrameCommands@rvCameraAnimation@@QBEXPAVidEntity@@HH@Z 200b7e60 f   Camera.obj
 0001:000b73d0       ?CallFrameCommandSound@rvCameraAnimation@@QBEXABUframeCommand_t@@PAVidEntity@@H@Z 200b83d0 f   Camera.obj
 0001:000b7410       ??0idDeclCameraDef@@QAE@XZ 200b8410 f   Camera.obj
 0001:000b7450       ??1idDeclCameraDef@@UAE@XZ 200b8450 f   Camera.obj
 0001:000b74e0       ?Size@idDeclCameraDef@@UBEIXZ 200b84e0 f   Camera.obj
 0001:000b74f0       ?DefaultDefinition@idDeclCameraDef@@UBEPBDXZ 200b84f0 f   Camera.obj
 0001:000b7500       ?Parse@idDeclCameraDef@@UAE_NPBDH_N@Z 200b8500 f   Camera.obj
 0001:000b78d0       ?FreeData@idDeclCameraDef@@UAEXXZ 200b88d0 f   Camera.obj
 0001:000b79b0       ?Validate@idDeclCameraDef@@UBE_NPBDHAAVidStr@@@Z 200b89b0 f   Camera.obj
 0001:000b7a00       ?Touch@idDeclCameraDef@@QBEXXZ 200b8a00 f   Camera.obj
 0001:000b7a10       ?NumAnims@idDeclCameraDef@@QBEHXZ 200b8a10 f   Camera.obj
 0001:000b7a20       ?GetSpecificAnim@idDeclCameraDef@@QBEHPBD@Z 200b8a20 f   Camera.obj
 0001:000b7a70       ?GetAnim@idDeclCameraDef@@QBEHPBD@Z 200b8a70 f   Camera.obj
 0001:000b7b20       ?HasAnim@idDeclCameraDef@@QBE_NPBD@Z 200b8b20 f   Camera.obj
 0001:000b7b70       ?CopyDecl@idDeclCameraDef@@AAEXPBV1@@Z 200b8b70 f   Camera.obj
 0001:000b7d40       ?ParseAnim@idDeclCameraDef@@AAE_NAAVidLexer@@H@Z 200b8d40 f   Camera.obj
 0001:000b8570       ?RegisterClassA@idCameraAnim@@SAXXZ 200b9570 f   Camera.obj
 0001:000b8630       ?CreateInstance@idCameraAnim@@SAPAVidClass@@XZ 200b9630 f   Camera.obj
 0001:000b86d0       ?GetClassType@idCameraAnim@@SAAAVidTypeInfo@@XZ 200b96d0 f   Camera.obj
 0001:000b86e0       ?GetType@idCameraAnim@@UBEPAVidTypeInfo@@XZ 200b96e0 f   Camera.obj
 0001:000b86f0       ??0idCameraAnim@@QAE@XZ    200b96f0 f   Camera.obj
 0001:000b87c0       ??1idCameraAnim@@UAE@XZ    200b97c0 f   Camera.obj
 0001:000b88d0       ?Save@idCameraAnim@@QBEXPAVidSaveGame@@@Z 200b98d0 f   Camera.obj
 0001:000b8930       ?Restore@idCameraAnim@@QAEXPAVidRestoreGame@@@Z 200b9930 f   Camera.obj
 0001:000b89a0       ?Spawn@idCameraAnim@@QAEXXZ 200b99a0 f   Camera.obj
 0001:000b8bf0       ?GetViewParms@idCameraAnim@@UAEXPAUrenderView_s@@@Z 200b9bf0 f   Camera.obj
 0001:000b9470       ?Start@idCameraAnim@@AAEXXZ 200ba470 f   Camera.obj
 0001:000b9580       ?Stop@idCameraAnim@@EAEXXZ 200ba580 f   Camera.obj
 0001:000b9660       ?Think@idCameraAnim@@EAEXXZ 200ba660 f   Camera.obj
 0001:000b97b0       ?LoadAnim@idCameraAnim@@AAEXXZ 200ba7b0 f   Camera.obj
 0001:000b98c0       ?Event_Start@idCameraAnim@@AAEXXZ 200ba8c0 f   Camera.obj
 0001:000b98d0       ?Event_Stop@idCameraAnim@@AAEXXZ 200ba8d0 f   Camera.obj
 0001:000b98e0       ?Event_SetCallback@idCameraAnim@@AAEXXZ 200ba8e0 f   Camera.obj
 0001:000b9930       ?Event_Activate@idCameraAnim@@AAEXPAVidEntity@@@Z 200ba930 f   Camera.obj
 0001:000b9980       ?Event_IsActive@idCameraAnim@@AAEXXZ 200ba980 f   Camera.obj
 0001:000b99c0       ?RegisterClassA@rvCameraPortalSky@@SAXXZ 200ba9c0 f   Camera.obj
 0001:000b9a80       ?CreateInstance@rvCameraPortalSky@@SAPAVidClass@@XZ 200baa80 f   Camera.obj
 0001:000b9b30       ?GetClassType@rvCameraPortalSky@@SAAAVidTypeInfo@@XZ 200bab30 f   Camera.obj
 0001:000b9b40       ?GetType@rvCameraPortalSky@@UBEPAVidTypeInfo@@XZ 200bab40 f   Camera.obj
 0001:000b9b50       ?Save@rvCameraPortalSky@@QBEXPAVidSaveGame@@@Z 200bab50 f   Camera.obj
 0001:000b9b60       ?Restore@rvCameraPortalSky@@QAEXPAVidRestoreGame@@@Z 200bab60 f   Camera.obj
 0001:000b9b70       ?Spawn@rvCameraPortalSky@@QAEXXZ 200bab70 f   Camera.obj
 0001:000b9ba0       ?GetViewParms@rvCameraPortalSky@@UAEXPAUrenderView_s@@@Z 200baba0 f   Camera.obj
 0001:000b9be0       ?RegisterClassA@rvCameraPlayback@@SAXXZ 200babe0 f   Camera.obj
 0001:000b9ca0       ?CreateInstance@rvCameraPlayback@@SAPAVidClass@@XZ 200baca0 f   Camera.obj
 0001:000b9d50       ?GetClassType@rvCameraPlayback@@SAAAVidTypeInfo@@XZ 200bad50 f   Camera.obj
 0001:000b9d60       ?GetType@rvCameraPlayback@@UBEPAVidTypeInfo@@XZ 200bad60 f   Camera.obj
 0001:000b9d70       ?Save@rvCameraPlayback@@QBEXPAVidSaveGame@@@Z 200bad70 f   Camera.obj
 0001:000b9d80       ?Restore@rvCameraPlayback@@QAEXPAVidRestoreGame@@@Z 200bad80 f   Camera.obj
 0001:000b9d90       ?Spawn@rvCameraPlayback@@QAEXXZ 200bad90 f   Camera.obj
 0001:000b9dc0       ?GetViewParms@rvCameraPlayback@@UAEXPAUrenderView_s@@@Z 200badc0 f   Camera.obj
 0001:000b9f10       ?Register_idCamera@@YAXXZ  200baf10 f   Camera.obj
 0001:000b9f20       ?Register_idCameraView@@YAXXZ 200baf20 f   Camera.obj
 0001:000b9f30       ?Register_idCameraAnim@@YAXXZ 200baf30 f   Camera.obj
 0001:000b9f40       ?Register_rvCameraPortalSky@@YAXXZ 200baf40 f   Camera.obj
 0001:000b9f50       ?Register_rvCameraPlayback@@YAXXZ 200baf50 f   Camera.obj
 0001:000b9f60       ??1?$idInterpolate@M@@UAE@XZ 200baf60 f i Camera.obj
 0001:000b9f70       ??_E?$idInterpolate@M@@UAEPAXI@Z 200baf70 f i Camera.obj
 0001:000b9f70       ??_G?$idInterpolate@M@@UAEPAXI@Z 200baf70 f i Camera.obj
 0001:000b9fa0       ??_EidCameraAnim@@UAEPAXI@Z 200bafa0 f i Camera.obj
 0001:000b9fa0       ??_GidCameraAnim@@UAEPAXI@Z 200bafa0 f i Camera.obj
 0001:000b9fe0       ??_EidCameraView@@UAEPAXI@Z 200bafe0 f i Camera.obj
 0001:000b9fe0       ??_GidCameraView@@UAEPAXI@Z 200bafe0 f i Camera.obj
 0001:000ba030       ??_EidDeclCameraDef@@UAEPAXI@Z 200bb030 f i Camera.obj
 0001:000ba030       ??_GidDeclCameraDef@@UAEPAXI@Z 200bb030 f i Camera.obj
 0001:000ba060       ??_ErvCameraPlayback@@UAEPAXI@Z 200bb060 f i Camera.obj
 0001:000ba060       ??_GrvCameraPlayback@@UAEPAXI@Z 200bb060 f i Camera.obj
 0001:000ba0b0       ??_ErvCameraPortalSky@@UAEPAXI@Z 200bb0b0 f i Camera.obj
 0001:000ba0b0       ??_GrvCameraPortalSky@@UAEPAXI@Z 200bb0b0 f i Camera.obj
 0001:000ba100       ?GetCurrentValue@?$idInterpolate@M@@UBEMM@Z 200bb100 f i Camera.obj
 0001:000ba170       ?GetDeltaValue@?$idInterpolate@M@@UBEMMM@Z 200bb170 f i Camera.obj
 0001:000ba1b0       ?RegisterClassA@rvClientAFEntity@@SAXXZ 200bb1b0 f   ClientAFEntity.obj
 0001:000ba270       ?CreateInstance@rvClientAFEntity@@SAPAVidClass@@XZ 200bb270 f   ClientAFEntity.obj
 0001:000ba310       ?GetClassType@rvClientAFEntity@@SAAAVidTypeInfo@@XZ 200bb310 f   ClientAFEntity.obj
 0001:000ba320       ?GetType@rvClientAFEntity@@UBEPAVidTypeInfo@@XZ 200bb320 f   ClientAFEntity.obj
 0001:000ba330       ??0rvClientAFEntity@@QAE@XZ 200bb330 f   ClientAFEntity.obj
 0001:000ba450       ??1rvClientAFEntity@@UAE@XZ 200bb450 f   ClientAFEntity.obj
 0001:000ba4a0       ?Spawn@rvClientAFEntity@@QAEXXZ 200bb4a0 f   ClientAFEntity.obj
 0001:000ba540       ?Think@rvClientAFEntity@@UAEXXZ 200bb540 f   ClientAFEntity.obj
 0001:000ba560       ?GetImpactInfo@rvClientAFEntity@@UAEXPAVidEntity@@HABVidVec3@@PAUimpactInfo_s@@@Z 200bb560 f   ClientAFEntity.obj
 0001:000ba580       ?ApplyImpulse@rvClientAFEntity@@UAEXPAVidEntity@@HABVidVec3@@1_N@Z 200bb580 f   ClientAFEntity.obj
 0001:000ba5e0       ?AddForce@rvClientAFEntity@@UAEXPAVidEntity@@HABVidVec3@@1@Z 200bb5e0 f   ClientAFEntity.obj
 0001:000ba640       ?CanPlayImpactEffect@rvClientAFEntity@@UAE_NPAVidEntity@@0@Z 200bb640 f   ClientAFEntity.obj
 0001:000ba650       ?Collide@rvClientAFEntity@@UAE_NABUtrace_t@@ABVidVec3@@@Z 200bb650 f   ClientAFEntity.obj
 0001:000ba720       ?GetPhysicsToVisualTransform@rvClientAFEntity@@UAE_NAAVidVec3@@AAVidMat3@@@Z 200bb720 f   ClientAFEntity.obj
 0001:000ba750       ?UpdateAnimationControllers@rvClientAFEntity@@UAE_NXZ 200bb750 f   ClientAFEntity.obj
 0001:000ba770       ?FreeEntityDef@rvClientAFEntity@@UAEXXZ 200bb770 f   ClientAFEntity.obj
 0001:000ba780       ?LoadAF@rvClientAFEntity@@UAE_NPBD@Z 200bb780 f   ClientAFEntity.obj
 0001:000ba9e0       ?SetCombatModel@rvClientAFEntity@@QAEXXZ 200bb9e0 f   ClientAFEntity.obj
 0001:000baa90       ?GetCombatModel@rvClientAFEntity@@QBEPAVidClipModel@@XZ 200bba90 f   ClientAFEntity.obj
 0001:000baaa0       ?SetCombatContents@rvClientAFEntity@@QAEX_N@Z 200bbaa0 f   ClientAFEntity.obj
 0001:000bab00       ?LinkCombat@rvClientAFEntity@@UAEXXZ 200bbb00 f   ClientAFEntity.obj
 0001:000bab30       ?UnlinkCombat@rvClientAFEntity@@UAEXXZ 200bbb30 f   ClientAFEntity.obj
 0001:000bab40       ?BodyForClipModelId@rvClientAFEntity@@QBEHH@Z 200bbb40 f   ClientAFEntity.obj
 0001:000bab50       ?SaveState@rvClientAFEntity@@QBEXAAVidDict@@@Z 200bbb50 f   ClientAFEntity.obj
 0001:000bac20       ?LoadState@rvClientAFEntity@@QAEXABVidDict@@@Z 200bbc20 f   ClientAFEntity.obj
 0001:000bac30       ?AddBindConstraints@rvClientAFEntity@@QAEXXZ 200bbc30 f   ClientAFEntity.obj
 0001:000bac40       ?RemoveBindConstraints@rvClientAFEntity@@QAEXXZ 200bbc40 f   ClientAFEntity.obj
 0001:000bac50       ?GetNoPlayerImpactFX@rvClientAFEntity@@QAE_NXZ 200bbc50 f   ClientAFEntity.obj
 0001:000bac60       ?RegisterClassA@rvClientAFAttachment@@SAXXZ 200bbc60 f   ClientAFEntity.obj
 0001:000bad20       ?CreateInstance@rvClientAFAttachment@@SAPAVidClass@@XZ 200bbd20 f   ClientAFEntity.obj
 0001:000badc0       ?GetClassType@rvClientAFAttachment@@SAAAVidTypeInfo@@XZ 200bbdc0 f   ClientAFEntity.obj
 0001:000badd0       ?GetType@rvClientAFAttachment@@UBEPAVidTypeInfo@@XZ 200bbdd0 f   ClientAFEntity.obj
 0001:000bade0       ??0rvClientAFAttachment@@QAE@XZ 200bbde0 f   ClientAFEntity.obj
 0001:000bae60       ??1rvClientAFAttachment@@UAE@XZ 200bbe60 f   ClientAFEntity.obj
 0001:000baf20       ?Spawn@rvClientAFAttachment@@QAEXXZ 200bbf20 f   ClientAFEntity.obj
 0001:000baf40       ?SetBody@rvClientAFAttachment@@QAEXPAVidAnimatedEntity@@PBDW4jointHandle_t@@@Z 200bbf40 f   ClientAFEntity.obj
 0001:000baff0       ?ClearBody@rvClientAFAttachment@@QAEXXZ 200bbff0 f   ClientAFEntity.obj
 0001:000bb010       ?GetBody@rvClientAFAttachment@@QBEPAVidEntity@@XZ 200bc010 f   ClientAFEntity.obj
 0001:000bb040       ?Think@rvClientAFAttachment@@UAEXXZ 200bc040 f   ClientAFEntity.obj
 0001:000bb050       ?Hide@rvClientAFAttachment@@UAEXXZ 200bc050 f   ClientAFEntity.obj
 0001:000bb060       ?Show@rvClientAFAttachment@@UAEXXZ 200bc060 f   ClientAFEntity.obj
 0001:000bb070       ?UpdateAnimationControllers@rvClientAFAttachment@@UAE_NXZ 200bc070 f   ClientAFEntity.obj
 0001:000bb080       ?PlayIdleAnim@rvClientAFAttachment@@QAEXHH@Z 200bc080 f   ClientAFEntity.obj
 0001:000bb0d0       ?GetImpactInfo@rvClientAFAttachment@@UAEXPAVidEntity@@HABVidVec3@@PAUimpactInfo_s@@@Z 200bc0d0 f   ClientAFEntity.obj
 0001:000bb110       ?ApplyImpulse@rvClientAFAttachment@@UAEXPAVidEntity@@HABVidVec3@@1_N@Z 200bc110 f   ClientAFEntity.obj
 0001:000bb180       ?AddForce@rvClientAFAttachment@@UAEXPAVidEntity@@HABVidVec3@@1@Z 200bc180 f   ClientAFEntity.obj
 0001:000bb1f0       ?CanPlayImpactEffect@rvClientAFAttachment@@UAE_NPAVidEntity@@0@Z 200bc1f0 f   ClientAFEntity.obj
 0001:000bb200       ?AddDamageEffect@rvClientAFAttachment@@UAEXABUtrace_t@@ABVidVec3@@PBDPAVidEntity@@@Z 200bc200 f   ClientAFEntity.obj
 0001:000bb270       ?SetCombatModel@rvClientAFAttachment@@QAEXXZ 200bc270 f   ClientAFEntity.obj
 0001:000bb350       ?GetCombatModel@rvClientAFAttachment@@QBEPAVidClipModel@@XZ 200bc350 f   ClientAFEntity.obj
 0001:000bb360       ?LinkCombat@rvClientAFAttachment@@UAEXXZ 200bc360 f   ClientAFEntity.obj
 0001:000bb390       ?UnlinkCombat@rvClientAFAttachment@@UAEXXZ 200bc390 f   ClientAFEntity.obj
 0001:000bb3a0       ?InitCopyJoints@rvClientAFAttachment@@QAEXXZ 200bc3a0 f   ClientAFEntity.obj
 0001:000bb7e0       ?CopyJointsFromBody@rvClientAFAttachment@@QAEXXZ 200bc7e0 f   ClientAFEntity.obj
 0001:000bbbb0       ?Register_rvClientAFEntity@@YAXXZ 200bcbb0 f   ClientAFEntity.obj
 0001:000bbbc0       ?Register_rvClientAFAttachment@@YAXXZ 200bcbc0 f   ClientAFEntity.obj
 0001:000bbbd0       ??_ErvClientAFAttachment@@UAEPAXI@Z 200bcbd0 f i ClientAFEntity.obj
 0001:000bbbd0       ??_GrvClientAFAttachment@@UAEPAXI@Z 200bcbd0 f i ClientAFEntity.obj
 0001:000bbc10       ??_ErvClientAFEntity@@UAEPAXI@Z 200bcc10 f i ClientAFEntity.obj
 0001:000bbc10       ??_GrvClientAFEntity@@UAEPAXI@Z 200bcc10 f i ClientAFEntity.obj
 0001:000bbc50       ?GetAnimator@rvAnimatedClientEntity@@UAEPAVidAnimator@@XZ 200bcc50 f i ClientAFEntity.obj
 0001:000bbc50       ?GetAnimator@rvAnimatedClientEntity@@UBEPBVidAnimator@@XZ 200bcc50 f i ClientAFEntity.obj
 0001:000bbc60       ?GetRenderEntity@rvClientModel@@UAEPAUrenderEntity_s@@XZ 200bcc60 f i ClientAFEntity.obj
 0001:000bbc70       ?RegisterClassA@rvClientEffect@@SAXXZ 200bcc70 f   ClientEffect.obj
 0001:000bbd30       ?CreateInstance@rvClientEffect@@SAPAVidClass@@XZ 200bcd30 f   ClientEffect.obj
 0001:000bbdd0       ?GetClassType@rvClientEffect@@SAAAVidTypeInfo@@XZ 200bcdd0 f   ClientEffect.obj
 0001:000bbde0       ?GetType@rvClientEffect@@UBEPAVidTypeInfo@@XZ 200bcde0 f   ClientEffect.obj
 0001:000bbdf0       ??0rvClientEffect@@QAE@XZ  200bcdf0 f   ClientEffect.obj
 0001:000bbe50       ??0rvClientEffect@@QAE@PBVidDecl@@@Z 200bce50 f   ClientEffect.obj
 0001:000bbeb0       ??1rvClientEffect@@UAE@XZ  200bceb0 f   ClientEffect.obj
 0001:000bbf10       ?Think@rvClientEffect@@UAEXXZ 200bcf10 f   ClientEffect.obj
 0001:000bc090       ?DrawDebugInfo@rvClientEffect@@UBEXXZ 200bd090 f   ClientEffect.obj
 0001:000bc160       ?FreeEntityDef@rvClientEffect@@UAEXXZ 200bd160 f   ClientEffect.obj
 0001:000bc170       ?UpdateBind@rvClientEffect@@UAEXXZ 200bd170 f   ClientEffect.obj
 0001:000bc430       ?Play@rvClientEffect@@QAE_NH_NABVidVec3@@@Z 200bd430 f   ClientEffect.obj
 0001:000bc560       ?Stop@rvClientEffect@@QAEX_N@Z 200bd560 f   ClientEffect.obj
 0001:000bc5e0       ?Restart@rvClientEffect@@QAEXXZ 200bd5e0 f   ClientEffect.obj
 0001:000bc610       ?GetEffectIndex@rvClientEffect@@QAEHXZ 200bd610 f   ClientEffect.obj
 0001:000bc630       ?GetEffectName@rvClientEffect@@QAEPBDXZ 200bd630 f   ClientEffect.obj
 0001:000bc650       ?Attenuate@rvClientEffect@@QAEXM@Z 200bd650 f   ClientEffect.obj
 0001:000bc670       ?GetDuration@rvClientEffect@@QBEMXZ 200bd670 f   ClientEffect.obj
 0001:000bc6a0       ?Save@rvClientEffect@@QBEXPAVidSaveGame@@@Z 200bd6a0 f   ClientEffect.obj
 0001:000bc6d0       ?Restore@rvClientEffect@@QAEXPAVidRestoreGame@@@Z 200bd6d0 f   ClientEffect.obj
 0001:000bc710       ?Init@rvClientEffect@@IAEXPBVidDecl@@@Z 200bd710 f   ClientEffect.obj
 0001:000bc760       ?FreeEffectDef@rvClientEffect@@IAEXXZ 200bd760 f   ClientEffect.obj
 0001:000bc790       ?RegisterClassA@rvClientCrawlEffect@@SAXXZ 200bd790 f   ClientEffect.obj
 0001:000bc850       ?CreateInstance@rvClientCrawlEffect@@SAPAVidClass@@XZ 200bd850 f   ClientEffect.obj
 0001:000bc8f0       ?GetClassType@rvClientCrawlEffect@@SAAAVidTypeInfo@@XZ 200bd8f0 f   ClientEffect.obj
 0001:000bc900       ?GetType@rvClientCrawlEffect@@UBEPAVidTypeInfo@@XZ 200bd900 f   ClientEffect.obj
 0001:000bc910       ??0rvClientCrawlEffect@@QAE@XZ 200bd910 f   ClientEffect.obj
 0001:000bc960       ??0rvClientCrawlEffect@@QAE@PBVidDecl@@PAVidEntity@@HPAV?$idList@W4jointHandle_t@@@@@Z 200bd960 f   ClientEffect.obj
 0001:000bd020       ?Think@rvClientCrawlEffect@@UAEXXZ 200be020 f   ClientEffect.obj
 0001:000bd2a0       ?Save@rvClientCrawlEffect@@QBEXPAVidSaveGame@@@Z 200be2a0 f   ClientEffect.obj
 0001:000bd340       ?Restore@rvClientCrawlEffect@@QAEXPAVidRestoreGame@@@Z 200be340 f   ClientEffect.obj
 0001:000bd540       ?Register_rvClientEffect@@YAXXZ 200be540 f   ClientEffect.obj
 0001:000bd550       ?Register_rvClientCrawlEffect@@YAXXZ 200be550 f   ClientEffect.obj
 0001:000bd560       ??_ErvClientCrawlEffect@@UAEPAXI@Z 200be560 f i ClientEffect.obj
 0001:000bd560       ??_GrvClientCrawlEffect@@UAEPAXI@Z 200be560 f i ClientEffect.obj
 0001:000bd630       ??_ErvClientEffect@@UAEPAXI@Z 200be630 f i ClientEffect.obj
 0001:000bd630       ??_GrvClientEffect@@UAEPAXI@Z 200be630 f i ClientEffect.obj
 0001:000bd670       ?RegisterClassA@rvClientEntity@@SAXXZ 200be670 f   ClientEntity.obj
 0001:000bd730       ?CreateInstance@rvClientEntity@@SAPAVidClass@@XZ 200be730 f   ClientEntity.obj
 0001:000bd750       ?GetClassType@rvClientEntity@@SAAAVidTypeInfo@@XZ 200be750 f   ClientEntity.obj
 0001:000bd760       ?GetType@rvClientEntity@@UBEPAVidTypeInfo@@XZ 200be760 f   ClientEntity.obj
 0001:000bd770       ??0rvClientEntity@@QAE@XZ  200be770 f   ClientEntity.obj
 0001:000bda30       ??1rvClientEntity@@UAE@XZ  200bea30 f   ClientEntity.obj
 0001:000bdb20       ?Spawn@rvClientEntity@@QAEXXZ 200beb20 f   ClientEntity.obj
 0001:000bdbd0       ?Present@rvClientEntity@@UAEXXZ 200bebd0 f   ClientEntity.obj
 0001:000bdbe0       ?Think@rvClientEntity@@UAEXXZ 200bebe0 f   ClientEntity.obj
 0001:000bdc00       ?GetPhysics@rvClientEntity@@UBEPAVidPhysics@@XZ 200bec00 f   ClientEntity.obj
 0001:000bdc10       ?Collide@rvClientEntity@@UAE_NABUtrace_t@@ABVidVec3@@@Z 200bec10 f   ClientEntity.obj
 0001:000bdc20       ?SetOrigin@rvClientEntity@@QAEXABVidVec3@@@Z 200bec20 f   ClientEntity.obj
 0001:000bdc90       ?SetAxis@rvClientEntity@@QAEXABVidMat3@@@Z 200bec90 f   ClientEntity.obj
 0001:000bdf20       ?Bind@rvClientEntity@@QAEXPAVidEntity@@W4jointHandle_t@@_N@Z 200bef20 f   ClientEntity.obj
 0001:000be0b0       ?Unbind@rvClientEntity@@QAEXXZ 200bf0b0 f   ClientEntity.obj
 0001:000be0f0       ?IsClient@rvClientEntity@@UBE_NXZ 200bf0f0 f   ClientEntity.obj
 0001:000be100       ?DrawDebugInfo@rvClientEntity@@UBEXXZ 200bf100 f   ClientEntity.obj
 0001:000be1b0       ?SetSoundVolume@rvClientEntity@@QAEXM@Z 200bf1b0 f   ClientEntity.obj
 0001:000be1d0       ?StartSound@rvClientEntity@@QAE_NPBDHH_NPAH@Z 200bf1d0 f   ClientEntity.obj
 0001:000be310       ?StartSoundShader@rvClientEntity@@QAEHPBVidSoundShader@@HH@Z 200bf310 f   ClientEntity.obj
 0001:000be3e0       ?Size@rvClientEntity@@UBEIXZ 200bf3e0 f   ClientEntity.obj
 0001:000be3f0       ?FreeEntityDef@rvClientEntity@@UAEXXZ 200bf3f0 f   ClientEntity.obj
 0001:000be400       ?Save@rvClientEntity@@QBEXPAVidSaveGame@@@Z 200bf400 f   ClientEntity.obj
 0001:000be490       ?Restore@rvClientEntity@@QAEXPAVidRestoreGame@@@Z 200bf490 f   ClientEntity.obj
 0001:000be520       ?GetImpactInfo@rvClientEntity@@UAEXPAVidEntity@@HABVidVec3@@PAUimpactInfo_s@@@Z 200bf520 f   ClientEntity.obj
 0001:000be540       ?ApplyImpulse@rvClientEntity@@UAEXPAVidEntity@@HABVidVec3@@1_N@Z 200bf540 f   ClientEntity.obj
 0001:000be560       ?AddForce@rvClientEntity@@UAEXPAVidEntity@@HABVidVec3@@1@Z 200bf560 f   ClientEntity.obj
 0001:000be580       ?UpdateAnimationControllers@rvClientEntity@@UAE_NXZ 200bf580 f   ClientEntity.obj
 0001:000be590       ?InitDefaultPhysics@rvClientEntity@@QAEXABVidVec3@@ABVidMat3@@@Z 200bf590 f   ClientEntity.obj
 0001:000bea50       ?RunPhysics@rvClientEntity@@IAEXXZ 200bfa50 f   ClientEntity.obj
 0001:000bec10       ?UpdateBind@rvClientEntity@@MAEXXZ 200bfc10 f   ClientEntity.obj
 0001:000bef40       ?UpdateSound@rvClientEntity@@IAEXXZ 200bff40 f   ClientEntity.obj
 0001:000befd0       ?RegisterClassA@rvClientPhysics@@SAXXZ 200bffd0 f   ClientEntity.obj
 0001:000bf090       ?CreateInstance@rvClientPhysics@@SAPAVidClass@@XZ 200c0090 f   ClientEntity.obj
 0001:000bf140       ?GetClassType@rvClientPhysics@@SAAAVidTypeInfo@@XZ 200c0140 f   ClientEntity.obj
 0001:000bf150       ?GetType@rvClientPhysics@@UBEPAVidTypeInfo@@XZ 200c0150 f   ClientEntity.obj
 0001:000bf160       ?Spawn@rvClientPhysics@@QAEXXZ 200c0160 f   ClientEntity.obj
 0001:000bf170       ?Collide@rvClientPhysics@@UAE_NABUtrace_t@@ABVidVec3@@@Z 200c0170 f   ClientEntity.obj
 0001:000bf1a0       ?PushBindInfo@rvClientPhysics@@UAEXPAVidEntity@@W4jointHandle_t@@_N@Z 200c01a0 f   ClientEntity.obj
 0001:000bf210       ?PopBindInfo@rvClientPhysics@@UAEXXZ 200c0210 f   ClientEntity.obj
 0001:000bf260       ?PushOriginInfo@rvClientPhysics@@UAEXABVidVec3@@ABVidMat3@@@Z 200c0260 f   ClientEntity.obj
 0001:000bf330       ?PopOriginInfo@rvClientPhysics@@UAEXXZ 200c0330 f   ClientEntity.obj
 0001:000bf370       ?Register_rvClientEntity@@YAXXZ 200c0370 f   ClientEntity.obj
 0001:000bf380       ?Register_rvClientPhysics@@YAXXZ 200c0380 f   ClientEntity.obj
 0001:000bf390       ??_EidClass@@UAEPAXI@Z     200c0390 f i ClientEntity.obj
 0001:000bf390       ??_GidClass@@UAEPAXI@Z     200c0390 f i ClientEntity.obj
 0001:000bf3d0       ??_ErvClientEntity@@UAEPAXI@Z 200c03d0 f i ClientEntity.obj
 0001:000bf3d0       ??_GrvClientEntity@@UAEPAXI@Z 200c03d0 f i ClientEntity.obj
 0001:000bf410       ??_ErvClientPhysics@@UAEPAXI@Z 200c0410 f i ClientEntity.obj
 0001:000bf410       ??_GrvClientPhysics@@UAEPAXI@Z 200c0410 f i ClientEntity.obj
 0001:000bf450       ?RegisterClassA@rvClientModel@@SAXXZ 200c0450 f   ClientModel.obj
 0001:000bf510       ?CreateInstance@rvClientModel@@SAPAVidClass@@XZ 200c0510 f   ClientModel.obj
 0001:000bf5b0       ?GetClassType@rvClientModel@@SAAAVidTypeInfo@@XZ 200c05b0 f   ClientModel.obj
 0001:000bf5c0       ?GetType@rvClientModel@@UBEPAVidTypeInfo@@XZ 200c05c0 f   ClientModel.obj
 0001:000bf5d0       ??0rvClientModel@@QAE@XZ   200c05d0 f   ClientModel.obj
 0001:000bf6c0       ??1rvClientModel@@UAE@XZ   200c06c0 f   ClientModel.obj
 0001:000bf720       ?Spawn@rvClientModel@@QAEXXZ 200c0720 f   ClientModel.obj
 0001:000bf7e0       ?Think@rvClientModel@@UAEXXZ 200c07e0 f   ClientModel.obj
 0001:000bf830       ?SetCustomShader@rvClientModel@@UAE_NPBD@Z 200c0830 f   ClientModel.obj
 0001:000bf870       ?Save@rvClientModel@@QBEXPAVidSaveGame@@@Z 200c0870 f   ClientModel.obj
 0001:000bf8b0       ?Restore@rvClientModel@@QAEXPAVidRestoreGame@@@Z 200c08b0 f   ClientModel.obj
 0001:000bf910       ?FreeEntityDef@rvClientModel@@UAEXXZ 200c0910 f   ClientModel.obj
 0001:000bf940       ?SetModel@rvClientModel@@UAEXPBD@Z 200c0940 f   ClientModel.obj
 0001:000bfa30       ?UpdateRenderEntity@rvClientModel@@QAE_NPAUrenderEntity_s@@PBUrenderView_s@@@Z 200c0a30 f   ClientModel.obj
 0001:000bfa70       ?ModelCallback@rvClientModel@@SA_NPAUrenderEntity_s@@PBUrenderView_s@@@Z 200c0a70 f   ClientModel.obj
 0001:000bfaf0       ?GetPhysicsToVisualTransform@rvClientModel@@UAE_NAAVidVec3@@AAVidMat3@@@Z 200c0af0 f   ClientModel.obj
 0001:000bfb00       ?ProjectOverlay@rvClientModel@@QAEXABVidVec3@@0MPBD@Z 200c0b00 f   ClientModel.obj
 0001:000c0130       ?UpdateVisuals@rvClientModel@@QAEXXZ 200c1130 f   ClientModel.obj
 0001:000c0140       ?UpdateModel@rvClientModel@@QAEXXZ 200c1140 f   ClientModel.obj
 0001:000c0170       ?UpdateModelTransform@rvClientModel@@QAEXXZ 200c1170 f   ClientModel.obj
 0001:000c0540       ?SetSkin@rvClientModel@@QAEXPBVidDeclSkin@@@Z 200c1540 f   ClientModel.obj
 0001:000c0560       ?Present@rvClientModel@@MAEXXZ 200c1560 f   ClientModel.obj
 0001:000c06a0       ?RegisterClassA@rvAnimatedClientEntity@@SAXXZ 200c16a0 f   ClientModel.obj
 0001:000c0760       ?CreateInstance@rvAnimatedClientEntity@@SAPAVidClass@@XZ 200c1760 f   ClientModel.obj
 0001:000c0800       ?GetClassType@rvAnimatedClientEntity@@SAAAVidTypeInfo@@XZ 200c1800 f   ClientModel.obj
 0001:000c0810       ?GetType@rvAnimatedClientEntity@@UBEPAVidTypeInfo@@XZ 200c1810 f   ClientModel.obj
 0001:000c0820       ??0rvAnimatedClientEntity@@QAE@XZ 200c1820 f   ClientModel.obj
 0001:000c0870       ??1rvAnimatedClientEntity@@UAE@XZ 200c1870 f   ClientModel.obj
 0001:000c0890       ?Spawn@rvAnimatedClientEntity@@QAEXXZ 200c1890 f   ClientModel.obj
 0001:000c08d0       ?Think@rvAnimatedClientEntity@@UAEXXZ 200c18d0 f   ClientModel.obj
 0001:000c08e0       ?UpdateAnimation@rvAnimatedClientEntity@@UAEXXZ 200c18e0 f   ClientModel.obj
 0001:000c0990       ?SetModel@rvAnimatedClientEntity@@UAEXPBD@Z 200c1990 f   ClientModel.obj
 0001:000c0a30       ?Register_rvClientModel@@YAXXZ 200c1a30 f   ClientModel.obj
 0001:000c0a40       ?Register_rvAnimatedClientEntity@@YAXXZ 200c1a40 f   ClientModel.obj
 0001:000c0a50       ??_ErvAnimatedClientEntity@@UAEPAXI@Z 200c1a50 f i ClientModel.obj
 0001:000c0a50       ??_GrvAnimatedClientEntity@@UAEPAXI@Z 200c1a50 f i ClientModel.obj
 0001:000c0a90       ??_ErvClientModel@@UAEPAXI@Z 200c1a90 f i ClientModel.obj
 0001:000c0a90       ??_GrvClientModel@@UAEPAXI@Z 200c1a90 f i ClientModel.obj
 0001:000c0ad0       ?RegisterClassA@rvClientMoveable@@SAXXZ 200c1ad0 f   ClientMoveable.obj
 0001:000c0b90       ?CreateInstance@rvClientMoveable@@SAPAVidClass@@XZ 200c1b90 f   ClientMoveable.obj
 0001:000c0c30       ?GetClassType@rvClientMoveable@@SAAAVidTypeInfo@@XZ 200c1c30 f   ClientMoveable.obj
 0001:000c0c40       ?GetType@rvClientMoveable@@UBEPAVidTypeInfo@@XZ 200c1c40 f   ClientMoveable.obj
 0001:000c0c50       ??0rvClientMoveable@@QAE@XZ 200c1c50 f   ClientMoveable.obj
 0001:000c0d20       ??1rvClientMoveable@@UAE@XZ 200c1d20 f   ClientMoveable.obj
 0001:000c0db0       ?Spawn@rvClientMoveable@@UAEXXZ 200c1db0 f   ClientMoveable.obj
 0001:000c13a0       ?Think@rvClientMoveable@@UAEXXZ 200c23a0 f   ClientMoveable.obj
 0001:000c1720       ?GetPhysics@rvClientMoveable@@UBEPAVidPhysics@@XZ 200c2720 f   ClientMoveable.obj
 0001:000c1730       ?Collide@rvClientMoveable@@UAE_NABUtrace_t@@ABVidVec3@@@Z 200c2730 f   ClientMoveable.obj
 0001:000c1810       ?Save@rvClientMoveable@@QBEXPAVidSaveGame@@@Z 200c2810 f   ClientMoveable.obj
 0001:000c18b0       ?Restore@rvClientMoveable@@QAEXPAVidRestoreGame@@@Z 200c28b0 f   ClientMoveable.obj
 0001:000c1960       ?SpawnClientMoveables@rvClientMoveable@@SAXPAVidEntity@@PBDPAV?$idList@PAVrvClientMoveable@@@@@Z 200c2960 f   ClientMoveable.obj
 0001:000c1e80       ?FreeEntityDef@rvClientMoveable@@UAEXXZ 200c2e80 f   ClientMoveable.obj
 0001:000c1eb0       ?SetOwner@rvClientMoveable@@QAEXPAVidEntity@@@Z 200c2eb0 f   ClientMoveable.obj
 0001:000c1ee0       ?SetOrigin@rvClientMoveable@@QAEXABVidVec3@@@Z 200c2ee0 f   ClientMoveable.obj
 0001:000c1f10       ?SetAxis@rvClientMoveable@@QAEXABVidMat3@@@Z 200c2f10 f   ClientMoveable.obj
 0001:000c1f40       ?Event_FadeOut@rvClientMoveable@@AAEXH@Z 200c2f40 f   ClientMoveable.obj
 0001:000c1f80       ?Event_ClearDepthHack@rvClientMoveable@@AAEXXZ 200c2f80 f   ClientMoveable.obj
 0001:000c1f90       ?Register_rvClientMoveable@@YAXXZ 200c2f90 f   ClientMoveable.obj
 0001:000c1f95       ??_9rvClientMoveable@@$BEA@AE 200c2f95 f i ClientMoveable.obj
 0001:000c1fa0       ??_ErvClientMoveable@@UAEPAXI@Z 200c2fa0 f i ClientMoveable.obj
 0001:000c1fa0       ??_GrvClientMoveable@@UAEPAXI@Z 200c2fa0 f i ClientMoveable.obj
 0001:000c1fe0       ?RegisterClassA@rvEffect@@SAXXZ 200c2fe0 f   Effect.obj
 0001:000c20a0       ?CreateInstance@rvEffect@@SAPAVidClass@@XZ 200c30a0 f   Effect.obj
 0001:000c2140       ?GetClassType@rvEffect@@SAAAVidTypeInfo@@XZ 200c3140 f   Effect.obj
 0001:000c2150       ?GetType@rvEffect@@UBEPAVidTypeInfo@@XZ 200c3150 f   Effect.obj
 0001:000c2160       ??0rvEffect@@QAE@XZ        200c3160 f   Effect.obj
 0001:000c21c0       ?Spawn@rvEffect@@QAEXXZ    200c31c0 f   Effect.obj
 0001:000c23b0       ?Think@rvEffect@@UAEXXZ    200c33b0 f   Effect.obj
 0001:000c2430       ?Save@rvEffect@@QBEXPAVidSaveGame@@@Z 200c3430 f   Effect.obj
 0001:000c2490       ?Restore@rvEffect@@QAEXPAVidRestoreGame@@@Z 200c3490 f   Effect.obj
 0001:000c2550       ?Play@rvEffect@@QAE_NXZ    200c3550 f   Effect.obj
 0001:000c2660       ?Stop@rvEffect@@QAEX_N@Z   200c3660 f   Effect.obj
 0001:000c2680       ?Restart@rvEffect@@QAEXXZ  200c3680 f   Effect.obj
 0001:000c26a0       ?Attenuate@rvEffect@@QAEXM@Z 200c36a0 f   Effect.obj
 0001:000c2710       ?UpdateChangeableSpawnArgs@rvEffect@@UAEXPBVidDict@@@Z 200c3710 f   Effect.obj
 0001:000c2920       ?ShowEditingDialog@rvEffect@@UAEXXZ 200c3920 f   Effect.obj
 0001:000c2940       ?WriteToSnapshot@rvEffect@@UBEXAAVidBitMsgDelta@@@Z 200c3940 f   Effect.obj
 0001:000c2a00       ?ReadFromSnapshot@rvEffect@@UAEXABVidBitMsgDelta@@@Z 200c3a00 f   Effect.obj
 0001:000c2af0       ?ClientPredictionThink@rvEffect@@UAEXXZ 200c3af0 f   Effect.obj
 0001:000c2b10       ?InstanceLeave@rvEffect@@UAEXXZ 200c3b10 f   Effect.obj
 0001:000c2b30       ?InstanceJoin@rvEffect@@UAEXXZ 200c3b30 f   Effect.obj
 0001:000c2b40       ?Event_Activate@rvEffect@@AAEXPAVidEntity@@@Z 200c3b40 f   Effect.obj
 0001:000c2b80       ?Event_LookAtTarget@rvEffect@@AAEXXZ 200c3b80 f   Effect.obj
 0001:000c2e00       ?Event_EarthQuake@rvEffect@@AAEXM@Z 200c3e00 f   Effect.obj
 0001:000c2ef0       ?Event_Start@rvEffect@@AAEXXZ 200c3ef0 f   Effect.obj
 0001:000c2f60       ?Event_Stop@rvEffect@@AAEXXZ 200c3f60 f   Effect.obj
 0001:000c2f80       ?Event_Attenuate@rvEffect@@AAEXM@Z 200c3f80 f   Effect.obj
 0001:000c2fa0       ?Event_IsActive@rvEffect@@AAEXXZ 200c3fa0 f   Effect.obj
 0001:000c2fe0       ?Register_rvEffect@@YAXXZ  200c3fe0 f   Effect.obj
 0001:000c2ff0       ??_EidEarthQuake@@UAEPAXI@Z 200c3ff0 f i Misc.obj
 0001:000c2ff0       ??_EidTarget_FadeEntity@@UAEPAXI@Z 200c3ff0 f i Target.obj
 0001:000c2ff0       ??_ErvEffect@@UAEPAXI@Z    200c3ff0 f i Effect.obj
 0001:000c2ff0       ??_GidEarthQuake@@UAEPAXI@Z 200c3ff0 f i Misc.obj
 0001:000c2ff0       ??_GidTarget_FadeEntity@@UAEPAXI@Z 200c3ff0 f i Target.obj
 0001:000c2ff0       ??_GrvEffect@@UAEPAXI@Z    200c3ff0 f i Effect.obj
 0001:000c3030       ?ParseSpawnArgsToRenderEntity@idGameEdit@@UAEXPBVidDict@@PAUrenderEntity_s@@@Z 200c4030 f   Entity.obj
 0001:000c3630       ?ParseSpawnArgsToRefSound@idGameEdit@@UAEXPBVidDict@@PAUrefSound_t@@@Z 200c4630 f   Entity.obj
 0001:000c39e0       ?RegisterClassA@idEntity@@SAXXZ 200c49e0 f   Entity.obj
 0001:000c3aa0       ?CreateInstance@idEntity@@SAPAVidClass@@XZ 200c4aa0 f   Entity.obj
 0001:000c3ac0       ?GetClassType@idEntity@@SAAAVidTypeInfo@@XZ 200c4ac0 f   Entity.obj
 0001:000c3ad0       ?GetType@idEntity@@UBEPAVidTypeInfo@@XZ 200c4ad0 f   Entity.obj
 0001:000c3ae0       ??0idEntity@@QAE@XZ        200c4ae0 f   Entity.obj
 0001:000c3ec0       ??1idEntity@@UAE@XZ        200c4ec0 f   Entity.obj
 0001:000c40f0       ?Spawn@idEntity@@QAEXXZ    200c50f0 f   Entity.obj
 0001:000c46a0       ?Save@idEntity@@QBEXPAVidSaveGame@@@Z 200c56a0 f   Entity.obj
 0001:000c4990       ?Restore@idEntity@@QAEXPAVidRestoreGame@@@Z 200c5990 f   Entity.obj
 0001:000c5090       ?GetEntityDefName@idEntity@@QBEPBDXZ 200c6090 f   Entity.obj
 0001:000c50c0       ?SetName@idEntity@@QAEXPBD@Z 200c60c0 f   Entity.obj
 0001:000c5160       ?GetName@idEntity@@QBEPBDXZ 200c6160 f   Entity.obj
 0001:000c5170       ?UpdateChangeableSpawnArgs@idEntity@@UAEXPBVidDict@@@Z 200c6170 f   Entity.obj
 0001:000c5200       ?GetRenderView@idEntity@@UAEPAUrenderView_s@@XZ 200c6200 f   Entity.obj
 0001:000c5390       ?Think@idEntity@@UAEXXZ    200c6390 f   Entity.obj
 0001:000c53a0       ?CheckDormant@idEntity@@QAE_NXZ 200c63a0 f   Entity.obj
 0001:000c5430       ?DormantBegin@idEntity@@UAEXXZ 200c6430 f   Entity.obj
 0001:000c5440       ?DormantEnd@idEntity@@UAEXXZ 200c6440 f   Entity.obj
 0001:000c5450       ?IsActive@idEntity@@QBE_NXZ 200c6450 f   Entity.obj
 0001:000c5460       ?BecomeActive@idEntity@@QAEXH@Z 200c6460 f   Entity.obj
 0001:000c5540       ?BecomeInactive@idEntity@@QAEXH@Z 200c6540 f   Entity.obj
 0001:000c5610       ?UpdatePVSAreas@idEntity@@QAEXABVidVec3@@@Z 200c6610 f   Entity.obj
 0001:000c5690       ?GetPosition@idEntity@@UBEXAAVidVec3@@AAVidMat3@@@Z 200c6690 f   Entity.obj
 0001:000c5710       ?GetLocalAngles@idEntity@@UAEXAAVidAngles@@@Z 200c6710 f   Entity.obj
 0001:000c5770       ?Present@idEntity@@UAEXXZ  200c6770 f   Entity.obj
 0001:000c5870       ?InstanceJoin@idEntity@@UAEXXZ 200c6870 f   Entity.obj
 0001:000c5890       ?InstanceLeave@idEntity@@UAEXXZ 200c6890 f   Entity.obj
 0001:000c58b0       ?SetModel@idEntity@@UAEXPBD@Z 200c68b0 f   Entity.obj
 0001:000c59b0       ?SetSkin@idEntity@@QAEXPBVidDeclSkin@@@Z 200c69b0 f   Entity.obj
 0001:000c59d0       ?GetSkin@idEntity@@QBEPBVidDeclSkin@@XZ 200c69d0 f   Entity.obj
 0001:000c59e0       ?HideSurface@idEntity@@QAEXPBD@Z 200c69e0 f   Entity.obj
 0001:000c5a10       ?ShowSurface@idEntity@@QAEXPBD@Z 200c6a10 f   Entity.obj
 0001:000c5a50       ?ClearSkin@idEntity@@QAEXXZ 200c6a50 f   Entity.obj
 0001:000c5ab0       ?SetShaderParm@idEntity@@QAEXHM@Z 200c6ab0 f   Entity.obj
 0001:000c5af0       ?SetColor@idEntity@@UAEXMMM@Z 200c6af0 f   Entity.obj
 0001:000c5b30       ?SetColor@idEntity@@UAEXABVidVec3@@@Z 200c6b30 f   Entity.obj
 0001:000c5b70       ?GetColor@idEntity@@UBEXAAVidVec3@@@Z 200c6b70 f   Entity.obj
 0001:000c5ba0       ?SetColor@idEntity@@UAEXABVidVec4@@@Z 200c6ba0 f   Entity.obj
 0001:000c5be0       ?GetColor@idEntity@@UBEXAAVidVec4@@@Z 200c6be0 f   Entity.obj
 0001:000c5c10       ?FreeModelDef@idEntity@@UAEXXZ 200c6c10 f   Entity.obj
 0001:000c5c70       ?FreeLightDef@idEntity@@UAEXXZ 200c6c70 f   Entity.obj
 0001:000c5c80       ?Hide@idEntity@@UAEXXZ     200c6c80 f   Entity.obj
 0001:000c5cb0       ?Show@idEntity@@UAEXXZ     200c6cb0 f   Entity.obj
 0001:000c5cd0       ?IsHidden@idEntity@@QBE_NXZ 200c6cd0 f   Entity.obj
 0001:000c5ce0       ?UpdateVisuals@idEntity@@QAEXXZ 200c6ce0 f   Entity.obj
 0001:000c5cf0       ?UpdateModel@idEntity@@QAEXXZ 200c6cf0 f   Entity.obj
 0001:000c5d20       ?UpdateModelTransform@idEntity@@UAEXXZ 200c6d20 f   Entity.obj
 0001:000c60c0       ?UpdateRenderEntityCallback@idEntity@@UAEXXZ 200c70c0 f   Entity.obj
 0001:000c60d0       ?ProjectOverlay@idEntity@@UAEXABVidVec3@@0MPBD@Z 200c70d0 f   Entity.obj
 0001:000c6700       ?GetNumPVSAreas@idEntity@@QAEHXZ 200c7700 f   Entity.obj
 0001:000c6720       ?GetPVSAreas@idEntity@@QAEPBHXZ 200c7720 f   Entity.obj
 0001:000c6740       ?ClearPVSAreas@idEntity@@QAEXXZ 200c7740 f   Entity.obj
 0001:000c6750       ?PhysicsTeamInPVS@idEntity@@QAE_NUpvsHandle_s@@@Z 200c7750 f   Entity.obj
 0001:000c67d0       ?UpdateAnimationControllers@idEntity@@UAE_NXZ 200c77d0 f   Entity.obj
 0001:000c67e0       ?UpdateRenderEntity@idEntity@@QAE_NPAUrenderEntity_s@@PBUrenderView_s@@@Z 200c77e0 f   Entity.obj
 0001:000c6820       ?ModelCallback@idEntity@@SA_NPAUrenderEntity_s@@PBUrenderView_s@@@Z 200c7820 f   Entity.obj
 0001:000c6860       ?GetAnimator@idEntity@@UAEPAVidAnimator@@XZ 200c7860 f   Entity.obj
 0001:000c6870       ?CanPlayChatterSounds@idEntity@@UBE_NXZ 200c7870 f   Entity.obj
 0001:000c6880       ?StartSound@idEntity@@QAE_NPBDHH_NPAH@Z 200c7880 f   Entity.obj
 0001:000c69d0       ?StartSoundShader@idEntity@@QAE_NPBVidSoundShader@@HH_NPAH@Z 200c79d0 f   Entity.obj
 0001:000c6c20       ?StopSound@idEntity@@QAEXH_N@Z 200c7c20 f   Entity.obj
 0001:000c6cf0       ?SetSoundVolume@idEntity@@QAEXM@Z 200c7cf0 f   Entity.obj
 0001:000c6d10       ?UpdateSound@idEntity@@QAEXXZ 200c7d10 f   Entity.obj
 0001:000c6eb0       ?GetListenerId@idEntity@@QBEHXZ 200c7eb0 f   Entity.obj
 0001:000c6ec0       ?GetSoundEmitter@idEntity@@QBEHXZ 200c7ec0 f   Entity.obj
 0001:000c6ed0       ?FreeSoundEmitter@idEntity@@QAEX_N@Z 200c7ed0 f   Entity.obj
 0001:000c6f00       ?PlayEffect@idEntity@@QAEPAVrvClientEffect@@PBVidDecl@@W4jointHandle_t@@ABVidVec3@@ABVidMat3@@_N24W4effectCategory_t@@ABVidVec4@@@Z 200c7f00 f   Entity.obj
 0001:000c7230       ?PlayEffect@idEntity@@QAEPAVrvClientEffect@@PBVidDecl@@ABVidVec3@@ABVidMat3@@_N13W4effectCategory_t@@ABVidVec4@@@Z 200c8230 f   Entity.obj
 0001:000c78c0       ?StopEffect@idEntity@@QAEXPBD_N@Z 200c88c0 f   Entity.obj
 0001:000c78f0       ?StopEffect@idEntity@@QAEXPBVidDecl@@_N@Z 200c88f0 f   Entity.obj
 0001:000c7980       ?StopAllEffects@idEntity@@QAEX_N@Z 200c8980 f   Entity.obj
 0001:000c79f0       ?DistanceTo2d@idEntity@@QBEMABVidVec3@@@Z 200c89f0 f   Entity.obj
 0001:000c7be0       ?PreBind@idEntity@@UAEXXZ  200c8be0 f   Entity.obj
 0001:000c7bf0       ?PostBind@idEntity@@UAEXXZ 200c8bf0 f   Entity.obj
 0001:000c7c00       ?PreUnbind@idEntity@@UAEXXZ 200c8c00 f   Entity.obj
 0001:000c7c10       ?PostUnbind@idEntity@@UAEXXZ 200c8c10 f   Entity.obj
 0001:000c7c20       ?JoinTeam@idEntity@@QAEXPAV1@@Z 200c8c20 f   Entity.obj
 0001:000c7d60       ?Bind@idEntity@@QAEXPAV1@_N@Z 200c8d60 f   Entity.obj
 0001:000c7de0       ?BindToJoint@idEntity@@QAEXPAV1@PBD_N@Z 200c8de0 f   Entity.obj
 0001:000c7ec0       ?BindToJoint@idEntity@@QAEXPAV1@W4jointHandle_t@@_N@Z 200c8ec0 f   Entity.obj
 0001:000c7f40       ?BindToBody@idEntity@@QAEXPAV1@H_N@Z 200c8f40 f   Entity.obj
 0001:000c7fe0       ?Unbind@idEntity@@QAEXXZ   200c8fe0 f   Entity.obj
 0001:000c8180       ?IsBound@idEntity@@QBE_NXZ 200c9180 f   Entity.obj
 0001:000c81b0       ?IsBoundTo@idEntity@@QBE_NPBV1@@Z 200c91b0 f   Entity.obj
 0001:000c8220       ?GetBindMaster@idEntity@@QBEPAV1@XZ 200c9220 f   Entity.obj
 0001:000c8250       ?GetBindJoint@idEntity@@QBE?AW4jointHandle_t@@XZ 200c9250 f   Entity.obj
 0001:000c8260       ?GetBindBody@idEntity@@QBEHXZ 200c9260 f   Entity.obj
 0001:000c8270       ?GetTeamMaster@idEntity@@QBEPAV1@XZ 200c9270 f   Entity.obj
 0001:000c8280       ?GetNextTeamEntity@idEntity@@QBEPAV1@XZ 200c9280 f   Entity.obj
 0001:000c8290       ?ConvertLocalToWorldTransform@idEntity@@UAEXAAVidVec3@@AAVidMat3@@@Z 200c9290 f   Entity.obj
 0001:000c8550       ?GetLocalVector@idEntity@@QBE?AVidVec3@@ABV2@@Z 200c9550 f   Entity.obj
 0001:000c8640       ?GetLocalCoordinates@idEntity@@QBE?AVidVec3@@ABV2@@Z 200c9640 f   Entity.obj
 0001:000c8750       ?GetWorldVector@idEntity@@QBE?AVidVec3@@ABV2@@Z 200c9750 f   Entity.obj
 0001:000c8850       ?GetWorldCoordinates@idEntity@@QBE?AVidVec3@@ABV2@@Z 200c9850 f   Entity.obj
 0001:000c8950       ?GetMasterPosition@idEntity@@UBE_NAAVidVec3@@AAVidMat3@@@Z 200c9950 f   Entity.obj
 0001:000c8e80       ?GetWorldVelocities@idEntity@@QBEXAAVidVec3@@0@Z 200c9e80 f   Entity.obj
 0001:000c9060       ?SetPhysics@idEntity@@QAEXPAVidPhysics@@@Z 200ca060 f   Entity.obj
 0001:000c9110       ?RestorePhysics@idEntity@@QAEXPAVidPhysics@@@Z 200ca110 f   Entity.obj
 0001:000c9120       ?RunPhysics@idEntity@@QAE_NXZ 200ca120 f   Entity.obj
 0001:000c9410       ?SetOrigin@idEntity@@QAEXABVidVec3@@@Z 200ca410 f   Entity.obj
 0001:000c9440       ?SetAxis@idEntity@@QAEXABVidMat3@@@Z 200ca440 f   Entity.obj
 0001:000c94f0       ?SetAngles@idEntity@@QAEXABVidAngles@@@Z 200ca4f0 f   Entity.obj
 0001:000c9520       ?GetFloorPos@idEntity@@QBE_NMAAVidVec3@@@Z 200ca520 f   Entity.obj
 0001:000c9620       ?GetPhysicsToVisualTransform@idEntity@@UAE_NAAVidVec3@@AAVidMat3@@@Z 200ca620 f   Entity.obj
 0001:000c9630       ?GetPhysicsToSoundTransform@idEntity@@UAE_NAAVidVec3@@AAVidMat3@@@Z 200ca630 f   Entity.obj
 0001:000c9730       ?Collide@idEntity@@UAE_NABUtrace_t@@ABVidVec3@@@Z 200ca730 f   Entity.obj
 0001:000c9740       ?GetImpactInfo@idEntity@@UAEXPAV1@HABVidVec3@@PAUimpactInfo_s@@@Z 200ca740 f   Entity.obj
 0001:000c9760       ?ApplyImpulse@idEntity@@UAEXPAV1@HABVidVec3@@1_N@Z 200ca760 f   Entity.obj
 0001:000c97a0       ?AddForce@idEntity@@UAEXPAV1@HABVidVec3@@1@Z 200ca7a0 f   Entity.obj
 0001:000c97c0       ?ActivatePhysics@idEntity@@UAEXPAV1@@Z 200ca7c0 f   Entity.obj
 0001:000c97d0       ?IsAtRest@idEntity@@UBE_NXZ 200ca7d0 f   Entity.obj
 0001:000c97e0       ?GetRestStartTime@idEntity@@UBEHXZ 200ca7e0 f   Entity.obj
 0001:000c97f0       ?AddContactEntity@idEntity@@UAEXPAV1@@Z 200ca7f0 f   Entity.obj
 0001:000c9810       ?RemoveContactEntity@idEntity@@UAEXPAV1@@Z 200ca810 f   Entity.obj
 0001:000c9830       ?DrawDebugEntityInfo@idEntity@@UAEXPAVidBounds@@0PAVidVec4@@@Z 200ca830 f   Entity.obj
 0001:000c9e30       ?SkipImpulse@idEntity@@UAE_NPAV1@H@Z 200cae30 f   Entity.obj
 0001:000c9e40       ?ApplyImpulse@idEntity@@UAEXPAV1@HABVidVec3@@1PBVidDict@@@Z 200cae40 f   Entity.obj
 0001:000c9ec0       ?GetDamageEntity@idEntity@@UAEPAV1@XZ 200caec0 f   Entity.obj
 0001:000c9ef0       ?CanDamage@idEntity@@UBE_NABVidVec3@@AAV2@PAV1@@Z 200caef0 f   Entity.obj
 0001:000ca2e0       ?Damage@idEntity@@UAEXPAV1@0ABVidVec3@@PBDMH@Z 200cb2e0 f   Entity.obj
 0001:000ca420       ?AddDamageEffect@idEntity@@UAEXABUtrace_t@@ABVidVec3@@PBDPAV1@@Z 200cb420 f   Entity.obj
 0001:000ca630       ?CanPlayImpactEffect@idEntity@@UAE_NPAV1@0@Z 200cb630 f   Entity.obj
 0001:000ca760       ?DamageFeedback@idEntity@@UAEXPAV1@0AAH@Z 200cb760 f   Entity.obj
 0001:000ca770       ?Pain@idEntity@@UAE_NPAV1@0HABVidVec3@@H@Z 200cb770 f   Entity.obj
 0001:000ca780       ?Killed@idEntity@@UAEXPAV1@0HABVidVec3@@H@Z 200cb780 f   Entity.obj
 0001:000ca790       ?ShouldConstructScriptObjectAtSpawn@idEntity@@UBE_NXZ 200cb790 f   Entity.obj
 0001:000ca7a0       ?ConstructScriptObject@idEntity@@UAEPAVidThread@@XZ 200cb7a0 f   Entity.obj
 0001:000ca850       ?DeconstructScriptObject@idEntity@@UAEXXZ 200cb850 f   Entity.obj
 0001:000ca900       ?SetSignal@idEntity@@QAEXW4signalNum_t@@PAVidThread@@PBVfunction_t@@@Z 200cb900 f   Entity.obj
 0001:000cabe0       ?ClearSignal@idEntity@@QAEXPAVidThread@@W4signalNum_t@@@Z 200cbbe0 f   Entity.obj
 0001:000cac90       ?ClearSignalThread@idEntity@@QAEXW4signalNum_t@@PAVidThread@@@Z 200cbc90 f   Entity.obj
 0001:000cad50       ?HasSignal@idEntity@@QBE_NW4signalNum_t@@@Z 200cbd50 f   Entity.obj
 0001:000cad80       ?Signal@idEntity@@QAEXW4signalNum_t@@@Z 200cbd80 f   Entity.obj
 0001:000cae80       ?SignalEvent@idEntity@@QAEXPAVidThread@@W4signalNum_t@@@Z 200cbe80 f   Entity.obj
 0001:000caec0       ?TriggerGuis@idEntity@@QAEXXZ 200cbec0 f   Entity.obj
 0001:000caef0       ?HandleGuiCommands@idEntity@@QAE_NPAV1@PBD@Z 200cbef0 f   Entity.obj
 0001:000cb7e0       ?HandleSingleGuiCommand@idEntity@@UAE_NPAV1@PAVidLexer@@@Z 200cc7e0 f   Entity.obj
 0001:000cb7f0       ?FindTargets@idEntity@@UAEXXZ 200cc7f0 f   Entity.obj
 0001:000cb880       ?RemoveNullTargets@idEntity@@UAEXXZ 200cc880 f   Entity.obj
 0001:000cb950       ?ActivateTargets@idEntity@@UBEXPAV1@@Z 200cc950 f   Entity.obj
 0001:000cba30       ?UnbindTargets@idEntity@@QBEXPAV1@@Z 200cca30 f   Entity.obj
 0001:000cba80       ?AppendTarget@idEntity@@QAEHPAV1@@Z 200cca80 f   Entity.obj
 0001:000cbe20       ?RemoveTarget@idEntity@@QAEXPAV1@@Z 200cce20 f   Entity.obj
 0001:000cbf50       ?RemoveTargets@idEntity@@QAEX_N@Z 200ccf50 f   Entity.obj
 0001:000cc110       ?Teleport@idEntity@@UAEXABVidVec3@@ABVidAngles@@PAV1@@Z 200cd110 f   Entity.obj
 0001:000cc160       ?TouchTriggers@idEntity@@QBE_NPBVidTypeInfo@@@Z 200cd160 f   Entity.obj
 0001:000cc3a0       ?GetSpline@idEntity@@QBEPAV?$idCurve_Spline@VidVec3@@@@XZ 200cd3a0 f   Entity.obj
 0001:000cc760       ?ShowEditingDialog@idEntity@@UAEXXZ 200cd760 f   Entity.obj
 0001:000cc770       ?ClientPredictionThink@idEntity@@UAEXXZ 200cd770 f   Entity.obj
 0001:000cc780       ?WriteToSnapshot@idEntity@@UBEXAAVidBitMsgDelta@@@Z 200cd780 f   Entity.obj
 0001:000cc790       ?ReadFromSnapshot@idEntity@@UAEXABVidBitMsgDelta@@@Z 200cd790 f   Entity.obj
 0001:000cc7a0       ?ServerReceiveEvent@idEntity@@UAE_NHHABVidBitMsg@@@Z 200cd7a0 f   Entity.obj
 0001:000cc7b0       ?ClientReceiveEvent@idEntity@@UAE_NHHABVidBitMsg@@@Z 200cd7b0 f   Entity.obj
 0001:000ccc60       ?ClientStale@idEntity@@UAE_NXZ 200cdc60 f   Entity.obj
 0001:000ccc90       ?ClientUnstale@idEntity@@UAEXXZ 200cdc90 f   Entity.obj
 0001:000ccca0       ?WriteBindToSnapshot@idEntity@@QBEXAAVidBitMsgDelta@@@Z 200cdca0 f   Entity.obj
 0001:000ccd40       ?ReadBindFromSnapshot@idEntity@@QAEXABVidBitMsgDelta@@@Z 200cdd40 f   Entity.obj
 0001:000ccdf0       ?WriteColorToSnapshot@idEntity@@QBEXAAVidBitMsgDelta@@@Z 200cddf0 f   Entity.obj
 0001:000cce20       ?ReadColorFromSnapshot@idEntity@@QAEXABVidBitMsgDelta@@@Z 200cde20 f   Entity.obj
 0001:000cce60       ?WriteGUIToSnapshot@idEntity@@QBEXAAVidBitMsgDelta@@@Z 200cde60 f   Entity.obj
 0001:000cced0       ?ReadGUIFromSnapshot@idEntity@@QAEXABVidBitMsgDelta@@@Z 200cded0 f   Entity.obj
 0001:000ccf20       ?ServerSendEvent@idEntity@@QBEXHPBVidBitMsg@@_NH@Z 200cdf20 f   Entity.obj
 0001:000cd020       ?ServerSendInstanceEvent@idEntity@@QBEXHPBVidBitMsg@@_NH@Z 200ce020 f   Entity.obj
 0001:000cd120       ?ClientSendEvent@idEntity@@QBEXHPBVidBitMsg@@@Z 200ce120 f   Entity.obj
 0001:000cd200       ?GetDebugInfo@idEntity@@UAEXP6AXPBD00PAX@Z1@Z 200ce200 f   Entity.obj
 0001:000cd4b0       ?Size@idEntity@@UBEIXZ     200ce4b0 f   Entity.obj
 0001:000cd4c0       ?SetInstance@idEntity@@UAEXH@Z 200ce4c0 f   Entity.obj
 0001:000cd4f0       ?DoDormantTests@idEntity@@MAE_NXZ 200ce4f0 f   Entity.obj
 0001:000cd540       ?InitDefaultPhysics@idEntity@@IAEXABVidVec3@@ABVidMat3@@@Z 200ce540 f   Entity.obj
 0001:000cda00       ?UpdateFromPhysics@idEntity@@IAEX_N@Z 200cea00 f   Entity.obj
 0001:000cda80       ?InitBind@idEntity@@IAE_NPAV1@@Z 200cea80 f   Entity.obj
 0001:000cdb00       ?FinishBind@idEntity@@IAEXXZ 200ceb00 f   Entity.obj
 0001:000cdbd0       ?RemoveBinds@idEntity@@IAEXXZ 200cebd0 f   Entity.obj
 0001:000cdc40       ?QuitTeam@idEntity@@IAEXXZ 200cec40 f   Entity.obj
 0001:000cdd10       ?UpdatePVSAreas@idEntity@@IAEXXZ 200ced10 f   Entity.obj
 0001:000cde20       ?RemoveClientEntities@idEntity@@IAEXXZ 200cee20 f   Entity.obj
 0001:000cde80       ?Event_GetName@idEntity@@IAEXXZ 200cee80 f   Entity.obj
 0001:000cde90       ?Event_SetName@idEntity@@IAEXPBD@Z 200cee90 f   Entity.obj
 0001:000cdea0       ?Event_FindTargets@idEntity@@IAEXXZ 200ceea0 f   Entity.obj
 0001:000cdeb0       ?Event_ActivateTargets@idEntity@@IAEXPAV1@@Z 200ceeb0 f   Entity.obj
 0001:000cdec0       ?Event_NumTargets@idEntity@@IAEXXZ 200ceec0 f   Entity.obj
 0001:000cdee0       ?Event_GetTarget@idEntity@@IAEXM@Z 200ceee0 f   Entity.obj
 0001:000cdf40       ?Event_RandomTarget@idEntity@@IAEXPBD@Z 200cef40 f   Entity.obj
 0001:000ce060       ?Event_Bind@idEntity@@IAEXPAV1@@Z 200cf060 f   Entity.obj
 0001:000ce080       ?Event_BindPosition@idEntity@@IAEXPAV1@@Z 200cf080 f   Entity.obj
 0001:000ce0a0       ?Event_BindToJoint@idEntity@@IAEXPAV1@PBDM@Z 200cf0a0 f   Entity.obj
 0001:000ce0d0       ?Event_Unbind@idEntity@@IAEXXZ 200cf0d0 f   Entity.obj
 0001:000ce0e0       ?Event_RemoveBinds@idEntity@@IAEXXZ 200cf0e0 f   Entity.obj
 0001:000ce0f0       ?Event_SpawnBind@idEntity@@IAEXXZ 200cf0f0 f   Entity.obj
 0001:000ce350       ?Event_SetOwner@idEntity@@IAEXPAV1@@Z 200cf350 f   Entity.obj
 0001:000ce3a0       ?Event_SetModel@idEntity@@IAEXPBD@Z 200cf3a0 f   Entity.obj
 0001:000ce3b0       ?Event_SetSkin@idEntity@@IAEXPBD@Z 200cf3b0 f   Entity.obj
 0001:000ce3e0       ?Event_GetShaderParm@idEntity@@IAEXH@Z 200cf3e0 f   Entity.obj
 0001:000ce430       ?Event_SetShaderParm@idEntity@@IAEXHM@Z 200cf430 f   Entity.obj
 0001:000ce450       ?Event_SetShaderParms@idEntity@@IAEXMMMM@Z 200cf450 f   Entity.obj
 0001:000ce490       ?Event_SetColor@idEntity@@IAEXMMM@Z 200cf490 f   Entity.obj
 0001:000ce4c0       ?Event_GetColor@idEntity@@IAEXXZ 200cf4c0 f   Entity.obj
 0001:000ce4e0       ?Event_IsHidden@idEntity@@IAEXXZ 200cf4e0 f   Entity.obj
 0001:000ce500       ?Event_Hide@idEntity@@IAEXXZ 200cf500 f   Entity.obj
 0001:000ce510       ?Event_Show@idEntity@@IAEXXZ 200cf510 f   Entity.obj
 0001:000ce520       ?Event_CacheSoundShader@idEntity@@IAEXPBD@Z 200cf520 f   Entity.obj
 0001:000ce540       ?Event_StartSoundShader@idEntity@@IAEXPBDH@Z 200cf540 f   Entity.obj
 0001:000ce5a0       ?Event_StopSound@idEntity@@IAEXHH@Z 200cf5a0 f   Entity.obj
 0001:000ce5c0       ?Event_StartSound@idEntity@@IAEXPBDHH@Z 200cf5c0 f   Entity.obj
 0001:000ce610       ?Event_FadeSound@idEntity@@IAEXHMM@Z 200cf610 f   Entity.obj
 0001:000ce660       ?Event_GetWorldOrigin@idEntity@@IAEXXZ 200cf660 f   Entity.obj
 0001:000ce680       ?Event_SetWorldOrigin@idEntity@@IAEXABVidVec3@@@Z 200cf680 f   Entity.obj
 0001:000ce6b0       ?Event_GetOrigin@idEntity@@IAEXXZ 200cf6b0 f   Entity.obj
 0001:000ce6f0       ?Event_SetOrigin@idEntity@@IAEXABVidVec3@@@Z 200cf6f0 f   Entity.obj
 0001:000ce700       ?Event_GetAngles@idEntity@@IAEXXZ 200cf700 f   Entity.obj
 0001:000ce750       ?Event_SetAngles@idEntity@@IAEXABVidAngles@@@Z 200cf750 f   Entity.obj
 0001:000ce760       ?Event_SetLinearVelocity@idEntity@@IAEXABVidVec3@@@Z 200cf760 f   Entity.obj
 0001:000ce780       ?Event_GetLinearVelocity@idEntity@@IAEXXZ 200cf780 f   Entity.obj
 0001:000ce7a0       ?Event_SetAngularVelocity@idEntity@@IAEXABVidVec3@@@Z 200cf7a0 f   Entity.obj
 0001:000ce7c0       ?Event_GetAngularVelocity@idEntity@@IAEXXZ 200cf7c0 f   Entity.obj
 0001:000ce7e0       ?Event_SetSize@idEntity@@IAEXABVidVec3@@0@Z 200cf7e0 f   Entity.obj
 0001:000ce850       ?Event_GetSize@idEntity@@IAEXXZ 200cf850 f   Entity.obj
 0001:000ce8a0       ?Event_GetMins@idEntity@@IAEXXZ 200cf8a0 f   Entity.obj
 0001:000ce8c0       ?Event_GetMaxs@idEntity@@IAEXXZ 200cf8c0 f   Entity.obj
 0001:000ce8e0       ?Event_Touches@idEntity@@IAEXPAV1@@Z 200cf8e0 f   Entity.obj
 0001:000ce980       ?Event_SetGuiParm@idEntity@@IAEXPBD0@Z 200cf980 f   Entity.obj
 0001:000ceaf0       ?Event_SetGuiFloat@idEntity@@IAEXPBDM@Z 200cfaf0 f   Entity.obj
 0001:000ceb50       ?Event_GetNextKey@idEntity@@IAEXPBD0@Z 200cfb50 f   Entity.obj
 0001:000ceba0       ?Event_SetKey@idEntity@@IAEXPBD0@Z 200cfba0 f   Entity.obj
 0001:000cebb0       ?Event_GetKey@idEntity@@IAEXPBD@Z 200cfbb0 f   Entity.obj
 0001:000cebf0       ?Event_GetIntKey@idEntity@@IAEXPBD@Z 200cfbf0 f   Entity.obj
 0001:000cec30       ?Event_GetFloatKey@idEntity@@IAEXPBD@Z 200cfc30 f   Entity.obj
 0001:000cec70       ?Event_GetVectorKey@idEntity@@IAEXPBD@Z 200cfc70 f   Entity.obj
 0001:000ceca0       ?Event_GetEntityKey@idEntity@@IAEXPBD@Z 200cfca0 f   Entity.obj
 0001:000ced10       ?Event_RestorePosition@idEntity@@IAEXXZ 200cfd10 f   Entity.obj
 0001:000ceeb0       ?Event_UpdateCameraTarget@idEntity@@IAEXXZ 200cfeb0 f   Entity.obj
 0001:000cf080       ?Event_DistanceTo@idEntity@@IAEXPAV1@@Z 200d0080 f   Entity.obj
 0001:000cf160       ?Event_DistanceToPoint@idEntity@@IAEXABVidVec3@@@Z 200d0160 f   Entity.obj
 0001:000cf200       ?Event_StartFx@idEntity@@IAEXPBD@Z 200d0200 f   Entity.obj
 0001:000cf210       ?Event_WaitFrame@idEntity@@IAEXXZ 200d0210 f   Entity.obj
 0001:000cf230       ?Event_Wait@idEntity@@IAEXM@Z 200d0230 f   Entity.obj
 0001:000cf270       ?Event_HasFunction@idEntity@@IAEXPBD@Z 200d0270 f   Entity.obj
 0001:000cf2a0       ?Event_CallFunction@idEntity@@IAEXPBD@Z 200d02a0 f   Entity.obj
 0001:000cf2e0       ?Event_SetNeverDormant@idEntity@@IAEXH@Z 200d02e0 f   Entity.obj
 0001:000cf310       ?Event_SetContents@idEntity@@IAEXH@Z 200d0310 f   Entity.obj
 0001:000cf330       ?Event_GetLastBlocker@idEntity@@IAEXPAVidThread@@@Z 200d0330 f   Entity.obj
 0001:000cf360       ?Event_ClearSkin@idEntity@@IAEXXZ 200d0360 f   Entity.obj
 0001:000cf370       ?Event_PlayEffect@idEntity@@IAEXPBD0_N@Z 200d0370 f   Entity.obj
 0001:000cf410       ?Event_StopEffect@idEntity@@IAEXPBD@Z 200d0410 f   Entity.obj
 0001:000cf430       ?Event_StopAllEffects@idEntity@@IAEXXZ 200d0430 f   Entity.obj
 0001:000cf440       ?Event_GetHealth@idEntity@@IAEXXZ 200d0440 f   Entity.obj
 0001:000cf460       ?Event_ShowSurface@idEntity@@IAEXPBD@Z 200d0460 f   Entity.obj
 0001:000cf470       ?Event_HideSurface@idEntity@@IAEXPBD@Z 200d0470 f   Entity.obj
 0001:000cf480       ?Event_GuiEvent@idEntity@@IAEXPBD@Z 200d0480 f   Entity.obj
 0001:000cf4a0       ?Event_PlaybackCallback@idEntity@@IAEXHHH@Z 200d04a0 f   Entity.obj
 0001:000cf4d0       ?Event_GetBindMaster@idEntity@@IAEXXZ 200d04d0 f   Entity.obj
 0001:000cf4e0       ?Event_ApplyImpulse@idEntity@@IAEXPAV1@ABVidVec3@@1@Z 200d04e0 f   Entity.obj
 0001:000cf500       ?Event_UnbindTargets@idEntity@@IAEXPAV1@@Z 200d0500 f   Entity.obj
 0001:000cf510       ?Event_RemoveNullTargets@idEntity@@IAEXXZ 200d0510 f   Entity.obj
 0001:000cf520       ?Event_IsA@idEntity@@IAEXPBD@Z 200d0520 f   Entity.obj
 0001:000cf5d0       ?Event_IsSameTypeAs@idEntity@@IAEXPBV1@@Z 200d05d0 f   Entity.obj
 0001:000cf610       ?Event_MatchPrefix@idEntity@@IAEXPBD0@Z 200d0610 f   Entity.obj
 0001:000cf670       ?Event_ClearTargetList@idEntity@@IAEXM@Z 200d0670 f   Entity.obj
 0001:000cf6a0       ?Event_AppendTarget@idEntity@@IAEXPAV1@@Z 200d06a0 f   Entity.obj
 0001:000cf6d0       ?Event_RemoveTarget@idEntity@@IAEXPAV1@@Z 200d06d0 f   Entity.obj
 0001:000cf6e0       ?Event_SetHealth@idEntity@@IAEXM@Z 200d06e0 f   Entity.obj
 0001:000cf700       ?RegisterClassA@idAnimatedEntity@@SAXXZ 200d0700 f   Entity.obj
 0001:000cf7c0       ?CreateInstance@idAnimatedEntity@@SAPAVidClass@@XZ 200d07c0 f   Entity.obj
 0001:000cf860       ?GetClassType@idAnimatedEntity@@SAAAVidTypeInfo@@XZ 200d0860 f   Entity.obj
 0001:000cf870       ?GetType@idAnimatedEntity@@UBEPAVidTypeInfo@@XZ 200d0870 f   Entity.obj
 0001:000cf880       ??0idAnimatedEntity@@QAE@XZ 200d0880 f   Entity.obj
 0001:000cf8f0       ??1idAnimatedEntity@@UAE@XZ 200d08f0 f   Entity.obj
 0001:000cf940       ?Save@idAnimatedEntity@@QBEXPAVidSaveGame@@@Z 200d0940 f   Entity.obj
 0001:000cf950       ?Restore@idAnimatedEntity@@QAEXPAVidRestoreGame@@@Z 200d0950 f   Entity.obj
 0001:000cf9e0       ?ClientPredictionThink@idAnimatedEntity@@UAEXXZ 200d09e0 f   Entity.obj
 0001:000cfa00       ?Think@idAnimatedEntity@@UAEXXZ 200d0a00 f   Entity.obj
 0001:000cfa20       ?UpdateAnimation@idAnimatedEntity@@QAEXXZ 200d0a20 f   Entity.obj
 0001:000cfaf0       ?GetAnimator@idAnimatedEntity@@UAEPAVidAnimator@@XZ 200d0af0 f   Entity.obj
 0001:000cfb00       ?SetModel@idAnimatedEntity@@UAEXPBD@Z 200d0b00 f   Entity.obj
 0001:000cfba0       ?GetJointWorldTransform@idAnimatedEntity@@QAE_NW4jointHandle_t@@HAAVidVec3@@AAVidMat3@@@Z 200d0ba0 f   Entity.obj
 0001:000cfc80       ?GetJointTransformForAnim@idAnimatedEntity@@QBE_NW4jointHandle_t@@HHAAVidVec3@@AAVidMat3@@@Z 200d0c80 f   Entity.obj
 0001:000cfeb0       ?GetDefaultSurfaceType@idAnimatedEntity@@UBEHXZ 200d0eb0 f   Entity.obj
 0001:000cfec0       ?AddDamageEffect@idAnimatedEntity@@UAEXABUtrace_t@@ABVidVec3@@PBDPAVidEntity@@@Z 200d0ec0 f   Entity.obj
 0001:000d0370       ?ClientReceiveEvent@idAnimatedEntity@@UAE_NHHABVidBitMsg@@@Z 200d1370 f   Entity.obj
 0001:000d0550       ?UpdateRenderEntityCallback@idAnimatedEntity@@UAEXXZ 200d1550 f   Entity.obj
 0001:000d0580       ?Event_ClearAnims@idAnimatedEntity@@IAEXXZ 200d1580 f   Entity.obj
 0001:000d05a0       ?Event_GetJointHandle@idAnimatedEntity@@AAEXPBD@Z 200d15a0 f   Entity.obj
 0001:000d05c0       ?Event_ClearAllJoints@idAnimatedEntity@@AAEXXZ 200d15c0 f   Entity.obj
 0001:000d05d0       ?Event_ClearJoint@idAnimatedEntity@@AAEXW4jointHandle_t@@@Z 200d15d0 f   Entity.obj
 0001:000d05e0       ?Event_SetJointPos@idAnimatedEntity@@AAEXW4jointHandle_t@@W4jointModTransform_t@@ABVidVec3@@@Z 200d15e0 f   Entity.obj
 0001:000d05f0       ?Event_SetJointAngle@idAnimatedEntity@@AAEXW4jointHandle_t@@W4jointModTransform_t@@ABVidAngles@@@Z 200d15f0 f   Entity.obj
 0001:000d0680       ?Event_GetJointPos@idAnimatedEntity@@AAEXW4jointHandle_t@@@Z 200d1680 f   Entity.obj
 0001:000d06d0       ?Event_GetJointAngle@idAnimatedEntity@@AAEXW4jointHandle_t@@@Z 200d16d0 f   Entity.obj
 0001:000d0740       ?Event_SetJointAngularVelocity@idAnimatedEntity@@AAEXPBDMMMH@Z 200d1740 f   Entity.obj
 0001:000d07a0       ?Event_CollapseJoints@idAnimatedEntity@@AAEXPBD0@Z 200d17a0 f   Entity.obj
 0001:000d07d0       ?UpdateGuiParms@@YAXPAVidUserInterface@@PBVidDict@@@Z 200d17d0 f   Entity.obj
 0001:000d0890       ?Register_idEntity@@YAXXZ  200d1890 f   Entity.obj
 0001:000d08a0       ?AddRenderGui@@YAXPBDPAPAVidUserInterface@@PBVidDict@@@Z 200d18a0 f   Entity.obj
 0001:000d0920       ?Register_idAnimatedEntity@@YAXXZ 200d1920 f   Entity.obj
 0001:000d0930       ??1?$idCurve_Spline@VidVec3@@@@UAE@XZ 200d1930 f i Entity.obj
 0001:000d0a00       ??_E?$idCurve@VidVec3@@@@UAEPAXI@Z 200d1a00 f i Entity.obj
 0001:000d0a00       ??_G?$idCurve@VidVec3@@@@UAEPAXI@Z 200d1a00 f i Entity.obj
 0001:000d0af0       ??_E?$idCurve_BSpline@VidVec3@@@@UAEPAXI@Z 200d1af0 f i Entity.obj
 0001:000d0af0       ??_E?$idCurve_NonUniformBSpline@VidVec3@@@@UAEPAXI@Z 200d1af0 f i Entity.obj
 0001:000d0af0       ??_G?$idCurve_BSpline@VidVec3@@@@UAEPAXI@Z 200d1af0 f i Entity.obj
 0001:000d0af0       ??_G?$idCurve_NonUniformBSpline@VidVec3@@@@UAEPAXI@Z 200d1af0 f i Entity.obj
 0001:000d0b20       ??_E?$idCurve_CatmullRomSpline@VidVec3@@@@UAEPAXI@Z 200d1b20 f i Entity.obj
 0001:000d0b20       ??_G?$idCurve_CatmullRomSpline@VidVec3@@@@UAEPAXI@Z 200d1b20 f i Entity.obj
 0001:000d0b50       ??_E?$idCurve_NURBS@VidVec3@@@@UAEPAXI@Z 200d1b50 f i Entity.obj
 0001:000d0b50       ??_G?$idCurve_NURBS@VidVec3@@@@UAEPAXI@Z 200d1b50 f i Entity.obj
 0001:000d0bf0       ??_EidAnimatedEntity@@UAEPAXI@Z 200d1bf0 f i Entity.obj
 0001:000d0bf0       ??_GidAnimatedEntity@@UAEPAXI@Z 200d1bf0 f i Entity.obj
 0001:000d0c30       ?AddValue@?$idCurve@VidVec3@@@@UAEHMABVidVec3@@@Z 200d1c30 f i Entity.obj
 0001:000d1200       ?AddValue@?$idCurve_NURBS@VidVec3@@@@UAEHMABVidVec3@@@Z 200d2200 f i Entity.obj
 0001:000d1aa0       ?AddValue@?$idCurve_NURBS@VidVec3@@@@UAEHMABVidVec3@@M@Z 200d2aa0 f i Entity.obj
 0001:000d2340       ?Basis@?$idCurve_BSpline@VidVec3@@@@IBEMHHM@Z 200d3340 f i Entity.obj
 0001:000d2a10       ?Clear@?$idCurve@VidVec3@@@@UAEXXZ 200d3a10 f i Entity.obj
 0001:000d2af0       ?Clear@?$idCurve_NURBS@VidVec3@@@@UAEXXZ 200d3af0 f i Entity.obj
 0001:000d2c10       ?GetBoundaryType@?$idCurve_Spline@VidVec3@@@@UBE?AW4boundary_t@1@XZ 200d3c10 f i Entity.obj
 0001:000d2c20       ?GetCloseTime@?$idCurve_Spline@VidVec3@@@@UBEMXZ 200d3c20 f i Entity.obj
 0001:000d2c50       ?GetCurrentFirstDerivative@?$idCurve@VidVec3@@@@UBE?AVidVec3@@M@Z 200d3c50 f i Entity.obj
 0001:000d2c50       ?GetCurrentSecondDerivative@?$idCurve@VidVec3@@@@UBE?AVidVec3@@M@Z 200d3c50 f i Entity.obj
 0001:000d2c90       ?GetCurrentFirstDerivative@?$idCurve_BSpline@VidVec3@@@@UBE?AVidVec3@@M@Z 200d3c90 f i Entity.obj
 0001:000d3e20       ?GetCurrentFirstDerivative@?$idCurve_CatmullRomSpline@VidVec3@@@@UBE?AVidVec3@@M@Z 200d4e20 f i Entity.obj
 0001:000d45a0       ?GetCurrentFirstDerivative@?$idCurve_NURBS@VidVec3@@@@UBE?AVidVec3@@M@Z 200d55a0 f i Entity.obj
 0001:000d5450       ?GetCurrentFirstDerivative@?$idCurve_NonUniformBSpline@VidVec3@@@@UBE?AVidVec3@@M@Z 200d6450 f i Entity.obj
 0001:000d5e10       ?GetCurrentSecondDerivative@?$idCurve_BSpline@VidVec3@@@@UBE?AVidVec3@@M@Z 200d6e10 f i Entity.obj
 0001:000d7f90       ?GetCurrentSecondDerivative@?$idCurve_CatmullRomSpline@VidVec3@@@@UBE?AVidVec3@@M@Z 200d8f90 f i Entity.obj
 0001:000d86d0       ?GetCurrentSecondDerivative@?$idCurve_NURBS@VidVec3@@@@UBE?AVidVec3@@M@Z 200d96d0 f i Entity.obj
 0001:000da090       ?GetCurrentSecondDerivative@?$idCurve_NonUniformBSpline@VidVec3@@@@UBE?AVidVec3@@M@Z 200db090 f i Entity.obj
 0001:000dae20       ?GetCurrentValue@?$idCurve@VidVec3@@@@UBE?AVidVec3@@M@Z 200dbe20 f i Entity.obj
 0001:000daf10       ?GetCurrentValue@?$idCurve_BSpline@VidVec3@@@@UBE?AVidVec3@@M@Z 200dbf10 f i Entity.obj
 0001:000db940       ?GetCurrentValue@?$idCurve_CatmullRomSpline@VidVec3@@@@UBE?AVidVec3@@M@Z 200dc940 f i Entity.obj
 0001:000dbf00       ?GetCurrentValue@?$idCurve_NURBS@VidVec3@@@@UBE?AVidVec3@@M@Z 200dcf00 f i Entity.obj
 0001:000dc5b0       ?GetCurrentValue@?$idCurve_NonUniformBSpline@VidVec3@@@@UBE?AVidVec3@@M@Z 200dd5b0 f i Entity.obj
 0001:000dcb90       ?GetOrder@?$idCurve_BSpline@VidVec3@@@@UBEHXZ 200ddb90 f i Entity.obj
 0001:000dcba0       ?IsDone@?$idCurve@VidVec3@@@@UBE_NM@Z 200ddba0 f i Entity.obj
 0001:000dcbc0       ?IsDone@?$idCurve_Spline@VidVec3@@@@UBE_NM@Z 200ddbc0 f i Entity.obj
 0001:000dcbf0       ?RemoveIndex@?$idCurve@VidVec3@@@@UAEXH@Z 200ddbf0 f i Entity.obj
 0001:000dcc80       ?RemoveIndex@?$idCurve_NURBS@VidVec3@@@@UAEXH@Z 200ddc80 f i Entity.obj
 0001:000dcd50       ?SetBoundaryType@?$idCurve_Spline@VidVec3@@@@UAEXW4boundary_t@1@@Z 200ddd50 f i Entity.obj
 0001:000dcd70       ?SetCloseTime@?$idCurve_Spline@VidVec3@@@@UAEXM@Z 200ddd70 f i Entity.obj
 0001:000dcd90       ?SetOrder@?$idCurve_BSpline@VidVec3@@@@UAEXH@Z 200ddd90 f i Entity.obj
 0001:000dcda0       ?Weld@?$idCurve@VidVec3@@@@UBE_NPAV1@@Z 200ddda0 f i Entity.obj
 0001:000dcdb0       ?Weld@?$idCurve_NonUniformBSpline@VidVec3@@@@UBE_NPAV?$idCurve@VidVec3@@@@@Z 200dddb0 f i Entity.obj
 0001:000dcff0       ??1idFreeView@@QAE@XZ      200ddff0 f   FreeView.obj
 0001:000dd010       ?SetFreeView@idFreeView@@QAEXH@Z 200de010 f   FreeView.obj
 0001:000dd120       ?PickRandomSpawn@idFreeView@@QAEXXZ 200de120 f   FreeView.obj
 0001:000dd1f0       ?Fly@idFreeView@@QAEXABVusercmd_t@@@Z 200de1f0 f   FreeView.obj
 0001:000dd2c0       ?Draw@idFreeView@@QAEXXZ   200de2c0 f   FreeView.obj
 0001:000dd450       ?Shutdown@idFreeView@@QAEXXZ 200de450 f   FreeView.obj
 0001:000dd470       ?GetOrigin@idFreeView@@QAEABVidVec3@@XZ 200de470 f   FreeView.obj
 0001:000dd480       ?Setup@idFreeView@@AAEXXZ  200de480 f   FreeView.obj
 0001:000dd690       ?FlushUnusedAnims@idGameEdit@@UAEXXZ 200de690 f   GameEdit.obj
 0001:000dd6a0       ?ClearEntitySelection@idGameEdit@@UAEXXZ 200de6a0 f   GameEdit.obj
 0001:000dd6f0       ?GetSelectedEntities@idGameEdit@@UAEHQAPAVidEntity@@H@Z 200de6f0 f   GameEdit.obj
 0001:000dd740       ?AddSelectedEntity@idGameEdit@@UAEXPAVidEntity@@@Z 200de740 f   GameEdit.obj
 0001:000dd770       ?TriggerSelected@idGameEdit@@UAEXXZ 200de770 f   GameEdit.obj
 0001:000dd7e0       ?FindEntityDefDict@idGameEdit@@UBEPBVidDict@@PBD_N@Z 200de7e0 f   GameEdit.obj
 0001:000dd7f0       ?SpawnEntityDef@idGameEdit@@UAEXABVidDict@@PAPAVidEntity@@@Z 200de7f0 f   GameEdit.obj
 0001:000dd810       ?FindEntity@idGameEdit@@UBEPAVidEntity@@PBD@Z 200de810 f   GameEdit.obj
 0001:000dd820       ?GetUniqueEntityName@idGameEdit@@UBEPBDPBD@Z 200de820 f   GameEdit.obj
 0001:000dd890       ?EntityGetOrigin@idGameEdit@@UBEXPAVidEntity@@AAVidVec3@@@Z 200de890 f   GameEdit.obj
 0001:000dd8d0       ?EntityGetAxis@idGameEdit@@UBEXPAVidEntity@@AAVidMat3@@@Z 200de8d0 f   GameEdit.obj
 0001:000dd930       ?EntitySetOrigin@idGameEdit@@UAEXPAVidEntity@@ABVidVec3@@@Z 200de930 f   GameEdit.obj
 0001:000dd950       ?EntitySetAxis@idGameEdit@@UAEXPAVidEntity@@ABVidMat3@@@Z 200de950 f   GameEdit.obj
 0001:000dd970       ?EntityTranslate@idGameEdit@@UAEXPAVidEntity@@ABVidVec3@@@Z 200de970 f   GameEdit.obj
 0001:000dd9a0       ?EntityGetSpawnArgs@idGameEdit@@UBEPBVidDict@@PBVidEntity@@@Z 200de9a0 f   GameEdit.obj
 0001:000dd9c0       ?EntityUpdateChangeableSpawnArgs@idGameEdit@@UAEXPAVidEntity@@PBVidDict@@@Z 200de9c0 f   GameEdit.obj
 0001:000dd9e0       ?EntityChangeSpawnArgs@idGameEdit@@UAEXPAVidEntity@@PBVidDict@@@Z 200de9e0 f   GameEdit.obj
 0001:000dda40       ?EntityUpdateVisuals@idGameEdit@@UAEXPAVidEntity@@@Z 200dea40 f   GameEdit.obj
 0001:000dda60       ?EntitySetModel@idGameEdit@@UAEXPAVidEntity@@PBD@Z 200dea60 f   GameEdit.obj
 0001:000dda90       ?EntityStopSound@idGameEdit@@UAEXPAVidEntity@@@Z 200dea90 f   GameEdit.obj
 0001:000ddab0       ?EntityDelete@idGameEdit@@UAEXPAVidEntity@@@Z 200deab0 f   GameEdit.obj
 0001:000ddad0       ?EntitySetColor@idGameEdit@@UAEXPAVidEntity@@VidVec3@@@Z 200dead0 f   GameEdit.obj
 0001:000ddaf0       ?EntityGetName@idGameEdit@@UBEPBDPAVidEntity@@@Z 200deaf0 f   GameEdit.obj
 0001:000ddb10       ?EntityToSafeId@idGameEdit@@UBEHPAVidEntity@@@Z 200deb10 f   GameEdit.obj
 0001:000ddb40       ?EntityFromSafeId@idGameEdit@@UBEPAVidEntity@@H@Z 200deb40 f   GameEdit.obj
 0001:000ddb70       ?EntitySetSkin@idGameEdit@@UBEXPAVidEntity@@PBD@Z 200deb70 f   GameEdit.obj
 0001:000ddba0       ?EntityClearSkin@idGameEdit@@UBEXPAVidEntity@@@Z 200deba0 f   GameEdit.obj
 0001:000ddbb0       ?EntityShow@idGameEdit@@UBEXPAVidEntity@@@Z 200debb0 f   GameEdit.obj
 0001:000ddbc0       ?EntityHide@idGameEdit@@UBEXPAVidEntity@@@Z 200debc0 f   GameEdit.obj
 0001:000ddbd0       ?EntityGetBounds@idGameEdit@@UBEXPAVidEntity@@AAVidBounds@@@Z 200debd0 f   GameEdit.obj
 0001:000ddc20       ?EntityPlayAnim@idGameEdit@@UAEHPAVidEntity@@HHH@Z 200dec20 f   GameEdit.obj
 0001:000ddc80       ?EntitySetFrame@idGameEdit@@UAEXPAVidEntity@@HHHH@Z 200dec80 f   GameEdit.obj
 0001:000ddce0       ?EntityStopAllEffects@idGameEdit@@UAEXPAVidEntity@@@Z 200dece0 f   GameEdit.obj
 0001:000ddd00       ?EntityGetDelta@idGameEdit@@UAEXPAVidEntity@@HHAAVidVec3@@@Z 200ded00 f   GameEdit.obj
 0001:000ddd20       ?EntityRemoveOriginOffset@idGameEdit@@UAEXPAVidEntity@@_N@Z 200ded20 f   GameEdit.obj
 0001:000ddd40       ?EntityGetClassname@idGameEdit@@UBEPBDPAVidEntity@@@Z 200ded40 f   GameEdit.obj
 0001:000ddd50       ?EntityIsDerivedFrom@idGameEdit@@UBE_NPAVidEntity@@PBD@Z 200ded50 f   GameEdit.obj
 0001:000ddd90       ?EntityGetRenderEntity@idGameEdit@@UAEPAUrenderEntity_s@@PAVidEntity@@@Z 200ded90 f   GameEdit.obj
 0001:000ddda0       ?EntityGetNextTeamEntity@idGameEdit@@UBEPAVidEntity@@PAV2@@Z 200deda0 f   GameEdit.obj
 0001:000dddb0       ?GetPlayerInfo@idGameEdit@@UBEXAAVidVec3@@AAVidMat3@@HPAVidAngles@@@Z 200dedb0 f   GameEdit.obj
 0001:000ddde0       ?SetPlayerInfo@idGameEdit@@UBEXAAVidVec3@@AAVidMat3@@H@Z 200dede0 f   GameEdit.obj
 0001:000dde00       ?EntitySetName@idGameEdit@@UAEXPAVidEntity@@PBD@Z 200dee00 f   GameEdit.obj
 0001:000dde20       ?PlayerIsValid@idGameEdit@@UBE_NXZ 200dee20 f   GameEdit.obj
 0001:000dde30       ?PlayerGetOrigin@idGameEdit@@UBEXAAVidVec3@@@Z 200dee30 f   GameEdit.obj
 0001:000dde70       ?PlayerGetAxis@idGameEdit@@UBEXAAVidMat3@@@Z 200dee70 f   GameEdit.obj
 0001:000dded0       ?PlayerGetViewAngles@idGameEdit@@UBEXAAVidAngles@@@Z 200deed0 f   GameEdit.obj
 0001:000ddf00       ?PlayerGetEyePosition@idGameEdit@@UBEXAAVidVec3@@@Z 200def00 f   GameEdit.obj
 0001:000ddf40       ?PlayerTraceFromEye@idGameEdit@@UAE_NAAUtrace_t@@MH@Z 200def40 f   GameEdit.obj
 0001:000ddff0       ?EffectRefreshTemplate@idGameEdit@@UBEXPBVidDecl@@@Z 200deff0 f   GameEdit.obj
 0001:000de070       ?LightSetParms@idGameEdit@@UAEXPAVidEntity@@HHM@Z 200df070 f   GameEdit.obj
 0001:000de100       ?GetGameTime@idGameEdit@@UBEHPAH@Z 200df100 f   GameEdit.obj
 0001:000de120       ?SetGameTime@idGameEdit@@UBEXH@Z 200df120 f   GameEdit.obj
 0001:000de140       ?TracePoint@idGameEdit@@UBE_NAAUtrace_t@@ABVidVec3@@1H@Z 200df140 f   GameEdit.obj
 0001:000de170       ?CacheDictionaryMedia@idGameEdit@@UBEXPBVidDict@@@Z 200df170 f   GameEdit.obj
 0001:000de180       ?SetCamera@idGameEdit@@UBEXPAVidEntity@@@Z 200df180 f   GameEdit.obj
 0001:000de1b0       ?GetGameEntityRegisterTime@idGameEdit@@UBEHXZ 200df1b0 f   GameEdit.obj
 0001:000de1c0       ?GetFirstSpawnedEntity@idGameEdit@@UBEPAVidEntity@@XZ 200df1c0 f   GameEdit.obj
 0001:000de1e0       ?GetNextSpawnedEntity@idGameEdit@@UBEPAVidEntity@@PAV2@@Z 200df1e0 f   GameEdit.obj
 0001:000de210       ?ScriptGetStatementLineNumber@idGameEdit@@UBEHPAVidProgram@@H@Z 200df210 f   GameEdit.obj
 0001:000de230       ?ScriptGetStatementFileName@idGameEdit@@UBEPBDPAVidProgram@@H@Z 200df230 f   GameEdit.obj
 0001:000de260       ?ScriptGetStatementOperator@idGameEdit@@UBEHPAVidProgram@@H@Z 200df260 f   GameEdit.obj
 0001:000de280       ?ScriptGetCurrentFunction@idGameEdit@@UBEPAXPAVidInterpreter@@@Z 200df280 f   GameEdit.obj
 0001:000de290       ?ScriptGetCurrentFunctionName@idGameEdit@@UBEPBDPAVidInterpreter@@@Z 200df290 f   GameEdit.obj
 0001:000de2c0       ?ScriptGetCallstackDepth@idGameEdit@@UBEHPAVidInterpreter@@@Z 200df2c0 f   GameEdit.obj
 0001:000de2d0       ?ScriptGetCallstackFunction@idGameEdit@@UBEPAXPAVidInterpreter@@H@Z 200df2d0 f   GameEdit.obj
 0001:000de2f0       ?ScriptGetCallstackFunctionName@idGameEdit@@UBEPBDPAVidInterpreter@@H@Z 200df2f0 f   GameEdit.obj
 0001:000de310       ?ScriptGetCallstackStatement@idGameEdit@@UBEHPAVidInterpreter@@H@Z 200df310 f   GameEdit.obj
 0001:000de330       ?ScriptIsReturnOperator@idGameEdit@@UBE_NH@Z 200df330 f   GameEdit.obj
 0001:000de340       ?ScriptGetRegisterValue@idGameEdit@@UBEPBDPAVidInterpreter@@PBDH@Z 200df340 f   GameEdit.obj
 0001:000de3d0       ?ScriptGetThread@idGameEdit@@UBEPAVidThread@@PAVidInterpreter@@@Z 200df3d0 f   GameEdit.obj
 0001:000de3e0       ?ThreadGetCount@idGameEdit@@UAEHXZ 200df3e0 f   GameEdit.obj
 0001:000de3f0       ?ThreadGetThread@idGameEdit@@UAEPAVidThread@@H@Z 200df3f0 f   GameEdit.obj
 0001:000de410       ?ThreadGetName@idGameEdit@@UAEPBDPAVidThread@@@Z 200df410 f   GameEdit.obj
 0001:000de420       ?ThreadGetNumber@idGameEdit@@UAEHPAVidThread@@@Z 200df420 f   GameEdit.obj
 0001:000de430       ?ThreadGetState@idGameEdit@@UAEPBDPAVidThread@@@Z 200df430 f   GameEdit.obj
 0001:000de480       ?GetClassDebugInfo@idGameEdit@@UAEXPBVidEntity@@P6AXPBD11PAX@Z2@Z 200df480 f   GameEdit.obj
 0001:000de4a0       ?MapGetEntityDict@idGameEdit@@UBEPBVidDict@@PBD@Z 200df4a0 f   GameEdit.obj
 0001:000de4d0       ?MapSave@idGameEdit@@UBEXPBD@Z 200df4d0 f   GameEdit.obj
 0001:000de610       ?MapHasExportEntities@idGameEdit@@UBE_NXZ 200df610 f   GameEdit.obj
 0001:000de630       ?MapLoaded@idGameEdit@@UBEPBDXZ 200df630 f   GameEdit.obj
 0001:000de650       ?GetAASFile@idGameEdit@@UAEPAVidAASFile@@H@Z 200df650 f   GameEdit.obj
 0001:000de690       ?MapSetEntityKeyVal@idGameEdit@@UBEXPBD00@Z 200df690 f   GameEdit.obj
 0001:000de6d0       ?MapCopyDictToEntity@idGameEdit@@UBEXPBDPBVidDict@@@Z 200df6d0 f   GameEdit.obj
 0001:000de750       ?MapGetUniqueMatchingKeyVals@idGameEdit@@UBEHPBDQAPBDH@Z 200df750 f   GameEdit.obj
 0001:000de7e0       ?MapAddEntity@idGameEdit@@UBEXPBVidDict@@@Z 200df7e0 f   GameEdit.obj
 0001:000de880       ?MapGetEntitiesMatchingClassWithString@idGameEdit@@UBEHPBD0QAPBDH@Z 200df880 f   GameEdit.obj
 0001:000dea50       ?MapRemoveEntity@idGameEdit@@UBEXPBD@Z 200dfa50 f   GameEdit.obj
 0001:000dea80       ?MapEntityTranslate@idGameEdit@@UBEXPBDABVidVec3@@@Z 200dfa80 f   GameEdit.obj
 0001:000deb20       ?RegisterClassA@idCursor3D@@SAXXZ 200dfb20 f   GameEdit.obj
 0001:000debe0       ?CreateInstance@idCursor3D@@SAPAVidClass@@XZ 200dfbe0 f   GameEdit.obj
 0001:000dec80       ?GetClassType@idCursor3D@@SAAAVidTypeInfo@@XZ 200dfc80 f   GameEdit.obj
 0001:000dec90       ?GetType@idCursor3D@@UBEPAVidTypeInfo@@XZ 200dfc90 f   GameEdit.obj
 0001:000deca0       ??0idCursor3D@@QAE@XZ      200dfca0 f   GameEdit.obj
 0001:000ded10       ??1idCursor3D@@UAE@XZ      200dfd10 f   GameEdit.obj
 0001:000ded30       ?Spawn@idCursor3D@@QAEXXZ  200dfd30 f   GameEdit.obj
 0001:000ded40       ?Present@idCursor3D@@UAEXXZ 200dfd40 f   GameEdit.obj
 0001:000dee40       ?Think@idCursor3D@@UAEXXZ  200dfe40 f   GameEdit.obj
 0001:000dee70       ??0idDragEntity@@QAE@XZ    200dfe70 f   GameEdit.obj
 0001:000deee0       ??1idDragEntity@@QAE@XZ    200dfee0 f   GameEdit.obj
 0001:000def40       ?Clear@idDragEntity@@QAEXXZ 200dff40 f   GameEdit.obj
 0001:000defb0       ?Update@idDragEntity@@QAEXPAVidPlayer@@@Z 200dffb0 f   GameEdit.obj
 0001:000df9d0       ?SetSelected@idDragEntity@@QAEXPAVidEntity@@@Z 200e09d0 f   GameEdit.obj
 0001:000dfa10       ?DeleteSelected@idDragEntity@@QAEXXZ 200e0a10 f   GameEdit.obj
 0001:000dfa50       ?BindSelected@idDragEntity@@QAEXXZ 200e0a50 f   GameEdit.obj
 0001:000dfdc0       ?UnbindSelected@idDragEntity@@QAEXXZ 200e0dc0 f   GameEdit.obj
 0001:000dfef0       ?StopDrag@idDragEntity@@AAEXXZ 200e0ef0 f   GameEdit.obj
 0001:000dff10       ??0idEditEntities@@QAE@XZ  200e0f10 f   GameEdit.obj
 0001:000dffe0       ?SelectEntity@idEditEntities@@QAE_NABVidVec3@@0PBVidEntity@@@Z 200e0fe0 f   GameEdit.obj
 0001:000e0130       ?AddSelectedEntity@idEditEntities@@QAEXPAVidEntity@@@Z 200e1130 f   GameEdit.obj
 0001:000e0340       ?RemoveSelectedEntity@idEditEntities@@QAEXPAVidEntity@@@Z 200e1340 f   GameEdit.obj
 0001:000e03d0       ?ClearSelectedEntities@idEditEntities@@QAEXXZ 200e13d0 f   GameEdit.obj
 0001:000e0470       ?DisplayEntities@idEditEntities@@QAEXXZ 200e1470 f   GameEdit.obj
 0001:000e2b60       ?EntityIsSelectable@idEditEntities@@QAE_NPAVidEntity@@PAVidVec4@@PAVidStr@@@Z 200e3b60 f   GameEdit.obj
 0001:000e2ce0       ?FindTraceEntity@idEditEntities@@QAEPAVidEntity@@VidVec3@@0PBV2@@Z 200e3ce0 f   GameEdit.obj
 0001:000e2e40       ?Register_idCursor3D@@YAXXZ 200e3e40 f   GameEdit.obj
 0001:000e2e50       ?RegisterClassA@rvModviewModel@@SAXXZ 200e3e50 f   GameEdit.obj
 0001:000e2f10       ?CreateInstance@rvModviewModel@@SAPAVidClass@@XZ 200e3f10 f   GameEdit.obj
 0001:000e2fb0       ?GetClassType@rvModviewModel@@SAAAVidTypeInfo@@XZ 200e3fb0 f   GameEdit.obj
 0001:000e2fc0       ?GetType@rvModviewModel@@UBEPAVidTypeInfo@@XZ 200e3fc0 f   GameEdit.obj
 0001:000e2fd0       ??0rvModviewModel@@QAE@XZ  200e3fd0 f   GameEdit.obj
 0001:000e2ff0       ?Event_Speak@rvModviewModel@@AAEXPBD@Z 200e3ff0 f   GameEdit.obj
 0001:000e3070       ?Register_rvModviewModel@@YAXXZ 200e4070 f   GameEdit.obj
 0001:000e3080       ??_EidGameEdit@@UAEPAXI@Z  200e4080 f i GameEdit.obj
 0001:000e3080       ??_GidGameEdit@@UAEPAXI@Z  200e4080 f i GameEdit.obj
 0001:000e30b0       ??0idMapEntity@@QAE@XZ     200e40b0 f i GameEdit.obj
 0001:000e3290       ??0ammodata_s@@QAE@XZ      200e4290 f i Target.obj
 0001:000e3290       ??0selectedTypeInfo_s@@QAE@XZ 200e4290 f i GameEdit.obj
 0001:000e32c0       ??1ammodata_s@@QAE@XZ      200e42c0 f i Target.obj
 0001:000e32c0       ??1selectedTypeInfo_s@@QAE@XZ 200e42c0 f i GameEdit.obj
 0001:000e32c0       ??1serverAdminData_t@idMultiplayerGame@@QAE@XZ 200e42c0 f i MultiplayerGame.obj
 0001:000e32c0       ??1spawnerCallback_t@@QAE@XZ 200e42c0 f i spawner.obj
 0001:000e3300       ??4selectedTypeInfo_s@@QAEAAU0@ABU0@@Z 200e4300 f i GameEdit.obj
 0001:000e3350       ??_EselectedTypeInfo_s@@QAEPAXI@Z 200e4350 f i GameEdit.obj
 0001:000e3400       ??_EidCursor3D@@UAEPAXI@Z  200e4400 f i GameEdit.obj
 0001:000e3400       ??_GidCursor3D@@UAEPAXI@Z  200e4400 f i GameEdit.obj
 0001:000e3440       ?RegisterClassA@idClass@@SAXXZ 200e4440 f   Class.obj
 0001:000e3500       ?CreateInstance@idClass@@SAPAV1@XZ 200e4500 f   Class.obj
 0001:000e3520       ?GetClassType@idClass@@SAAAVidTypeInfo@@XZ 200e4520 f   Class.obj
 0001:000e3530       ?GetType@idClass@@UBEPAVidTypeInfo@@XZ 200e4530 f   Class.obj
 0001:000e3540       ??2idClass@@SAPAXI@Z       200e4540 f   Class.obj
 0001:000e3570       ??2idClass@@SAPAXIHHPADH@Z 200e4570 f   Class.obj
 0001:000e35a0       ??3idClass@@SAXPAX@Z       200e45a0 f   Class.obj
 0001:000e35f0       ??3idClass@@SAXPAXHHPADH@Z 200e45f0 f   Class.obj
 0001:000e3640       ??1idClass@@UAE@XZ         200e4640 f   Class.obj
 0001:000e3680       ?Spawn@idClass@@QAEXXZ     200e4680 f   Class.obj
 0001:000e3690       ?CallSpawn@idClass@@QAEXXZ 200e4690 f   Class.obj
 0001:000e36b0       ?GetClassname@idClass@@QBEPBDXZ 200e46b0 f   Class.obj
 0001:000e36c0       ?GetSuperclass@idClass@@QBEPBDXZ 200e46c0 f   Class.obj
 0001:000e36d0       ?FindUninitializedMemory@idClass@@QAEXXZ 200e46d0 f   Class.obj
 0001:000e36e0       ?ProcessState@idClass@@QAE?AW4stateResult_t@@PBU?$rvStateFunc@VidClass@@@@ABUstateParms_t@@@Z 200e46e0 f   Class.obj
 0001:000e3700       ?ProcessState@idClass@@QAE?AW4stateResult_t@@PBDABUstateParms_t@@@Z 200e4700 f   Class.obj
 0001:000e3770       ?FindState@idClass@@QBEPBU?$rvStateFunc@VidClass@@@@PBD@Z 200e4770 f   Class.obj
 0001:000e37d0       ?IsClient@idClass@@UBE_NXZ 200e47d0 f   Class.obj
 0001:000e37e0       ?RegisterClasses@idClass@@SAXXZ 200e47e0 f   Class.obj
 0001:000e3cc0       ?PostEventMS@idClass@@QAE_NPBVidEventDef@@H@Z 200e4cc0 f   Class.obj
 0001:000e3ce0       ?PostEventMS@idClass@@QAE_NPBVidEventDef@@HVidEventArg@@@Z 200e4ce0 f   Class.obj
 0001:000e3d00       ?PostEventMS@idClass@@QAE_NPBVidEventDef@@HVidEventArg@@1@Z 200e4d00 f   Class.obj
 0001:000e3d20       ?PostEventMS@idClass@@QAE_NPBVidEventDef@@HVidEventArg@@11@Z 200e4d20 f   Class.obj
 0001:000e3d50       ?PostEventMS@idClass@@QAE_NPBVidEventDef@@HVidEventArg@@111@Z 200e4d50 f   Class.obj
 0001:000e3d80       ?PostEventMS@idClass@@QAE_NPBVidEventDef@@HVidEventArg@@1111@Z 200e4d80 f   Class.obj
 0001:000e3db0       ?PostEventMS@idClass@@QAE_NPBVidEventDef@@HVidEventArg@@11111@Z 200e4db0 f   Class.obj
 0001:000e3de0       ?PostEventMS@idClass@@QAE_NPBVidEventDef@@HVidEventArg@@111111@Z 200e4de0 f   Class.obj
 0001:000e3e20       ?PostEventMS@idClass@@QAE_NPBVidEventDef@@HVidEventArg@@1111111@Z 200e4e20 f   Class.obj
 0001:000e3e60       ?PostEventSec@idClass@@QAE_NPBVidEventDef@@M@Z 200e4e60 f   Class.obj
 0001:000e3ea0       ?PostEventSec@idClass@@QAE_NPBVidEventDef@@MVidEventArg@@@Z 200e4ea0 f   Class.obj
 0001:000e3ee0       ?PostEventSec@idClass@@QAE_NPBVidEventDef@@MVidEventArg@@1@Z 200e4ee0 f   Class.obj
 0001:000e3f20       ?PostEventSec@idClass@@QAE_NPBVidEventDef@@MVidEventArg@@11@Z 200e4f20 f   Class.obj
 0001:000e3f60       ?PostEventSec@idClass@@QAE_NPBVidEventDef@@MVidEventArg@@111@Z 200e4f60 f   Class.obj
 0001:000e3fb0       ?PostEventSec@idClass@@QAE_NPBVidEventDef@@MVidEventArg@@1111@Z 200e4fb0 f   Class.obj
 0001:000e4000       ?PostEventSec@idClass@@QAE_NPBVidEventDef@@MVidEventArg@@11111@Z 200e5000 f   Class.obj
 0001:000e4050       ?PostEventSec@idClass@@QAE_NPBVidEventDef@@MVidEventArg@@111111@Z 200e5050 f   Class.obj
 0001:000e40a0       ?PostEventSec@idClass@@QAE_NPBVidEventDef@@MVidEventArg@@1111111@Z 200e50a0 f   Class.obj
 0001:000e4100       ?ProcessEvent@idClass@@QAE_NPBVidEventDef@@@Z 200e5100 f   Class.obj
 0001:000e4120       ?ProcessEvent@idClass@@QAE_NPBVidEventDef@@VidEventArg@@@Z 200e5120 f   Class.obj
 0001:000e4140       ?ProcessEvent@idClass@@QAE_NPBVidEventDef@@VidEventArg@@1@Z 200e5140 f   Class.obj
 0001:000e4160       ?ProcessEvent@idClass@@QAE_NPBVidEventDef@@VidEventArg@@11@Z 200e5160 f   Class.obj
 0001:000e4190       ?ProcessEvent@idClass@@QAE_NPBVidEventDef@@VidEventArg@@111@Z 200e5190 f   Class.obj
 0001:000e41c0       ?ProcessEvent@idClass@@QAE_NPBVidEventDef@@VidEventArg@@1111@Z 200e51c0 f   Class.obj
 0001:000e41f0       ?ProcessEvent@idClass@@QAE_NPBVidEventDef@@VidEventArg@@11111@Z 200e51f0 f   Class.obj
 0001:000e4220       ?ProcessEvent@idClass@@QAE_NPBVidEventDef@@VidEventArg@@111111@Z 200e5220 f   Class.obj
 0001:000e4260       ?ProcessEvent@idClass@@QAE_NPBVidEventDef@@VidEventArg@@1111111@Z 200e5260 f   Class.obj
 0001:000e42a0       ?ProcessEventArgPtr@idClass@@QAE_NPBVidEventDef@@PAH@Z 200e52a0 f   Class.obj
 0001:000e4460       ?CancelEvents@idClass@@QAEXPBVidEventDef@@@Z 200e5460 f   Class.obj
 0001:000e4480       ?EventIsPosted@idClass@@QBE_NPBVidEventDef@@@Z 200e5480 f   Class.obj
 0001:000e44a0       ?Event_Remove@idClass@@QAEXXZ 200e54a0 f   Class.obj
 0001:000e44b0       ?Init@idClass@@SAXXZ       200e54b0 f   Class.obj
 0001:000e4a50       ?Shutdown@idClass@@SAXXZ   200e5a50 f   Class.obj
 0001:000e4b50       ?GetClass@idClass@@SAPAVidTypeInfo@@PBD@Z 200e5b50 f   Class.obj
 0001:000e4c00       ?DisplayInfo_f@idClass@@SAXABVidCmdArgs@@@Z 200e5c00 f   Class.obj
 0001:000e4c20       ?ListClasses_f@idClass@@SAXABVidCmdArgs@@@Z 200e5c20 f   Class.obj
 0001:000e4cb0       ?CreateInstance@idClass@@SAPAV1@PBD@Z 200e5cb0 f   Class.obj
 0001:000e4cd0       ?GetType@idClass@@SAPAVidTypeInfo@@H@Z 200e5cd0 f   Class.obj
 0001:000e4d20       ?GetDebugInfo@idClass@@UAEXP6AXPBD00PAX@Z1@Z 200e5d20 f   Class.obj
 0001:000e4d30       ?CallSpawnFunc@idClass@@AAEP81@AEXXZPAVidTypeInfo@@@Z 200e5d30 f   Class.obj
 0001:000e4d60       ?PostEventArgs@idClass@@AAA_NPBVidEventDef@@HHZZ 200e5d60 f   Class.obj
 0001:000e4e10       ?ProcessEventArgs@idClass@@AAA_NPBVidEventDef@@HZZ 200e5e10 f   Class.obj
 0001:000e4e60       ?Event_SafeRemove@idClass@@AAEXXZ 200e5e60 f   Class.obj
 0001:000e4e70       ??0idTypeInfo@@QAE@PBD0PAU?$idEventFunc@VidClass@@@@P6APAVidClass@@XZP82@AEXXZPAU?$rvStateFunc@VidClass@@@@P82@BEXPAVidSaveGame@@@ZP82@AEXPAVidRestoreGame@@@Z@Z 200e5e70 f   Class.obj
 0001:000e4f90       ??1idTypeInfo@@QAE@XZ      200e5f90 f   Class.obj
 0001:000e4fd0       ?Init@idTypeInfo@@QAEXXZ   200e5fd0 f   Class.obj
 0001:000e51a0       ?Shutdown@idTypeInfo@@QAEXXZ 200e61a0 f   Class.obj
 0001:000e5220       ?Register_idClass@@YAXXZ   200e6220 f   Class.obj
 0001:000e5230       ??0?$idHierarchy@VidTypeInfo@@@@QAE@XZ 200e6230 f i Class.obj
 0001:000e5250       ??1?$idHierarchy@VidTypeInfo@@@@QAE@XZ 200e6250 f i Class.obj
 0001:000e5280       ?GetNext@?$idHierarchy@VidTypeInfo@@@@QBEPAVidTypeInfo@@XZ 200e6280 f i Class.obj
 0001:000e52a0       ?GetPriorSiblingNode@?$idHierarchy@VidTypeInfo@@@@ABEPAV1@XZ 200e62a0 f i Class.obj
 0001:000e52e0       ?ParentTo@?$idHierarchy@VidTypeInfo@@@@QAEXAAV1@@Z 200e62e0 f i Class.obj
 0001:000e5300       ?RemoveFromHierarchy@?$idHierarchy@VidTypeInfo@@@@QAEXXZ 200e6300 f i Class.obj
 0001:000e5350       ?RemoveFromParent@?$idHierarchy@VidTypeInfo@@@@QAEXXZ 200e6350 f i Class.obj
 0001:000e5390       ??0idDebugGraph@@QAE@XZ    200e6390 f   DebugGraph.obj
 0001:000e53d0       ?SetNumSamples@idDebugGraph@@QAEXH@Z 200e63d0 f   DebugGraph.obj
 0001:000e54e0       ?AddValue@idDebugGraph@@QAEXM@Z 200e64e0 f   DebugGraph.obj
 0001:000e5510       ?Draw@idDebugGraph@@QBEXABVidVec4@@M@Z 200e6510 f   DebugGraph.obj
 0001:000e5770       ??0idEventDef@@QAE@PBD0D@Z 200e6770 f   Event.obj
 0001:000e59b0       ?NumEventCommands@idEventDef@@SAHXZ 200e69b0 f   Event.obj
 0001:000e59c0       ?GetEventCommand@idEventDef@@SAPBV1@H@Z 200e69c0 f   Event.obj
 0001:000e59d0       ?FindEvent@idEventDef@@SAPBV1@PBD@Z 200e69d0 f   Event.obj
 0001:000e5a10       ??1idEvent@@QAE@XZ         200e6a10 f   Event.obj
 0001:000e5a50       ?WriteDebugInfo@idEvent@@SAXXZ 200e6a50 f   Event.obj
 0001:000e5b20       ?Alloc@idEvent@@SAPAV1@PBVidEventDef@@HPAD@Z 200e6b20 f   Event.obj
 0001:000e5e60       ?CopyArgs@idEvent@@SAXPBVidEventDef@@HPADQAH@Z 200e6e60 f   Event.obj
 0001:000e5f10       ?Free@idEvent@@QAEXXZ      200e6f10 f   Event.obj
 0001:000e5f70       ?Schedule@idEvent@@QAEXPAVidClass@@PBVidTypeInfo@@H@Z 200e6f70 f   Event.obj
 0001:000e6000       ?CancelEvents@idEvent@@SAXPBVidClass@@PBVidEventDef@@@Z 200e7000 f   Event.obj
 0001:000e6060       ?EventIsPosted@idEvent@@SA_NPBVidClass@@PBVidEventDef@@@Z 200e7060 f   Event.obj
 0001:000e60c0       ?ClearEventList@idEvent@@SAXXZ 200e70c0 f   Event.obj
 0001:000e6100       ?ServiceEvents@idEvent@@SAXXZ 200e7100 f   Event.obj
 0001:000e6330       ?Init@idEvent@@SAXXZ       200e7330 f   Event.obj
 0001:000e63c0       ?Shutdown@idEvent@@SAXXZ   200e73c0 f   Event.obj
 0001:000e6410       ?Save@idEvent@@SAXPAVidSaveGame@@@Z 200e7410 f   Event.obj
 0001:000e64a0       ?Restore@idEvent@@SAXPAVidRestoreGame@@@Z 200e74a0 f   Event.obj
 0001:000e6650       ??0?$idDynamicBlockAlloc@E$0EAAA@$0BAA@$0BE@@@QAE@XZ 200e7650 f i Event.obj
 0001:000e6680       ??0idEvent@@QAE@XZ         200e7680 f i Event.obj
 0001:000e66a0       ??0idCompileError@@QAE@PBD@Z 200e76a0 f i Script_Compiler.obj
 0001:000e66a0       ??0idException@@QAE@PBD@Z  200e76a0 f i Event.obj
 0001:000e66d0       ??1?$idBlockAlloc@V?$idBTreeNode@V?$idDynamicBlock@E@@H@@$0IA@$01@@QAE@XZ 200e76d0 f i Event.obj
 0001:000e66e0       ??1?$idDynamicBlockAlloc@E$0EAAA@$0BAA@$0BE@@@QAE@XZ 200e76e0 f i Event.obj
 0001:000e6730       ?Alloc@?$idBlockAlloc@V?$idBTreeNode@V?$idDynamicBlock@E@@H@@$0IA@$01@@QAEPAV?$idBTreeNode@V?$idDynamicBlock@E@@H@@XZ 200e7730 f i Event.obj
 0001:000e67c0       ?Alloc@?$idDynamicBlockAlloc@E$0EAAA@$0BAA@$0BE@@@QAEPAEH@Z 200e77c0 f i Event.obj
 0001:000e6810       ?AllocInternal@?$idDynamicBlockAlloc@E$0EAAA@$0BAA@$0BE@@@AAEPAV?$idDynamicBlock@E@@H@Z 200e7810 f i Event.obj
 0001:000e6bb0       ?CheckMemory@?$idDynamicBlockAlloc@E$0EAAA@$0BAA@$0BE@@@ABEPBDPBV?$idDynamicBlock@E@@@Z 200e7bb0 f i Event.obj
 0001:000e6c00       ?Clear@?$idDynamicBlockAlloc@E$0EAAA@$0BAA@$0BE@@@AAEXXZ 200e7c00 f i Event.obj
 0001:000e6c70       ?Free@?$idDynamicBlockAlloc@E$0EAAA@$0BAA@$0BE@@@QAEXPAE@Z 200e7c70 f i Event.obj
 0001:000e6ca0       ?FreeInternal@?$idDynamicBlockAlloc@E$0EAAA@$0BAA@$0BE@@@AAEXPAV?$idDynamicBlock@E@@@Z 200e7ca0 f i Event.obj
 0001:000e7960       ?Init@?$idDynamicBlockAlloc@E$0EAAA@$0BAA@$0BE@@@QAEXXZ 200e8960 f i Event.obj
 0001:000e79b0       ?ResizeInternal@?$idDynamicBlockAlloc@E$0EAAA@$0BAA@$0BE@@@AAEPAV?$idDynamicBlock@E@@PAV2@H@Z 200e89b0 f i Event.obj
 0001:000e7de0       ?Shutdown@?$idBlockAlloc@V?$idBTreeNode@V?$idDynamicBlock@E@@H@@$0IA@$01@@QAEXXZ 200e8de0 f i Event.obj
 0001:000e7e30       ?Shutdown@?$idDynamicBlockAlloc@E$0EAAA@$0BAA@$0BE@@@QAEXXZ 200e8e30 f i Event.obj
 0001:000e7eb0       ?Cmd_CheckSave_f@@YAXABVidCmdArgs@@@Z 200e8eb0 f   SaveGame.obj
 0001:000e7f80       ??0idSaveGame@@QAE@PAVidFile@@@Z 200e8f80 f   SaveGame.obj
 0001:000e81c0       ??1idSaveGame@@QAE@XZ      200e91c0 f   SaveGame.obj
 0001:000e8250       ?Close@idSaveGame@@QAEXXZ  200e9250 f   SaveGame.obj
 0001:000e8310       ?AddObject@idSaveGame@@QAEXPBVidClass@@@Z 200e9310 f   SaveGame.obj
 0001:000e8520       ?WriteObjectList@idSaveGame@@QAEXXZ 200e9520 f   SaveGame.obj
 0001:000e8560       ?Write@idSaveGame@@QAEXPBXH@Z 200e9560 f   SaveGame.obj
 0001:000e8570       ?WriteInt@idSaveGame@@QAEXH@Z 200e9570 f   SaveGame.obj
 0001:000e8580       ?WriteJoint@idSaveGame@@QAEXW4jointHandle_t@@@Z 200e9580 f   SaveGame.obj
 0001:000e8590       ?WriteShort@idSaveGame@@QAEXF@Z 200e9590 f   SaveGame.obj
 0001:000e85a0       ?WriteByte@idSaveGame@@QAEXE@Z 200e95a0 f   SaveGame.obj
 0001:000e85b0       ?WriteSignedChar@idSaveGame@@QAEXC@Z 200e95b0 f   SaveGame.obj
 0001:000e85c0       ?WriteFloat@idSaveGame@@QAEXM@Z 200e95c0 f   SaveGame.obj
 0001:000e85e0       ?WriteBool@idSaveGame@@QAEX_N@Z 200e95e0 f   SaveGame.obj
 0001:000e85f0       ?WriteString@idSaveGame@@QAEXPBD@Z 200e95f0 f   SaveGame.obj
 0001:000e8640       ?WriteVec2@idSaveGame@@QAEXABVidVec2@@@Z 200e9640 f   SaveGame.obj
 0001:000e8650       ?WriteVec3@idSaveGame@@QAEXABVidVec3@@@Z 200e9650 f   SaveGame.obj
 0001:000e8660       ?WriteVec4@idSaveGame@@QAEXABVidVec4@@@Z 200e9660 f   SaveGame.obj
 0001:000e8670       ?WriteVec5@idSaveGame@@QAEXABVidVec5@@@Z 200e9670 f   SaveGame.obj
 0001:000e8680       ?WriteVec6@idSaveGame@@QAEXABVidVec6@@@Z 200e9680 f   SaveGame.obj
 0001:000e8690       ?WriteWinding@idSaveGame@@QAEXABVidWinding@@@Z 200e9690 f   SaveGame.obj
 0001:000e86d0       ?WriteBounds@idSaveGame@@QAEXABVidBounds@@@Z 200e96d0 f   SaveGame.obj
 0001:000e86f0       ?WriteMat3@idSaveGame@@QAEXABVidMat3@@@Z 200e96f0 f   SaveGame.obj
 0001:000e8700       ?WriteAngles@idSaveGame@@QAEXABVidAngles@@@Z 200e9700 f   SaveGame.obj
 0001:000e8720       ?WriteObject@idSaveGame@@QAEXPBVidClass@@@Z 200e9720 f   SaveGame.obj
 0001:000e8770       ?WriteStaticObject@idSaveGame@@QAEXABVidClass@@@Z 200e9770 f   SaveGame.obj
 0001:000e8790       ?WriteDict@idSaveGame@@QAEXPBVidDict@@@Z 200e9790 f   SaveGame.obj
 0001:000e8810       ?WriteMaterial@idSaveGame@@QAEXPBVidMaterial@@@Z 200e9810 f   SaveGame.obj
 0001:000e8850       ?WriteSkin@idSaveGame@@QAEXPBVidDeclSkin@@@Z 200e9850 f   SaveGame.obj
 0001:000e8890       ?WriteSoundShader@idSaveGame@@QAEXPBVidSoundShader@@@Z 200e9890 f   SaveGame.obj
 0001:000e88d0       ?WriteModelDef@idSaveGame@@QAEXPBVidDeclModelDef@@@Z 200e98d0 f   SaveGame.obj
 0001:000e8910       ?WriteModel@idSaveGame@@QAEXPBVidRenderModel@@@Z 200e9910 f   SaveGame.obj
 0001:000e8950       ?WriteMaterialType@idSaveGame@@QAEXPBVrvDeclMatType@@@Z 200e9950 f   SaveGame.obj
 0001:000e8990       ?WriteTable@idSaveGame@@QAEXPBVidDeclTable@@@Z 200e9990 f   SaveGame.obj
 0001:000e89d0       ?WriteExtrapolate@idSaveGame@@QAEXABV?$idExtrapolate@H@@@Z 200e99d0 f   SaveGame.obj
 0001:000e8a30       ?WriteExtrapolate@idSaveGame@@QAEXABV?$idExtrapolate@M@@@Z 200e9a30 f   SaveGame.obj
 0001:000e8ab0       ?WriteExtrapolate@idSaveGame@@QAEXABV?$idExtrapolate@VidVec3@@@@@Z 200e9ab0 f   SaveGame.obj
 0001:000e8b10       ?WriteInterpolate@idSaveGame@@QAEXABV?$idInterpolateAccelDecelLinear@H@@@Z 200e9b10 f   SaveGame.obj
 0001:000e8b90       ?WriteInterpolate@idSaveGame@@QAEXABV?$idInterpolateAccelDecelLinear@M@@@Z 200e9b90 f   SaveGame.obj
 0001:000e8c20       ?WriteInterpolate@idSaveGame@@QAEXABV?$idInterpolateAccelDecelLinear@VidVec3@@@@@Z 200e9c20 f   SaveGame.obj
 0001:000e8ca0       ?WriteInterpolate@idSaveGame@@QAEXABV?$idInterpolate@H@@@Z 200e9ca0 f   SaveGame.obj
 0001:000e8cf0       ?WriteInterpolate@idSaveGame@@QAEXABV?$idInterpolate@M@@@Z 200e9cf0 f   SaveGame.obj
 0001:000e8d50       ?WriteInterpolate@idSaveGame@@QAEXABV?$idInterpolate@VidVec3@@@@@Z 200e9d50 f   SaveGame.obj
 0001:000e8da0       ?WriteRenderEffect@idSaveGame@@QAEXABUrenderEffect_s@@@Z 200e9da0 f   SaveGame.obj
 0001:000e8ed0       ?WriteFrustum@idSaveGame@@QAEXABVidFrustum@@@Z 200e9ed0 f   SaveGame.obj
 0001:000e8f40       ?WriteSyncId@idSaveGame@@QAEXXZ 200e9f40 f   SaveGame.obj
 0001:000e8f50       ?WriteUserInterface@idSaveGame@@QAEXPBVidUserInterface@@_N@Z 200e9f50 f   SaveGame.obj
 0001:000e8fc0       ?WriteRenderEntity@idSaveGame@@QAEXABUrenderEntity_s@@@Z 200e9fc0 f   SaveGame.obj
 0001:000e9160       ?WriteRenderLight@idSaveGame@@QAEXABUrenderLight_s@@@Z 200ea160 f   SaveGame.obj
 0001:000e92a0       ?WriteRefSound@idSaveGame@@QAEXABUrefSound_t@@@Z 200ea2a0 f   SaveGame.obj
 0001:000e9370       ?WriteRenderView@idSaveGame@@QAEXABUrenderView_s@@@Z 200ea370 f   SaveGame.obj
 0001:000e9430       ?WriteUsercmd@idSaveGame@@QAEXABVusercmd_t@@@Z 200ea430 f   SaveGame.obj
 0001:000e94f0       ?WriteContactInfo@idSaveGame@@QAEXABUcontactInfo_t@@@Z 200ea4f0 f   SaveGame.obj
 0001:000e9580       ?WriteTrace@idSaveGame@@QAEXABUtrace_t@@@Z 200ea580 f   SaveGame.obj
 0001:000e95d0       ?WriteClipModel@idSaveGame@@QAEXPBVidClipModel@@@Z 200ea5d0 f   SaveGame.obj
 0001:000e9600       ?WriteSoundCommands@idSaveGame@@QAEXXZ 200ea600 f   SaveGame.obj
 0001:000e9620       ?WriteBuildNumber@idSaveGame@@QAEXH@Z 200ea620 f   SaveGame.obj
 0001:000e9630       ?CallSave_r@idSaveGame@@IAEXPBVidTypeInfo@@PBVidClass@@@Z 200ea630 f   SaveGame.obj
 0001:000e9680       ??0idRestoreGame@@QAE@PAVidFile@@@Z 200ea680 f   SaveGame.obj
 0001:000e96c0       ??1idRestoreGame@@QAE@XZ   200ea6c0 f   SaveGame.obj
 0001:000e9740       ?CreateObjects@idRestoreGame@@QAEXXZ 200ea740 f   SaveGame.obj
 0001:000e9910       ?RestoreObjects@idRestoreGame@@QAEXXZ 200ea910 f   SaveGame.obj
 0001:000e9a00       ?DeleteObjects@idRestoreGame@@QAEXXZ 200eaa00 f   SaveGame.obj
 0001:000e9af0       ?Error@idRestoreGame@@QAAXPBDZZ 200eaaf0 f   SaveGame.obj
 0001:000e9b40       ?Read@idRestoreGame@@QAEXPAXH@Z 200eab40 f   SaveGame.obj
 0001:000e9b50       ?ReadInt@idRestoreGame@@QAEXAAH@Z 200eab50 f   SaveGame.obj
 0001:000e9b60       ?ReadJoint@idRestoreGame@@QAEXAAW4jointHandle_t@@@Z 200eab60 f   SaveGame.obj
 0001:000e9b70       ?ReadShort@idRestoreGame@@QAEXAAF@Z 200eab70 f   SaveGame.obj
 0001:000e9b80       ?ReadByte@idRestoreGame@@QAEXAAE@Z 200eab80 f   SaveGame.obj
 0001:000e9b90       ?ReadSignedChar@idRestoreGame@@QAEXAAC@Z 200eab90 f   SaveGame.obj
 0001:000e9ba0       ?ReadFloat@idRestoreGame@@QAEXAAM@Z 200eaba0 f   SaveGame.obj
 0001:000e9bb0       ?ReadBool@idRestoreGame@@QAEXAA_N@Z 200eabb0 f   SaveGame.obj
 0001:000e9bc0       ?ReadString@idRestoreGame@@QAEXAAVidStr@@@Z 200eabc0 f   SaveGame.obj
 0001:000e9bd0       ?ReadVec2@idRestoreGame@@QAEXAAVidVec2@@@Z 200eabd0 f   SaveGame.obj
 0001:000e9be0       ?ReadVec3@idRestoreGame@@QAEXAAVidVec3@@@Z 200eabe0 f   SaveGame.obj
 0001:000e9bf0       ?ReadVec4@idRestoreGame@@QAEXAAVidVec4@@@Z 200eabf0 f   SaveGame.obj
 0001:000e9c00       ?ReadVec5@idRestoreGame@@QAEXAAVidVec5@@@Z 200eac00 f   SaveGame.obj
 0001:000e9c10       ?ReadVec6@idRestoreGame@@QAEXAAVidVec6@@@Z 200eac10 f   SaveGame.obj
 0001:000e9c20       ?ReadWinding@idRestoreGame@@QAEXAAVidWinding@@@Z 200eac20 f   SaveGame.obj
 0001:000e9c90       ?ReadBounds@idRestoreGame@@QAEXAAVidBounds@@@Z 200eac90 f   SaveGame.obj
 0001:000e9cb0       ?ReadMat3@idRestoreGame@@QAEXAAVidMat3@@@Z 200eacb0 f   SaveGame.obj
 0001:000e9cc0       ?ReadAngles@idRestoreGame@@QAEXAAVidAngles@@@Z 200eacc0 f   SaveGame.obj
 0001:000e9ce0       ?ReadObject@idRestoreGame@@QAEXAAPAVidClass@@@Z 200eace0 f   SaveGame.obj
 0001:000e9d20       ?ReadStaticObject@idRestoreGame@@QAEXAAVidClass@@@Z 200ead20 f   SaveGame.obj
 0001:000e9d70       ?ReadDict@idRestoreGame@@QAEXPAVidDict@@@Z 200ead70 f   SaveGame.obj
 0001:000e9e60       ?ReadMaterial@idRestoreGame@@QAEXAAPBVidMaterial@@@Z 200eae60 f   SaveGame.obj
 0001:000e9ef0       ?ReadSkin@idRestoreGame@@QAEXAAPBVidDeclSkin@@@Z 200eaef0 f   SaveGame.obj
 0001:000e9f80       ?ReadSoundShader@idRestoreGame@@QAEXAAPBVidSoundShader@@@Z 200eaf80 f   SaveGame.obj
 0001:000ea010       ?ReadModelDef@idRestoreGame@@QAEXAAPBVidDeclModelDef@@@Z 200eb010 f   SaveGame.obj
 0001:000ea0a0       ?ReadModel@idRestoreGame@@QAEXAAPAVidRenderModel@@@Z 200eb0a0 f   SaveGame.obj
 0001:000ea120       ?ReadUserInterface@idRestoreGame@@QAEXAAPAVidUserInterface@@PBVidDict@@@Z 200eb120 f   SaveGame.obj
 0001:000ea210       ?ReadMaterialType@idRestoreGame@@QAEXAAPBVrvDeclMatType@@@Z 200eb210 f   SaveGame.obj
 0001:000ea2a0       ?ReadTable@idRestoreGame@@QAEXAAPBVidDeclTable@@@Z 200eb2a0 f   SaveGame.obj
 0001:000ea330       ?ReadExtrapolate@idRestoreGame@@QAEXAAV?$idExtrapolate@H@@@Z 200eb330 f   SaveGame.obj
 0001:000ea3c0       ?ReadExtrapolate@idRestoreGame@@QAEXAAV?$idExtrapolate@M@@@Z 200eb3c0 f   SaveGame.obj
 0001:000ea460       ?ReadExtrapolate@idRestoreGame@@QAEXAAV?$idExtrapolate@VidVec3@@@@@Z 200eb460 f   SaveGame.obj
 0001:000ea540       ?ReadInterpolate@idRestoreGame@@QAEXAAV?$idInterpolateAccelDecelLinear@H@@@Z 200eb540 f   SaveGame.obj
 0001:000ea690       ?ReadInterpolate@idRestoreGame@@QAEXAAV?$idInterpolateAccelDecelLinear@M@@@Z 200eb690 f   SaveGame.obj
 0001:000ea7f0       ?ReadInterpolate@idRestoreGame@@QAEXAAV?$idInterpolateAccelDecelLinear@VidVec3@@@@@Z 200eb7f0 f   SaveGame.obj
 0001:000ea9f0       ?ReadInterpolate@idRestoreGame@@QAEXAAV?$idInterpolate@H@@@Z 200eb9f0 f   SaveGame.obj
 0001:000eaa60       ?ReadInterpolate@idRestoreGame@@QAEXAAV?$idInterpolate@M@@@Z 200eba60 f   SaveGame.obj
 0001:000eaae0       ?ReadInterpolate@idRestoreGame@@QAEXAAV?$idInterpolate@VidVec3@@@@@Z 200ebae0 f   SaveGame.obj
 0001:000eab90       ?ReadRenderEffect@idRestoreGame@@QAEXAAUrenderEffect_s@@@Z 200ebb90 f   SaveGame.obj
 0001:000ead00       ?ReadFrustum@idRestoreGame@@QAEXAAVidFrustum@@@Z 200ebd00 f   SaveGame.obj
 0001:000eae00       ?ReadRenderEntity@idRestoreGame@@QAEXAAUrenderEntity_s@@PBVidDict@@@Z 200ebe00 f   SaveGame.obj
 0001:000eafb0       ?ReadRenderLight@idRestoreGame@@QAEXAAUrenderLight_s@@@Z 200ebfb0 f   SaveGame.obj
 0001:000eb0f0       ?ReadRefSound@idRestoreGame@@QAEXAAUrefSound_t@@@Z 200ec0f0 f   SaveGame.obj
 0001:000eb1a0       ?ReadRenderView@idRestoreGame@@QAEXAAUrenderView_s@@@Z 200ec1a0 f   SaveGame.obj
 0001:000eb260       ?ReadUsercmd@idRestoreGame@@QAEXAAVusercmd_t@@@Z 200ec260 f   SaveGame.obj
 0001:000eb330       ?ReadContactInfo@idRestoreGame@@QAEXAAUcontactInfo_t@@@Z 200ec330 f   SaveGame.obj
 0001:000eb3c0       ?ReadTrace@idRestoreGame@@QAEXAAUtrace_t@@@Z 200ec3c0 f   SaveGame.obj
 0001:000eb410       ?ReadClipModel@idRestoreGame@@QAEXAAPAVidClipModel@@@Z 200ec410 f   SaveGame.obj
 0001:000eb4d0       ?ReadSoundCommands@idRestoreGame@@QAEXXZ 200ec4d0 f   SaveGame.obj
 0001:000eb500       ?ReadBuildNumber@idRestoreGame@@QAEXXZ 200ec500 f   SaveGame.obj
 0001:000eb510       ?GetBuildNumber@idRestoreGame@@QAEHXZ 200ec510 f   SaveGame.obj
 0001:000eb520       ?CallRestore_r@idRestoreGame@@AAEXPBVidTypeInfo@@PAVidClass@@@Z 200ec520 f   SaveGame.obj
 0001:000eb580       ?Save@stateParms_t@@QBEXPAVidSaveGame@@@Z 200ec580 f   State.obj
 0001:000eb5b0       ?Restore@stateParms_t@@QAEXPAVidRestoreGame@@@Z 200ec5b0 f   State.obj
 0001:000eb5e0       ?Save@stateCall_t@@QBEXPAVidSaveGame@@@Z 200ec5e0 f   State.obj
 0001:000eb620       ?Restore@stateCall_t@@QAEXPAVidRestoreGame@@PBVidClass@@@Z 200ec620 f   State.obj
 0001:000eb6c0       ??0rvStateThread@@QAE@XZ   200ec6c0 f   State.obj
 0001:000eb730       ??1rvStateThread@@QAE@XZ   200ec730 f   State.obj
 0001:000eb790       ?SetOwner@rvStateThread@@QAEXPAVidClass@@@Z 200ec790 f   State.obj
 0001:000eb7a0       ?InterruptState@rvStateThread@@QAE?AW4stateResult_t@@PBDHHH@Z 200ec7a0 f   State.obj
 0001:000eb800       ?PostState@rvStateThread@@QAE?AW4stateResult_t@@PBDHHH@Z 200ec800 f   State.obj
 0001:000eb8c0       ?SetState@rvStateThread@@QAE?AW4stateResult_t@@PBDHHH@Z 200ec8c0 f   State.obj
 0001:000eb8f0       ?CurrentStateIs@rvStateThread@@QBE_NPBD@Z 200ec8f0 f   State.obj
 0001:000eb950       ?Execute@rvStateThread@@QAE?AW4stateResult_t@@XZ 200ec950 f   State.obj
 0001:000ebd20       ?Clear@rvStateThread@@QAEX_N@Z 200ecd20 f   State.obj
 0001:000ebe10       ?Save@rvStateThread@@QBEXPAVidSaveGame@@@Z 200ece10 f   State.obj
 0001:000ebec0       ?Restore@rvStateThread@@QAEXPAVidRestoreGame@@PAVidClass@@@Z 200ecec0 f   State.obj
 0001:000ec000       ?InsertAfter@?$idLinkList@UstateCall_t@@@@QAEXAAV1@@Z 200ed000 f i State.obj
 0001:000ec000       ?InsertAfter@?$idLinkList@VidEntity@@@@QAEXAAV1@@Z 200ed000 f i Game_local.obj
 0001:000ec030       ?NextNode@?$idLinkList@UstateCall_t@@@@QBEPAV1@XZ 200ed030 f i State.obj
 0001:000ec030       ?NextNode@?$idLinkList@VidMsgQueue@@@@QBEPAV1@XZ 200ed030 f i idLib:BitMsg.obj
 0001:000ec040       ?Owner@?$idLinkList@UstateCall_t@@@@QBEPAUstateCall_t@@XZ 200ed040 f i State.obj
 0001:000ec070       ?PrintMemInfo@idGameEdit@@UAEXPAVMemInfo@@@Z 200ed070 f   SysCmds.obj
 0001:000ec0d0       ?ScriptSummary@idGameEdit@@UBEIABVidCmdArgs@@@Z 200ed0d0 f   SysCmds.obj
 0001:000ec0e0       ?ClassSummary@idGameEdit@@UBEIABVidCmdArgs@@@Z 200ed0e0 f   SysCmds.obj
 0001:000ec110       ?EntitySummary@idGameEdit@@UBEIABVidCmdArgs@@@Z 200ed110 f   SysCmds.obj
 0001:000ec150       ?D_DrawDebugLines@@YAXXZ   200ed150 f   SysCmds.obj
 0001:000ec160       ?KillEntities@@YAXABVidCmdArgs@@ABVidTypeInfo@@@Z 200ed160 f   SysCmds.obj
 0001:000ec620       ?GiveStuffToPlayer@@YAXPAVidPlayer@@PBD1@Z 200ed620 f   SysCmds.obj
 0001:000ecae0       ?InitConsoleCommands@idGameLocal@@AAEXXZ 200edae0 f   SysCmds.obj
 0001:000ed8b0       ?ShutdownConsoleCommands@idGameLocal@@AAEXXZ 200ee8b0 f   SysCmds.obj
 0001:000ed8c0       ?Cmd_GetFloatArg@@YAMABVidCmdArgs@@AAH@Z 200ee8c0 f   SysCmds.obj
 0001:000ed910       ?Cmd_EntityList_f@@YAXABVidCmdArgs@@@Z 200ee910 f   SysCmds.obj
 0001:000eda70       ?Cmd_ClientEntityList_f@@YAXABVidCmdArgs@@@Z 200eea70 f   SysCmds.obj
 0001:000edc20       ?Cmd_ActiveEntityList_f@@YAXABVidCmdArgs@@@Z 200eec20 f   SysCmds.obj
 0001:000edce0       ?Cmd_ListSpawnArgs_f@@YAXABVidCmdArgs@@@Z 200eece0 f   SysCmds.obj
 0001:000edd70       ?Cmd_ReloadScript_f@@YAXABVidCmdArgs@@@Z 200eed70 f   SysCmds.obj
 0001:000edda0       ?Cmd_Script_f@@YAXABVidCmdArgs@@@Z 200eeda0 f   SysCmds.obj
 0001:000edf20       ?Cmd_KillMonsters_f@@YAXABVidCmdArgs@@@Z 200eef20 f   SysCmds.obj
 0001:000edf60       ?Cmd_KillMovables_f@@YAXABVidCmdArgs@@@Z 200eef60 f   SysCmds.obj
 0001:000edfa0       ?Cmd_KillVehicles_f@@YAXABVidCmdArgs@@@Z 200eefa0 f   SysCmds.obj
 0001:000edfd0       ?Cmd_KillMessage_f@@YAXABVidCmdArgs@@@Z 200eefd0 f   SysCmds.obj
 0001:000ee020       ?Cmd_APState_f@@YAXABVidCmdArgs@@@Z 200ef020 f   SysCmds.obj
 0001:000ee0b0       ?Cmd_KillRagdolls_f@@YAXABVidCmdArgs@@@Z 200ef0b0 f   SysCmds.obj
 0001:000ee100       ?Cmd_Give_f@@YAXABVidCmdArgs@@@Z 200ef100 f   SysCmds.obj
 0001:000ee170       ?Cmd_CenterView_f@@YAXABVidCmdArgs@@@Z 200ef170 f   SysCmds.obj
 0001:000ee1c0       ?Cmd_God_f@@YAXABVidCmdArgs@@@Z 200ef1c0 f   SysCmds.obj
 0001:000ee220       ?Cmd_Undying_f@@YAXABVidCmdArgs@@@Z 200ef220 f   SysCmds.obj
 0001:000ee280       ?Cmd_Notarget_f@@YAXABVidCmdArgs@@@Z 200ef280 f   SysCmds.obj
 0001:000ee2f0       ?Cmd_Noclip_f@@YAXABVidCmdArgs@@@Z 200ef2f0 f   SysCmds.obj
 0001:000ee350       ?Cmd_Kill_f@@YAXABVidCmdArgs@@@Z 200ef350 f   SysCmds.obj
 0001:000ee470       ?Cmd_DebugJump_f@@YAXABVidCmdArgs@@@Z 200ef470 f   SysCmds.obj
 0001:000ee490       ?Cmd_DebugNextJumpPoint_f@@YAXABVidCmdArgs@@@Z 200ef490 f   SysCmds.obj
 0001:000ee4a0       ?Cmd_DebugPrevJumpPoint_f@@YAXABVidCmdArgs@@@Z 200ef4a0 f   SysCmds.obj
 0001:000ee4b0       ?Cmd_AASExtractTactical_f@@YAXABVidCmdArgs@@@Z 200ef4b0 f   SysCmds.obj
 0001:000ee4e0       ?Cmd_CallScriptFunc_f@@YAXABVidCmdArgs@@@Z 200ef4e0 f   SysCmds.obj
 0001:000ee7c0       ?Cmd_SetPlayerGravity_f@@YAXABVidCmdArgs@@@Z 200ef7c0 f   SysCmds.obj
 0001:000ee840       ?Cmd_PlayerModel_f@@YAXABVidCmdArgs@@@Z 200ef840 f   SysCmds.obj
 0001:000eea70       ?Cmd_GetViewpos_f@@YAXABVidCmdArgs@@@Z 200efa70 f   SysCmds.obj
 0001:000eeaf0       ?Cmd_SetViewpos_f@@YAXABVidCmdArgs@@@Z 200efaf0 f   SysCmds.obj
 0001:000eebf0       ?Cmd_Teleport_f@@YAXABVidCmdArgs@@@Z 200efbf0 f   SysCmds.obj
 0001:000eece0       ?Cmd_Trigger_f@@YAXABVidCmdArgs@@@Z 200efce0 f   SysCmds.obj
 0001:000eed80       ?Cmd_Spawn_f@@YAXABVidCmdArgs@@@Z 200efd80 f   SysCmds.obj
 0001:000ef170       ?Cmd_EvaluateMPPerformance_f@@YAXABVidCmdArgs@@@Z 200f0170 f   SysCmds.obj
 0001:000ef540       ?Cmd_Damage_f@@YAXABVidCmdArgs@@@Z 200f0540 f   SysCmds.obj
 0001:000ef610       ?Cmd_Flashlight_f@@YAXABVidCmdArgs@@@Z 200f0610 f   SysCmds.obj
 0001:000ef6e0       ?Cmd_Remove_f@@YAXABVidCmdArgs@@@Z 200f06e0 f   SysCmds.obj
 0001:000ef750       ?Cmd_AI_DebugFilter_f@@YAXABVidCmdArgs@@@Z 200f0750 f   SysCmds.obj
 0001:000ef890       ?Cmd_TestLight_f@@YAXABVidCmdArgs@@@Z 200f0890 f   SysCmds.obj
 0001:000efd70       ?Cmd_TestPointLight_f@@YAXABVidCmdArgs@@@Z 200f0d70 f   SysCmds.obj
 0001:000f00a0       ?Cmd_PopLight_f@@YAXABVidCmdArgs@@@Z 200f10a0 f   SysCmds.obj
 0001:000f01b0       ?Cmd_ClearLights_f@@YAXABVidCmdArgs@@@Z 200f11b0 f   SysCmds.obj
 0001:000f26a0       ?FindEntityGUIs@@YA_NPAVidEntity@@PAPBUmodelSurface_s@@HAAH@Z 200f36a0 f   SysCmds.obj
 0001:000f2720       ?Cmd_NextGUI_f@@YAXABVidCmdArgs@@@Z 200f3720 f   SysCmds.obj
 0001:000f2cc0       ?Cmd_TestId_f@@YAXABVidCmdArgs@@@Z 200f3cc0 f   SysCmds.obj
 0001:000f2ef0       ?Cmd_SetInstance_f@@YAXABVidCmdArgs@@@Z 200f3ef0 f   SysCmds.obj
 0001:000f2fd0       ?Cmd_ListInstances_f@@YAXABVidCmdArgs@@@Z 200f3fd0 f   SysCmds.obj
 0001:000f3080       ?Cmd_AddIcon_f@@YAXABVidCmdArgs@@@Z 200f4080 f   SysCmds.obj
 0001:000f30c0       ?Cmd_ToggleBuyMenu_f@@YAXABVidCmdArgs@@@Z 200f40c0 f   SysCmds.obj
 0001:000f30f0       ?Cmd_BuyItem_f@@YAXABVidCmdArgs@@@Z 200f40f0 f   SysCmds.obj
 0001:000f3140       ?Cmd_PlayerEmote_f@@YAXABVidCmdArgs@@@Z 200f4140 f   SysCmds.obj
 0001:000f3290       ?Cmd_SetPMCVars_f@@YAXABVidCmdArgs@@@Z 200f4290 f   SysCmds.obj
 0001:000f32c0       ?Cmd_FadeSound_f@@YAXABVidCmdArgs@@@Z 200f42c0 f   SysCmds.obj
 0001:000f3420       ?Cmd_TestClientModel_f@@YAXABVidCmdArgs@@@Z 200f4420 f   SysCmds.obj
 0001:000f3450       ?Cmd_ShuffleTeams_f@@YAXABVidCmdArgs@@@Z 200f4450 f   SysCmds.obj
 0001:000f3460       ??$ArgCompletion_Decl@$01@idCmdSystem@@SAXABVidCmdArgs@@P6AXPBD@Z@Z 200f4460 f i SysCmds.obj
 0001:000f3480       ??$ArgCompletion_Decl@$03@idCmdSystem@@SAXABVidCmdArgs@@P6AXPBD@Z@Z 200f4480 f i SysCmds.obj
 0001:000f34a0       ??$ArgCompletion_Decl@$04@idCmdSystem@@SAXABVidCmdArgs@@P6AXPBD@Z@Z 200f44a0 f i SysCmds.obj
 0001:000f3740       ??$ArgCompletion_Integer@$0A@$01@idCmdSystem@@SAXABVidCmdArgs@@P6AXPBD@Z@Z 200f4740 f i SysCvar.obj
 0001:000f3780       ??$ArgCompletion_Integer@$0A@$04@idCmdSystem@@SAXABVidCmdArgs@@P6AXPBD@Z@Z 200f4780 f i SysCvar.obj
 0001:000f37c0       ??$ArgCompletion_Integer@$0A@$07@idCmdSystem@@SAXABVidCmdArgs@@P6AXPBD@Z@Z 200f47c0 f i SysCvar.obj
 0001:000f3800       ??$ArgCompletion_String@$1?si_gameTypeArgs@@3PAPBDA@idCmdSystem@@SAXABVidCmdArgs@@P6AXPBD@Z@Z 200f4800 f i SysCvar.obj
 0001:000f3850       ??$ArgCompletion_String@$1?si_readyArgs@@3PAPBDA@idCmdSystem@@SAXABVidCmdArgs@@P6AXPBD@Z@Z 200f4850 f i SysCvar.obj
 0001:000f38a0       ??$ArgCompletion_String@$1?si_spectateArgs@@3PAPBDA@idCmdSystem@@SAXABVidCmdArgs@@P6AXPBD@Z@Z 200f48a0 f i SysCvar.obj
 0001:000f38f0       ??$ArgCompletion_String@$1?ui_teamArgs@@3PAPBDA@idCmdSystem@@SAXABVidCmdArgs@@P6AXPBD@Z@Z 200f48f0 f i SysCvar.obj
 0001:000f3940       ?ArgCompletion_Boolean@idCmdSystem@@SAXABVidCmdArgs@@P6AXPBD@Z@Z 200f4940 f i SysCvar.obj
 0001:000f3990       ?ArgCompletion_ForceModel@idCmdSystem@@SAXABVidCmdArgs@@P6AXPBD@Z@Z 200f4990 f i SysCvar.obj
 0001:000f39b0       ?ArgCompletion_ForceModelMarine@idCmdSystem@@SAXABVidCmdArgs@@P6AXPBD@Z@Z 200f49b0 f i SysCvar.obj
 0001:000f39d0       ?ArgCompletion_ForceModelStrogg@idCmdSystem@@SAXABVidCmdArgs@@P6AXPBD@Z@Z 200f49d0 f i SysCvar.obj
 0001:000f39f0       ?ArgCompletion_MapName@idCmdSystem@@SAXABVidCmdArgs@@P6AXPBD@Z@Z 200f49f0 f i SysCvar.obj
 0001:000f3a20       ??0rvGameDebug@@QAE@XZ     200f4a20 f   Game_Debug.obj
 0001:000f3d70       ?Init@rvGameDebug@@QAEXXZ  200f4d70 f   Game_Debug.obj
 0001:000f3e30       ?Shutdown@rvGameDebug@@QAEXXZ 200f4e30 f   Game_Debug.obj
 0001:000f3e80       ?BeginFrame@rvGameDebug@@QAEXXZ 200f4e80 f   Game_Debug.obj
 0001:000f41c0       ?EndFrame@rvGameDebug@@QAEXXZ 200f51c0 f   Game_Debug.obj
 0001:000f41d0       ?DrawHud@rvGameDebug@@QAEXXZ 200f51d0 f   Game_Debug.obj
 0001:000f44f0       ?AppendList@rvGameDebug@@QAEXPBD0@Z 200f54f0 f   Game_Debug.obj
 0001:000f4590       ?SetInt@rvGameDebug@@QAEXPBDH@Z 200f5590 f   Game_Debug.obj
 0001:000f45e0       ?SetFloat@rvGameDebug@@QAEXPBDM@Z 200f55e0 f   Game_Debug.obj
 0001:000f4650       ?SetString@rvGameDebug@@QAEXPBD0@Z 200f5650 f   Game_Debug.obj
 0001:000f4680       ?GetInt@rvGameDebug@@QAEHPBD@Z 200f5680 f   Game_Debug.obj
 0001:000f46d0       ?GetFloat@rvGameDebug@@QAEMPBD@Z 200f56d0 f   Game_Debug.obj
 0001:000f4730       ?GetString@rvGameDebug@@QAEPBDPBD@Z 200f5730 f   Game_Debug.obj
 0001:000f4770       ?SetStatInt@rvGameDebug@@QAEXPBDH@Z 200f5770 f   Game_Debug.obj
 0001:000f47a0       ?SetStatFloat@rvGameDebug@@QAEXPBDM@Z 200f57a0 f   Game_Debug.obj
 0001:000f47e0       ?SetStatString@rvGameDebug@@QAEXPBD0@Z 200f57e0 f   Game_Debug.obj
 0001:000f47f0       ?GetStatInt@rvGameDebug@@QAEHPBD@Z 200f57f0 f   Game_Debug.obj
 0001:000f4830       ?GetStatFloat@rvGameDebug@@QAEMPBD@Z 200f5830 f   Game_Debug.obj
 0001:000f4880       ?GetStatString@rvGameDebug@@QAEPBDPBD@Z 200f5880 f   Game_Debug.obj
 0001:000f48b0       ?JumpAdd@rvGameDebug@@QAEXPBDABVidVec3@@ABVidAngles@@@Z 200f58b0 f   Game_Debug.obj
 0001:000f4d10       ?JumpTo@rvGameDebug@@QAEXPBD@Z 200f5d10 f   Game_Debug.obj
 0001:000f4d60       ?JumpTo@rvGameDebug@@QAEXH@Z 200f5d60 f   Game_Debug.obj
 0001:000f4db0       ?JumpNext@rvGameDebug@@QAEXXZ 200f5db0 f   Game_Debug.obj
 0001:000f4dd0       ?JumpPrev@rvGameDebug@@QAEXXZ 200f5dd0 f   Game_Debug.obj
 0001:000f4df0       ??0debugJumpPoint_s@@QAE@XZ 200f5df0 f i Game_Debug.obj
 0001:000f4df0       ??0mpBanInfo_s@@QAE@XZ     200f5df0 f i Game_network.obj
 0001:000f4e20       ??1?$idList@UdebugJumpPoint_s@@@@QAE@XZ 200f5e20 f i Game_Debug.obj
 0001:000f4ef0       ?gameError@@YAXPBDZZ       200f5ef0 f   Game_local.obj
 0001:000f4f30       ??0idGameLocal@@QAE@XZ     200f5f30 f   Game_local.obj
 0001:000f5940       ?Init@idGameLocal@@UAEXP6APAXI@ZP6AXPAX@ZP6AI1@Z@Z 200f6940 f   Game_local.obj
 0001:000f6470       ?Shutdown@idGameLocal@@UAEXXZ 200f7470 f   Game_local.obj
 0001:000f69a0       ?SetLocalClient@idGameLocal@@UAEXH@Z 200f79a0 f   Game_local.obj
 0001:000f69b0       ?ThrottleUserInfo@idGameLocal@@UAEXXZ 200f79b0 f   Game_local.obj
 0001:000f69c0       ?SetUserInfo@idGameLocal@@UAEPBVidDict@@HABV2@_N@Z 200f79c0 f   Game_local.obj
 0001:000f6be0       ?GetUserInfo@idGameLocal@@UAEPBVidDict@@H@Z 200f7be0 f   Game_local.obj
 0001:000f6c30       ?IsClientActive@idGameLocal@@UAE_NH@Z 200f7c30 f   Game_local.obj
 0001:000f6c80       ?SetServerInfo@idGameLocal@@UAEXABVidDict@@@Z 200f7c80 f   Game_local.obj
 0001:000f6db0       ?GetPersistentPlayerInfo@idGameLocal@@UAEABVidDict@@H@Z 200f7db0 f   Game_local.obj
 0001:000f6e10       ?SetPersistentPlayerInfo@idGameLocal@@UAEXHABVidDict@@@Z 200f7e10 f   Game_local.obj
 0001:000f6e30       ?InitFromNewMap@idGameLocal@@UAEXPBDPAVidRenderWorld@@_N2H@Z 200f7e30 f   Game_local.obj
 0001:000f6f90       ?InitFromSaveGame@idGameLocal@@UAE_NPBDPAVidRenderWorld@@PAVidFile@@@Z 200f7f90 f   Game_local.obj
 0001:000f79f0       ?SaveGame@idGameLocal@@UAEXPAVidFile@@W4saveType_t@@@Z 200f89f0 f   Game_local.obj
 0001:000f8280       ?MapShutdown@idGameLocal@@UAEXXZ 200f9280 f   Game_local.obj
 0001:000f8480       ?CacheDictionaryMedia@idGameLocal@@UAEXPBVidDict@@@Z 200f9480 f   Game_local.obj
 0001:000f8dd0       ?SpawnPlayer@idGameLocal@@UAEXH@Z 200f9dd0 f   Game_local.obj
 0001:000f90f0       ?RunFrame@idGameLocal@@UAE?AUgameReturn_t@@PBVusercmd_t@@H_NH@Z 200fa0f0 f   Game_local.obj
 0001:000f9c40       ?MenuFrame@idGameLocal@@UAEXXZ 200fac40 f   Game_local.obj
 0001:000f9c50       ?Draw@idGameLocal@@UAE_NH@Z 200fac50 f   Game_local.obj
 0001:000f9ca0       ?HandleESC@idGameLocal@@UAE?AW4escReply_t@@PAPAVidUserInterface@@@Z 200faca0 f   Game_local.obj
 0001:000f9cf0       ?StartMenu@idGameLocal@@UAEPAVidUserInterface@@XZ 200facf0 f   Game_local.obj
 0001:000f9d10       ?HandleGuiCommands@idGameLocal@@UAEPBDPBD@Z 200fad10 f   Game_local.obj
 0001:000f9d30       ?HandleMainMenuCommands@idGameLocal@@UAEXPBDPAVidUserInterface@@@Z 200fad30 f   Game_local.obj
 0001:000f9fb0       ?GetClientStats@idGameLocal@@UAEXHPADH@Z 200fafb0 f   Game_local.obj
 0001:000f9fc0       ?SwitchTeam@idGameLocal@@UAEXHH@Z 200fafc0 f   Game_local.obj
 0001:000fa020       ?StartViewEffect@idGameLocal@@UAEXHMM@Z 200fb020 f   Game_local.obj
 0001:000fa110       ?GetPlayerView@idGameLocal@@UAEXAAVidVec3@@AAVidMat3@@@Z 200fb110 f   Game_local.obj
 0001:000fa230       ?Translation@idGameLocal@@UAEXAAUtrace_t@@AAVidVec3@@1PAVidTraceModel@@H@Z 200fb230 f   Game_local.obj
 0001:000fa300       ?SpawnClientMoveable@idGameLocal@@UAEXPBDHABVidVec3@@ABVidMat3@@11@Z 200fb300 f   Game_local.obj
 0001:000fa460       ?DebugSetString@idGameLocal@@UAEXPBD0@Z 200fb460 f   Game_local.obj
 0001:000fa470       ?DebugSetFloat@idGameLocal@@UAEXPBDM@Z 200fb470 f   Game_local.obj
 0001:000fa490       ?DebugSetInt@idGameLocal@@UAEXPBDH@Z 200fb490 f   Game_local.obj
 0001:000fa4a0       ?DebugGetStatString@idGameLocal@@UAEPBDPBD@Z 200fb4a0 f   Game_local.obj
 0001:000fa4b0       ?DebugGetStatInt@idGameLocal@@UAEHPBD@Z 200fb4b0 f   Game_local.obj
 0001:000fa4c0       ?DebugGetStatFloat@idGameLocal@@UAEMPBD@Z 200fb4c0 f   Game_local.obj
 0001:000fa4d0       ?IsDebugHudActive@idGameLocal@@UBE_NXZ 200fb4d0 f   Game_local.obj
 0001:000fa4f0       ?GetPlayerInfo@idGameLocal@@UAE_NAAVidVec3@@AAVidMat3@@HPAVidAngles@@H@Z 200fb4f0 f   Game_local.obj
 0001:000fa5b0       ?SetPlayerInfo@idGameLocal@@UAEXAAVidVec3@@AAVidMat3@@H@Z 200fb5b0 f   Game_local.obj
 0001:000fa620       ?PlayerChatDisabled@idGameLocal@@UAE_NH@Z 200fb620 f   Game_local.obj
 0001:000fa660       ?SetViewComments@idGameLocal@@UAEXPBD@Z 200fb660 f   Game_local.obj
 0001:000fa6d0       ?GetPlayerName@idGameLocal@@UAEXHPAD@Z 200fb6d0 f   Game_local.obj
 0001:000fa730       ?GetPlayerClan@idGameLocal@@UAEXHPAD@Z 200fb730 f   Game_local.obj
 0001:000fa790       ?SetFriend@idGameLocal@@UAEXH_N@Z 200fb790 f   Game_local.obj
 0001:000fa7f0       ?Cmd_PrintMapEntityNumbers_f@idGameLocal@@SAXABVidCmdArgs@@@Z 200fb7f0 f   Game_local.obj
 0001:000fa820       ?Cmd_PrintSpawnIds_f@idGameLocal@@SAXABVidCmdArgs@@@Z 200fb820 f   Game_local.obj
 0001:000fa860       ?GetNumGravityAreas@idGameLocal@@UBEHXZ 200fb860 f   Game_local.obj
 0001:000fa870       ?GetGravityInfo@idGameLocal@@UBEPBVrvGravityArea@@H@Z 200fb870 f   Game_local.obj
 0001:000fa890       ?SetGravityInfo@idGameLocal@@UAEXHPAVrvGravityArea@@@Z 200fb890 f   Game_local.obj
 0001:000fa8b0       ?AddUniqueGravityInfo@idGameLocal@@UAEXPAVrvGravityArea@@@Z 200fb8b0 f   Game_local.obj
 0001:000fab40       ?GetCurrentGravityInfoIndex@idGameLocal@@UBEHABVidVec3@@@Z 200fbb40 f   Game_local.obj
 0001:000fabd0       ?InGravityArea@idGameLocal@@UBE_NPAVidEntity@@@Z 200fbbd0 f   Game_local.obj
 0001:000fabf0       ?GetCurrentGravityInfoIndex@idGameLocal@@UBEHPAVidEntity@@@Z 200fbbf0 f   Game_local.obj
 0001:000fac20       ?GetCurrentGravity@idGameLocal@@UBE?BVidVec3@@PAVidEntity@@@Z 200fbc20 f   Game_local.obj
 0001:000fac90       ?GetCurrentGravity@idGameLocal@@UBE?BVidVec3@@ABV2@ABVidMat3@@@Z 200fbc90 f   Game_local.obj
 0001:000fad00       ?InGravityArea@idGameLocal@@UBE_NPAVrvClientEntity@@@Z 200fbd00 f   Game_local.obj
 0001:000fad20       ?GetCurrentGravityInfoIndex@idGameLocal@@UBEHPAVrvClientEntity@@@Z 200fbd20 f   Game_local.obj
 0001:000fad50       ?GetCurrentGravity@idGameLocal@@UBE?BVidVec3@@PAVrvClientEntity@@@Z 200fbd50 f   Game_local.obj
 0001:000fadc0       ?ReferenceScriptObjectProxy@idGameLocal@@UAEPAVidEntity@@PBD@Z 200fbdc0 f   Game_local.obj
 0001:000fb430       ?ReleaseScriptObjectProxy@idGameLocal@@UAEXPBD@Z 200fc430 f   Game_local.obj
 0001:000fb4d0       ?ListEntityStats@idGameLocal@@UAEXABVidCmdArgs@@@Z 200fc4d0 f   Game_local.obj
 0001:000fc490       ?Printf@idGameLocal@@QBAXPBDZZ 200fd490 f   Game_local.obj
 0001:000fc4d0       ?DPrintf@idGameLocal@@QBAXPBDZZ 200fd4d0 f   Game_local.obj
 0001:000fc520       ?Warning@idGameLocal@@QBAXPBDZZ 200fd520 f   Game_local.obj
 0001:000fc570       ?DWarning@idGameLocal@@QBAXPBDZZ 200fd570 f   Game_local.obj
 0001:000fc5f0       ?Error@idGameLocal@@QBAXPBDZZ 200fd5f0 f   Game_local.obj
 0001:000fc690       ?LoadMap@idGameLocal@@QAEXPBDH@Z 200fd690 f   Game_local.obj
 0001:000fd160       ?LocalMapRestart@idGameLocal@@QAEXH@Z 200fe160 f   Game_local.obj
 0001:000fd370       ?MapRestart@idGameLocal@@QAEXH@Z 200fe370 f   Game_local.obj
 0001:000fd7c0       ?VerifyServerSettings_f@idGameLocal@@SAXABVidCmdArgs@@@Z 200fe7c0 f   Game_local.obj
 0001:000fd840       ?MapRestart_f@idGameLocal@@SAXABVidCmdArgs@@@Z 200fe840 f   Game_local.obj
 0001:000fd8e0       ?NextMap@idGameLocal@@QAE_NXZ 200fe8e0 f   Game_local.obj
 0001:000fde80       ?NextMap_f@idGameLocal@@SAXABVidCmdArgs@@@Z 200fee80 f   Game_local.obj
 0001:000fdec0       ?GetLevelMap@idGameLocal@@QAEPAVidMapFile@@XZ 200feec0 f   Game_local.obj
 0001:000fe0d0       ?GetMapName@idGameLocal@@QBEPBDXZ 200ff0d0 f   Game_local.obj
 0001:000fe0e0       ?NumAAS@idGameLocal@@QBEHXZ 200ff0e0 f   Game_local.obj
 0001:000fe0f0       ?GetAAS@idGameLocal@@QBEPAVidAAS@@H@Z 200ff0f0 f   Game_local.obj
 0001:000fe140       ?GetAAS@idGameLocal@@QBEPAVidAAS@@PBD@Z 200ff140 f   Game_local.obj
 0001:000fe1b0       ?SetAASAreaState@idGameLocal@@QAEXABVidBounds@@H_N@Z 200ff1b0 f   Game_local.obj
 0001:000fe1f0       ?AddAASObstacle@idGameLocal@@QAEHABVidBounds@@@Z 200ff1f0 f   Game_local.obj
 0001:000fe260       ?RemoveAASObstacle@idGameLocal@@QAEXH@Z 200ff260 f   Game_local.obj
 0001:000fe2a0       ?RemoveAllAASObstacles@idGameLocal@@QAEXXZ 200ff2a0 f   Game_local.obj
 0001:000fe2d0       ?GetEntityMemoryUsage@idGameLocal@@QBEIXZ 200ff2d0 f   Game_local.obj
 0001:000fe350       ?CheatsOk@idGameLocal@@QAE_N_N@Z 200ff350 f   Game_local.obj
 0001:000fe3d0       ?SetSkill@idGameLocal@@QAEXH@Z 200ff3d0 f   Game_local.obj
 0001:000fe400       ?GameState@idGameLocal@@QBE?AW4gameState_t@@XZ 200ff400 f   Game_local.obj
 0001:000fe410       ?SpawnEntityType@idGameLocal@@QAEPAVidEntity@@ABVidTypeInfo@@PBVidDict@@_N@Z 200ff410 f   Game_local.obj
 0001:000fe4e0       ?SpawnEntityDef@idGameLocal@@QAE_NABVidDict@@PAPAVidEntity@@_N@Z 200ff4e0 f   Game_local.obj
 0001:000fef50       ?SpawnClientEntityDef@idGameLocal@@QAE_NABVidDict@@PAPAVrvClientEntity@@_NPBD@Z 200fff50 f   Game_local.obj
 0001:000ff110       ?SpawnEntityDef@idGameLocal@@QAEPAVidEntity@@PBDPBVidDict@@@Z 20100110 f   Game_local.obj
 0001:000ff350       ?GetSpawnId@idGameLocal@@QBEHPBVidEntity@@@Z 20100350 f   Game_local.obj
 0001:000ff370       ?FindEntityDef@idGameLocal@@QBEPBVidDeclEntityDef@@PBD_N@Z 20100370 f   Game_local.obj
 0001:000ff3d0       ?FindEntityDefDict@idGameLocal@@QBEPBVidDict@@PBD_N@Z 201003d0 f   Game_local.obj
 0001:000ff3f0       ?RegisterEntity@idGameLocal@@QAEXPAVidEntity@@@Z 201003f0 f   Game_local.obj
 0001:000ff520       ?UnregisterEntity@idGameLocal@@QAEXPAVidEntity@@@Z 20100520 f   Game_local.obj
 0001:000ff5a0       ?SkipEntityIndex@idGameLocal@@QAEXXZ 201005a0 f   Game_local.obj
 0001:000ff5d0       ?RequirementMet@idGameLocal@@QAE_NPAVidEntity@@ABVidStr@@H@Z 201005d0 f   Game_local.obj
 0001:000ff630       ?IsWeaponsStayOn@idGameLocal@@QAE_NXZ 20100630 f   Game_local.obj
 0001:000ff690       ?RegisterClientEntity@idGameLocal@@QAEXPAVrvClientEntity@@@Z 20100690 f   Game_local.obj
 0001:000ff780       ?UnregisterClientEntity@idGameLocal@@QAEXPAVrvClientEntity@@@Z 20100780 f   Game_local.obj
 0001:000ff7f0       ?AlertAI@idGameLocal@@QAEXPAVidEntity@@@Z 201007f0 f   Game_local.obj
 0001:000ff8b0       ?GetAlertActor@idGameLocal@@QAEPAVidActor@@XZ 201008b0 f   Game_local.obj
 0001:000ff8f0       ?GetAlertEntity@idGameLocal@@QAEPAVidEntity@@XZ 201008f0 f   Game_local.obj
 0001:000ff930       ?InPlayerPVS@idGameLocal@@QBE_NPAVidEntity@@@Z 20100930 f   Game_local.obj
 0001:000ff980       ?InPlayerConnectedArea@idGameLocal@@QBE_NPAVidEntity@@@Z 20100980 f   Game_local.obj
 0001:000ff9d0       ?SetCamera@idGameLocal@@QAEXPAVidCamera@@@Z 201009d0 f   Game_local.obj
 0001:000ffcc0       ?GetCamera@idGameLocal@@QBEPAVidCamera@@XZ 20100cc0 f   Game_local.obj
 0001:000ffcd0       ?SkipCinematic@idGameLocal@@QAE_NXZ 20100cd0 f   Game_local.obj
 0001:000ffe10       ?GetPortalSky@idGameLocal@@QBEPAVidCamera@@XZ 20100e10 f   Game_local.obj
 0001:000ffe30       ?SetPortalSky@idGameLocal@@QAEXPAVidCamera@@@Z 20100e30 f   Game_local.obj
 0001:000ffe40       ?CalcFov@idGameLocal@@QBEXMAAM0@Z 20100e40 f   Game_local.obj
 0001:00100160       ?AddEntityToHash@idGameLocal@@QAEXPBDPAVidEntity@@@Z 20101160 f   Game_local.obj
 0001:00100210       ?RemoveEntityFromHash@idGameLocal@@QAE_NPBDPAVidEntity@@@Z 20101210 f   Game_local.obj
 0001:00100330       ?GetTargets@idGameLocal@@QBEHABVidDict@@AAV?$idList@V?$idEntityPtr@VidEntity@@@@@@PBD@Z 20101330 f   Game_local.obj
 0001:00100680       ?GetTraceEntity@idGameLocal@@QBEPAVidEntity@@ABUtrace_t@@@Z 20101680 f   Game_local.obj
 0001:001006c0       ?ArgCompletion_EntityName@idGameLocal@@SAXABVidCmdArgs@@P6AXPBD@Z@Z 201016c0 f   Game_local.obj
 0001:00100720       ?FindTraceEntity@idGameLocal@@QBEPAVidEntity@@VidVec3@@0ABVidTypeInfo@@PBV2@@Z 20101720 f   Game_local.obj
 0001:00100880       ?ArgCompletion_AIName@idGameLocal@@SAXABVidCmdArgs@@P6AXPBD@Z@Z 20101880 f   Game_local.obj
 0001:00100900       ?FindEntity@idGameLocal@@QBEPAVidEntity@@PBD@Z 20101900 f   Game_local.obj
 0001:001009a0       ?FindEntityUsingDef@idGameLocal@@QBEPAVidEntity@@PAV2@PBD@Z 201019a0 f   Game_local.obj
 0001:00100a10       ?EntitiesWithinRadius@idGameLocal@@QBEHVidVec3@@MPAPAVidEntity@@H@Z 20101a10 f   Game_local.obj
 0001:00100b10       ?KillBox@idGameLocal@@QAEXPAVidEntity@@_N@Z 20101b10 f   Game_local.obj
 0001:00100c70       ?RadiusPush@idGameLocal@@QAEXABVidVec3@@MMPBVidEntity@@1M_N@Z 20101c70 f   Game_local.obj
 0001:00100f70       ?RadiusDamage@idGameLocal@@QAEXABVidVec3@@PAVidEntity@@111PBDMPAH@Z 20101f70 f   Game_local.obj
 0001:00101560       ?RadiusPushClipModel@idGameLocal@@QAEXPAVidEntity@@ABVidVec3@@MPBVidClipModel@@@Z 20102560 f   Game_local.obj
 0001:00101720       ?ProjectDecal@idGameLocal@@QAEXABVidVec3@@0M_NMPBDM@Z 20102720 f   Game_local.obj
 0001:001020a0       ?BloodSplat@idGameLocal@@QAEXPBVidEntity@@ABVidVec3@@1MPBD@Z 201030a0 f   Game_local.obj
 0001:00102390       ?CallFrameCommand@idGameLocal@@QAEXPAVidEntity@@PBVfunction_t@@@Z 20103390 f   Game_local.obj
 0001:001023c0       ?CallFrameCommand@idGameLocal@@QAEXPAVidEntity@@PBD@Z 201033c0 f   Game_local.obj
 0001:00102400       ?CallObjectFrameCommand@idGameLocal@@QAEXPAVidEntity@@PBD@Z 20103400 f   Game_local.obj
 0001:00102480       ?GetGravity@idGameLocal@@QBEABVidVec3@@XZ 20103480 f   Game_local.obj
 0001:00102490       ?GetNextClientNum@idGameLocal@@QBEHH@Z 20103490 f   Game_local.obj
 0001:00102510       ?GetClientByNum@idGameLocal@@QBEPAVidPlayer@@H@Z 20103510 f   Game_local.obj
 0001:00102540       ?GetClientByName@idGameLocal@@QBEPAVidPlayer@@PBD@Z 20103540 f   Game_local.obj
 0001:001025e0       ?GetClientByCmdArgs@idGameLocal@@QBEPAVidPlayer@@ABVidCmdArgs@@@Z 201035e0 f   Game_local.obj
 0001:001026f0       ?GetClientNumByName@idGameLocal@@QBEHPBD@Z 201036f0 f   Game_local.obj
 0001:001027a0       ?GetLocalPlayer@idGameLocal@@QBEPAVidPlayer@@XZ 201037a0 f   Game_local.obj
 0001:00102800       ?UpdatePlayerPostMainMenu@idGameLocal@@UAEXXZ 20103800 f   Game_local.obj
 0001:00102820       ?GetSpawnCount@idGameLocal@@QBEHXZ 20103820 f   Game_local.obj
 0001:00102830       ?SpreadLocations@idGameLocal@@QAEXXZ 20103830 f   Game_local.obj
 0001:00102a50       ?LocationForPoint@idGameLocal@@QAEPAVidLocationEntity@@ABVidVec3@@@Z 20103a50 f   Game_local.obj
 0001:00102ab0       ?AddLocation@idGameLocal@@QAEPAVidLocationEntity@@ABVidVec3@@PBD@Z 20103ab0 f   Game_local.obj
 0001:00102e10       ?SpotWouldTelefrag@idGameLocal@@QAE_NPAVidPlayer@@PAVidPlayerStart@@@Z 20103e10 f   Game_local.obj
 0001:00102ed0       ?SelectSpawnPoint@idGameLocal@@QAEPAVidEntity@@PAVidPlayer@@@Z 20103ed0 f   Game_local.obj
 0001:00103480       ?UpdateForwardSpawns@idGameLocal@@QAEXPAVrvCTFAssaultPlayerStart@@H@Z 20104480 f   Game_local.obj
 0001:00103710       ?ClearForwardSpawns@idGameLocal@@QAEXXZ 20104710 f   Game_local.obj
 0001:001037a0       ?SetPortalState@idGameLocal@@QAEXHH@Z 201047a0 f   Game_local.obj
 0001:00103830       ?SetGlobalMaterial@idGameLocal@@QAEXPBVidMaterial@@@Z 20104830 f   Game_local.obj
 0001:00103840       ?GetGlobalMaterial@idGameLocal@@QAEPBVidMaterial@@XZ 20104840 f   Game_local.obj
 0001:00103850       ?NeedRestart@idGameLocal@@QAE_NXZ 20104850 f   Game_local.obj
 0001:00103af0       ?UpdateEndLevel@idGameLocal@@QAEXXZ 20104af0 f   Game_local.obj
 0001:00103b80       ?CheckPlayerWhizzBy@idGameLocal@@QAEXVidVec3@@0PAVidEntity@@1@Z 20104b80 f   Game_local.obj
 0001:00103f10       ?HitScan@idGameLocal@@QAEPAVidEntity@@ABVidDict@@ABVidVec3@@11PAV2@_NM2PAH@Z 20104f10 f   Game_local.obj
 0001:001052c0       ?PlayEffect@idGameLocal@@UAEPAVrvClientEffect@@PBVidDecl@@ABVidVec3@@ABVidMat3@@_N133W4effectCategory_t@@ABVidVec4@@@Z 201062c0 f   Game_local.obj
 0001:001056a0       ?GetEffect@idGameLocal@@QAEPBVidDecl@@ABVidDict@@PBDPBVrvDeclMatType@@@Z 201066a0 f   Game_local.obj
 0001:00105b70       ?Translation@idGameLocal@@QAE_NPBVidEntity@@AAUtrace_t@@ABVidVec3@@2PBVidClipModel@@ABVidMat3@@H00@Z 20106b70 f   Game_local.obj
 0001:00105bb0       ?Rotation@idGameLocal@@QAE_NPBVidEntity@@AAUtrace_t@@ABVidVec3@@ABVidRotation@@PBVidClipModel@@ABVidMat3@@H0@Z 20106bb0 f   Game_local.obj
 0001:00105bf0       ?Motion@idGameLocal@@QAE_NPBVidEntity@@AAUtrace_t@@ABVidVec3@@2ABVidRotation@@PBVidClipModel@@ABVidMat3@@H0@Z 20106bf0 f   Game_local.obj
 0001:00105c30       ?Contacts@idGameLocal@@QAEHPBVidEntity@@PAUcontactInfo_t@@HABVidVec3@@ABVidVec6@@MPBVidClipModel@@ABVidMat3@@H0@Z 20106c30 f   Game_local.obj
 0001:00105c80       ?Contents@idGameLocal@@QAEHPBVidEntity@@ABVidVec3@@PBVidClipModel@@ABVidMat3@@H0PAPAV2@@Z 20106c80 f   Game_local.obj
 0001:00105cc0       ?TracePoint@idGameLocal@@QAE_NPBVidEntity@@AAUtrace_t@@ABVidVec3@@2H0@Z 20106cc0 f   Game_local.obj
 0001:00105d10       ?TraceBounds@idGameLocal@@QAE_NPBVidEntity@@AAUtrace_t@@ABVidVec3@@2ABVidBounds@@H0@Z 20106d10 f   Game_local.obj
 0001:00105da0       ?TranslationModel@idGameLocal@@QAEXPBVidEntity@@AAUtrace_t@@ABVidVec3@@2PBVidClipModel@@ABVidMat3@@HPAVidCollisionModel@@24@Z 20106da0 f   Game_local.obj
 0001:00105de0       ?RotationModel@idGameLocal@@QAEXPBVidEntity@@AAUtrace_t@@ABVidVec3@@ABVidRotation@@PBVidClipModel@@ABVidMat3@@HPAVidCollisionModel@@25@Z 20106de0 f   Game_local.obj
 0001:00105e20       ?ContactsModel@idGameLocal@@QAEHPBVidEntity@@PAUcontactInfo_t@@HABVidVec3@@ABVidVec6@@MPBVidClipModel@@ABVidMat3@@HPAVidCollisionModel@@25@Z 20106e20 f   Game_local.obj
 0001:00105e70       ?ContentsModel@idGameLocal@@QAEHPBVidEntity@@ABVidVec3@@PBVidClipModel@@ABVidMat3@@HPAVidCollisionModel@@13@Z 20106e70 f   Game_local.obj
 0001:00105eb0       ?TranslationEntities@idGameLocal@@QAEXPBVidEntity@@AAUtrace_t@@ABVidVec3@@2PBVidClipModel@@ABVidMat3@@H00@Z 20106eb0 f   Game_local.obj
 0001:00105ef0       ?GetModelContactFeature@idGameLocal@@QBE_NPBVidEntity@@ABUcontactInfo_t@@PBVidClipModel@@AAVidFixedWinding@@@Z 20106ef0 f   Game_local.obj
 0001:00105f20       ?EntitiesTouchingBounds@idGameLocal@@QBEHPBVidEntity@@ABVidBounds@@HPAPAV2@H@Z 20106f20 f   Game_local.obj
 0001:00105f50       ?ClipModelsTouchingBounds@idGameLocal@@QBEHPBVidEntity@@ABVidBounds@@HPAPAVidClipModel@@H@Z 20106f50 f   Game_local.obj
 0001:00105f80       ?PlayersTouchingBounds@idGameLocal@@QBEHPBVidEntity@@ABVidBounds@@HPAPAVidPlayer@@H@Z 20106f80 f   Game_local.obj
 0001:00105fb0       ?GetWorldBounds@idGameLocal@@QBEABVidBounds@@PBVidEntity@@@Z 20106fb0 f   Game_local.obj
 0001:00105fe0       ?GetEntityClipWorld@idGameLocal@@QAEPAVidClip@@PBVidEntity@@@Z 20106fe0 f   Game_local.obj
 0001:00106080       ?GetEntityClipWorld@idGameLocal@@QBEPBVidClip@@PBVidEntity@@@Z 20107080 f   Game_local.obj
 0001:00106120       ?AddClipWorld@idGameLocal@@QAEHH@Z 20107120 f   Game_local.obj
 0001:00106430       ?RemoveClipWorld@idGameLocal@@QAEXH@Z 20107430 f   Game_local.obj
 0001:00106490       ?AddInstance@idGameLocal@@QAEHH_N@Z 20107490 f   Game_local.obj
 0001:00106790       ?RemoveInstance@idGameLocal@@QAEXH@Z 20107790 f   Game_local.obj
 0001:001067e0       ?SpawnMapEntities@idGameLocal@@QAEXHPAG0PAH@Z 201077e0 f   Game_local.obj
 0001:00107400       ?InstanceClear@idGameLocal@@QAEXXZ 20108400 f   Game_local.obj
 0001:00107790       ?GetLongGametypeName@idGameLocal@@UAEPBDPBD@Z 20108790 f   Game_local.obj
 0001:001077a0       ?IsTeamPowerups@idGameLocal@@QAE_NXZ 201087a0 f   Game_local.obj
 0001:00107800       ?GetDemoHud@idGameLocal@@QAEPAVidUserInterface@@XZ 20108800 f   Game_local.obj
 0001:00107830       ?GetDemoMphud@idGameLocal@@QAEPAVidUserInterface@@XZ 20108830 f   Game_local.obj
 0001:00107860       ?GetDemoCursor@idGameLocal@@QAEPAVidUserInterface@@XZ 20108860 f   Game_local.obj
 0001:00107890       ?GetStartingIndexForInstance@idGameLocal@@QAEHH@Z 20108890 f   Game_local.obj
 0001:001078d0       ?ServerSetMinSpawnIndex@idGameLocal@@QAEXXZ 201088d0 f   Game_local.obj
 0001:00107940       ?ServerSetEntityIndexWatermark@idGameLocal@@QAEXH@Z 20108940 f   Game_local.obj
 0001:00107b10       ?Clear@idGameLocal@@AAEXXZ 20108b10 f   Game_local.obj
 0001:001082a0       ?InhibitEntitySpawn@idGameLocal@@AAE_NAAVidDict@@@Z 201092a0 f   Game_local.obj
 0001:001085b0       ?MapPopulate@idGameLocal@@AAEXH@Z 201095b0 f   Game_local.obj
 0001:00108670       ?MapClear@idGameLocal@@AAEX_NH@Z 20109670 f   Game_local.obj
 0001:00108af0       ?SetupPortalSkyPVS@idGameLocal@@AAE_NPAVidPlayer@@@Z 20109af0 f   Game_local.obj
 0001:00108bf0       ?SetupPlayerPVS@idGameLocal@@AAEXXZ 20109bf0 f   Game_local.obj
 0001:00108e20       ?FreePlayerPVS@idGameLocal@@AAEXXZ 20109e20 f   Game_local.obj
 0001:00108ee0       ?UpdateGravity@idGameLocal@@AAEXXZ 20109ee0 f   Game_local.obj
 0001:00109010       ?SortActiveEntityList@idGameLocal@@AAEXXZ 2010a010 f   Game_local.obj
 0001:001092e0       ?ShowTargets@idGameLocal@@AAEXXZ 2010a2e0 f   Game_local.obj
 0001:00109ae0       ?RunDebugInfo@idGameLocal@@AAEXXZ 2010aae0 f   Game_local.obj
 0001:0010a2a0       ?InitScriptForMap@idGameLocal@@AAEXXZ 2010b2a0 f   Game_local.obj
 0001:0010a380       ?SetGameType@idGameLocal@@AAEXXZ 2010b380 f   Game_local.obj
 0001:0010a3d0       ?InitializeSpawns@idGameLocal@@AAEXXZ 2010b3d0 f   Game_local.obj
 0001:0010af70       ?sortSpawnPoints@idGameLocal@@CAHPBX0@Z 2010bf70 f   Game_local.obj
 0001:0010afa0       ?DumpOggSounds@idGameLocal@@AAEXXZ 2010bfa0 f   Game_local.obj
 0001:0010c020       ?GetShakeSounds@idGameLocal@@AAEXPBVidDict@@@Z 2010d020 f   Game_local.obj
 0001:0010c4d0       ?ValidateServerSettings@idGameLocal@@EAE_NPBD0@Z 2010d4d0 f   Game_local.obj
 0001:0010c580       ?ShutdownInstances@idGameLocal@@AAEXXZ 2010d580 f   Game_local.obj
 0001:0010c6a0       ?UpdateClientsPVS@idGameLocal@@AAEXXZ 2010d6a0 f   Game_local.obj
 0001:0010c700       ?BuildModList@idGameLocal@@AAEXXZ 2010d700 f   Game_local.obj
 0001:0010d0d0       ?GetClientPVS@idGameLocal@@QAE?AUpvsHandle_s@@PAVidPlayer@@W4pvsType_t@@@Z 2010e0d0 f   Game_local.obj
 0001:0010d160       _GetGameAPI                2010e160 f   Game_local.obj
 0001:0010d250       ?TestGameAPI@@YAXXZ        2010e250 f   Game_local.obj
 0001:0010d390       ??$idDeclAllocator@VidDecl@@@@YAPAVidDecl@@XZ 2010e390 f i Game_local.obj
 0001:0010d3e0       ??$idDeclAllocator@VidDeclCameraDef@@@@YAPAVidDecl@@XZ 2010e3e0 f i Game_local.obj
 0001:0010d460       ??$idDeclAllocator@VidDeclModelDef@@@@YAPAVidDecl@@XZ 2010e460 f i Game_local.obj
 0001:0010d4e0       ??$idListDecls_f@$04@@YAXABVidCmdArgs@@@Z 2010e4e0 f i Game_local.obj
 0001:0010d500       ??$idListSortCompare@PAVidStr@@@@YAHPBQAVidStr@@0@Z 2010e500 f i Game_local.obj
 0001:0010d500       ??$idListSortCompare@PBVidPoolStr@@@@YAHPBQBVidPoolStr@@0@Z 2010e500 f i idLib:Dict.obj
 0001:0010d520       ??$idPrintDecls_f@$04@@YAXABVidCmdArgs@@@Z 2010e520 f i Game_local.obj
 0001:0010d540       ??0idDict@@QAE@XZ          2010e540 f i Game_local.obj
 0001:0010d6e0       ??1?$idBlockAlloc@UentityNetEvent_s@@$0CA@$0BE@@@QAE@XZ 2010e6e0 f i Game_local.obj
 0001:0010d6f0       ??1?$idBlockAlloc@UentityState_s@@$0BAA@$0BL@@@QAE@XZ 2010e6f0 f i Game_local.obj
 0001:0010d720       ??1?$idBlockAlloc@Usnapshot_s@@$0EA@$0BL@@@QAE@XZ 2010e720 f i Game_local.obj
 0001:0010d730       ??1?$idList@UmpBanInfo_s@@@@QAE@XZ 2010e730 f i Game_local.obj
 0001:0010d7b0       ??1?$idList@VidDict@@@@QAE@XZ 2010e7b0 f i Game_local.obj
 0001:0010d830       ??1idEventQueue@@QAE@XZ    2010e830 f i Game_local.obj
 0001:0010d840       ??1idGame@@UAE@XZ          2010e840 f i Game_local.obj
 0001:0010d850       ??1idGameLocal@@UAE@XZ     2010e850 f i Game_local.obj
 0001:0010df70       ??1idMultiplayerGame@@QAE@XZ 2010ef70 f i Game_local.obj
 0001:0010e1a0       ??4idToken@@QAEAAV0@ABV0@@Z 2010f1a0 f i Game_local.obj
 0001:0010e220       ??_GidEditEntities@@QAEPAXI@Z 2010f220 f i Game_local.obj
 0001:0010e300       ??_EidGame@@UAEPAXI@Z      2010f300 f i Game_local.obj
 0001:0010e300       ??_GidGame@@UAEPAXI@Z      2010f300 f i Game_local.obj
 0001:0010e330       ??_EidGameLocal@@UAEPAXI@Z 2010f330 f i Game_local.obj
 0001:0010e330       ??_GidGameLocal@@UAEPAXI@Z 2010f330 f i Game_local.obj
 0001:0010e360       ?ClientReadRepeaterSnapshot@idGameLocal@@UAEXHHHHABVidBitMsg@@@Z 2010f360 f i Game_local.obj
 0001:0010e370       ?GetBotInput@idGameLocal@@UAEXHAAVusercmd_t@@@Z 2010f370 f i Game_local.obj
 0001:0010e390       ?GetDemoFollowClient@idGameLocal@@UAEHXZ 2010f390 f i Game_local.obj
 0001:0010e3b0       ?GetHead@idActor@@QAEPAVidEntity@@XZ 2010f3b0 f i Game_local.obj
 0001:0010e3e0       ?GetLoadingGui@idGameLocal@@UAEPBDPBD@Z 2010f3e0 f i Game_local.obj
 0001:0010e3f0       ?InCinematic@idGameLocal@@UAE_NXZ 2010f3f0 f i Game_local.obj
 0001:0010e400       ?IsFlagGameType@idGameLocal@@QAE_NXZ 2010f400 f i Game_local.obj
 0001:0010e420       ?IsMultiplayer@idGameLocal@@UAE_NXZ 2010f420 f i Game_local.obj
 0001:0010e430       ?ReceiveRemoteConsoleOutput@idGameLocal@@UAEXPBD@Z 2010f430 f i Game_local.obj
 0001:0010e450       ?RepeaterAllowClient@idGameLocal@@UAE?AW4allowReply_t@@HHPBD0_N00QAD@Z 2010f450 f i Game_local.obj
 0001:0010e470       ?RepeaterFrame@idGameLocal@@UAEXPBUuserOrigin_s@@_NH@Z 2010f470 f i Game_local.obj
 0001:0010e480       ?RepeaterSetUserInfo@idGameLocal@@UAEPBVidDict@@HABV2@@Z 2010f480 f i Game_local.obj
 0001:0010e490       ?RepeaterWriteSnapshot@idGameLocal@@UAEXHHAAVidBitMsg@@PAIHABUuserOrigin_s@@H@Z 2010f490 f i Game_local.obj
 0001:0010e4a0       ?SetRepeaterState@idGameLocal@@UAEX_N0@Z 2010f4a0 f i Game_local.obj
 0001:0010e4d0       ?Shutdown@?$idBlockAlloc@UentityNetEvent_s@@$0CA@$0BE@@@QAEXXZ 2010f4d0 f i Game_local.obj
 0001:0010e520       ?Shutdown@?$idBlockAlloc@UentityState_s@@$0BAA@$0BL@@@QAEXXZ 2010f520 f i Game_local.obj
 0001:0010e5c0       ?Shutdown@?$idBlockAlloc@Usnapshot_s@@$0EA@$0BL@@@QAEXXZ 2010f5c0 f i Game_local.obj
 0001:0010e610       ??0rvGameLogLocal@@QAE@XZ  2010f610 f   Game_Log.obj
 0001:0010e6b0       ?Init@rvGameLogLocal@@UAEXXZ 2010f6b0 f   Game_Log.obj
 0001:0010e7e0       ?Shutdown@rvGameLogLocal@@UAEXXZ 2010f7e0 f   Game_Log.obj
 0001:0010e970       ?BeginFrame@rvGameLogLocal@@UAEXH@Z 2010f970 f   Game_Log.obj
 0001:0010e9a0       ?EndFrame@rvGameLogLocal@@UAEXXZ 2010f9a0 f   Game_Log.obj
 0001:0010f490       ?Set@rvGameLogLocal@@UAEXPBDH@Z 20110490 f   Game_Log.obj
 0001:0010f4c0       ?Set@rvGameLogLocal@@UAEXPBDM@Z 201104c0 f   Game_Log.obj
 0001:0010f500       ?Set@rvGameLogLocal@@UAEXPBD0@Z 20110500 f   Game_Log.obj
 0001:0010fc40       ?Set@rvGameLogLocal@@UAEXPBD_N@Z 20110c40 f   Game_Log.obj
 0001:0010fc70       ?Add@rvGameLogLocal@@UAEXPBDH@Z 20110c70 f   Game_Log.obj
 0001:001103d0       ?Add@rvGameLogLocal@@UAEXPBDM@Z 201113d0 f   Game_Log.obj
 0001:00110b10       ??1rvGameLogLocal@@UAE@XZ  20111b10 f i Game_Log.obj
 0001:00110c30       ??_ErvGameLog@@UAEPAXI@Z   20111c30 f i Game_Log.obj
 0001:00110c30       ??_GrvGameLog@@UAEPAXI@Z   20111c30 f i Game_Log.obj
 0001:00110c60       ??_ErvGameLogLocal@@UAEPAXI@Z 20111c60 f i Game_Log.obj
 0001:00110c60       ??_GrvGameLogLocal@@UAEPAXI@Z 20111c60 f i Game_Log.obj
 0001:00110ca0       ?Alloc@idEventQueue@@QAEPAUentityNetEvent_s@@XZ 20111ca0 f   Game_network.obj
 0001:00110cc0       ?Free@idEventQueue@@QAEXPAUentityNetEvent_s@@@Z 20111cc0 f   Game_network.obj
 0001:00110cd0       ?Shutdown@idEventQueue@@QAEXXZ 20111cd0 f   Game_network.obj
 0001:00110cf0       ?Init@idEventQueue@@QAEXXZ 20111cf0 f   Game_network.obj
 0001:00110d00       ?Enqueue@idEventQueue@@QAEXPAUentityNetEvent_s@@W4outOfOrderBehaviour_t@1@@Z 20111d00 f   Game_network.obj
 0001:00110e10       ?Dequeue@idEventQueue@@QAEPAUentityNetEvent_s@@XZ 20111e10 f   Game_network.obj
 0001:00110e50       ?RemoveLast@idEventQueue@@QAEPAUentityNetEvent_s@@XZ 20111e50 f   Game_network.obj
 0001:00110e90       ?ServerAllowClient@idGameLocal@@UAE?AW4allowReply_t@@HHPBD000QAD@Z 20111e90 f   Game_network.obj
 0001:001111a0       ?ServerClientConnect@idGameLocal@@UAEXHPBD@Z 201121a0 f   Game_network.obj
 0001:00111220       ?ServerClientBegin@idGameLocal@@UAEXH@Z 20112220 f   Game_network.obj
 0001:00111300       ?ServerClientDisconnect@idGameLocal@@UAEXH@Z 20112300 f   Game_network.obj
 0001:00111430       ?ServerWriteInitialReliableMessages@idGameLocal@@UAEXH@Z 20112430 f   Game_network.obj
 0001:00111570       ?ServerWriteSnapshot@idGameLocal@@UAEXHHAAVidBitMsg@@PAIHH@Z 20112570 f   Game_network.obj
 0001:001119e0       ?ServerApplySnapshot@idGameLocal@@UAE_NHH@Z 201129e0 f   Game_network.obj
 0001:001119f0       ?ServerProcessReliableMessage@idGameLocal@@UAEXHABVidBitMsg@@@Z 201129f0 f   Game_network.obj
 0001:00111d60       ?ClientReadSnapshot@idGameLocal@@UAEXHHHHHHABVidBitMsg@@@Z 20112d60 f   Game_network.obj
 0001:001128d0       ?ClientApplySnapshot@idGameLocal@@UAE_NHH@Z 201138d0 f   Game_network.obj
 0001:001128e0       ?ClientProcessReliableMessage@idGameLocal@@UAEXHABVidBitMsg@@@Z 201138e0 f   Game_network.obj
 0001:00113960       ?ClientPrediction@idGameLocal@@UAE?AUgameReturn_t@@HPBVusercmd_t@@_NPAUClientStats_t@@@Z 20114960 f   Game_network.obj
 0001:00113de0       ?ClientRun@idGameLocal@@UAEXXZ 20114de0 f   Game_network.obj
 0001:00113e00       ?ClientEndFrame@idGameLocal@@UAEXXZ 20114e00 f   Game_network.obj
 0001:00113e20       ?ProcessRconReturn@idGameLocal@@UAEX_N@Z 20114e20 f   Game_network.obj
 0001:00113e40       ?ResetRconGuiStatus@idGameLocal@@UAEXXZ 20114e40 f   Game_network.obj
 0001:00113e60       ?DownloadRequest@idGameLocal@@UAE_NPBD00QAD@Z 20114e60 f   Game_network.obj
 0001:00114350       ?HTTPRequest@idGameLocal@@UAE_NPBD0_N@Z 20115350 f   Game_network.obj
 0001:00114360       ?ClientHitScan@idGameLocal@@UAEXABVidBitMsg@@@Z 20115360 f   Game_network.obj
 0001:001144a0       ?SetDemoState@idGameLocal@@UAEXW4demoState_t@@_N1@Z 201154a0 f   Game_network.obj
 0001:00114520       ?WriteNetworkInfo@idGameLocal@@UAEXPAVidFile@@H@Z 20115520 f   Game_network.obj
 0001:00114700       ?ReadNetworkInfo@idGameLocal@@UAEXHPAVidFile@@H@Z 20115700 f   Game_network.obj
 0001:00114fb0       ?ValidateDemoProtocol@idGameLocal@@UAE_NHH@Z 20115fb0 f   Game_network.obj
 0001:00114fe0       ?ServerWriteServerDemoSnapshot@idGameLocal@@UAEXHAAVidBitMsg@@H@Z 20115fe0 f   Game_network.obj
 0001:00115280       ?ClientReadServerDemoSnapshot@idGameLocal@@UAEXHHHABVidBitMsg@@@Z 20116280 f   Game_network.obj
 0001:00115b40       ?ServerSendChatMessage@idGameLocal@@QAEXHPBD00@Z 20116b40 f   Game_network.obj
 0001:00115cb0       ?PopulateBanList@idGameLocal@@UAEXPAVidUserInterface@@@Z 20116cb0 f   Game_network.obj
 0001:00115d70       ?ServerSendInstanceReliableMessageExcluding@idGameLocal@@QAEXPBVidEntity@@HABVidBitMsg@@@Z 20116d70 f   Game_network.obj
 0001:00115e00       ?ServerSendInstanceReliableMessage@idGameLocal@@QAEXPBVidEntity@@HABVidBitMsg@@@Z 20116e00 f   Game_network.obj
 0001:00115ed0       ?SendUnreliableMessage@idGameLocal@@QAEXABVidBitMsg@@H@Z 20116ed0 f   Game_network.obj
 0001:00115fa0       ?SendUnreliableMessagePVS@idGameLocal@@QAEXABVidBitMsg@@PBVidEntity@@HH@Z 20116fa0 f   Game_network.obj
 0001:00116110       ?RandomSpawn@idGameLocal@@QAEPAVidPlayerStart@@XZ 20117110 f   Game_network.obj
 0001:00116150       ?InitAsyncNetwork@idGameLocal@@AAEXXZ 20117150 f   Game_network.obj
 0001:001161f0       ?ShutdownAsyncNetwork@idGameLocal@@AAEXXZ 201171f0 f   Game_network.obj
 0001:00116260       ?InitLocalClient@idGameLocal@@AAEXH@Z 20117260 f   Game_network.obj
 0001:00116280       ?FreeSnapshotsOlderThanSequence@idGameLocal@@AAEXHH@Z 20117280 f   Game_network.obj
 0001:00116330       ?ApplySnapshot@idGameLocal@@AAE_NHH@Z 20117330 f   Game_network.obj
 0001:00116420       ?WriteGameStateToSnapshot@idGameLocal@@ABEXAAVidBitMsgDelta@@@Z 20117420 f   Game_network.obj
 0001:00116480       ?ReadGameStateFromSnapshot@idGameLocal@@AAEXABVidBitMsgDelta@@@Z 20117480 f   Game_network.obj
 0001:001164d0       ?NetworkEventWarning@idGameLocal@@AAAXPBUentityNetEvent_s@@PBDZZ 201174d0 f   Game_network.obj
 0001:00116560       ?ServerProcessEntityNetworkEventQueue@idGameLocal@@AAEXXZ 20117560 f   Game_network.obj
 0001:00116650       ?ClientProcessEntityNetworkEventQueue@idGameLocal@@AAEXXZ 20117650 f   Game_network.obj
 0001:00116750       ?ClientShowSnapshot@idGameLocal@@ABEXH@Z 20117750 f   Game_network.obj
 0001:00116a20       ?Tokenize@idGameLocal@@AAEXAAV?$idList@VidStr@@@@PBD@Z 20117a20 f   Game_network.obj
 0001:00116e40       ?UpdateLagometer@idGameLocal@@AAEXHH@Z 20117e40 f   Game_network.obj
 0001:00116fa0       ?ClientReadUnreliableMessages@idGameLocal@@AAEXABVidBitMsg@@@Z 20117fa0 f   Game_network.obj
 0001:00117060       ?ProcessUnreliableMessage@idGameLocal@@AAEXABVidBitMsg@@@Z 20118060 f   Game_network.obj
 0001:001173d0       ?IsDemoReplayInAreas@idGameLocal@@AAE_NHH@Z 201183d0 f   Game_network.obj
 0001:001174a0       ?LoadBanList@idGameLocal@@QAEXXZ 201184a0 f   Game_network.obj
 0001:001179e0       ?SaveBanList@idGameLocal@@QAEXXZ 201189e0 f   Game_network.obj
 0001:00117ae0       ?FlushBanList@idGameLocal@@QAEXXZ 20118ae0 f   Game_network.obj
 0001:00117b70       ?IsPlayerBanned@idGameLocal@@QAE_NPBD@Z 20118b70 f   Game_network.obj
 0001:00117bd0       ?IsGuidBanned@idGameLocal@@QAE_NPBD@Z 20118bd0 f   Game_network.obj
 0001:00117c30       ?AddGuidToBanList@idGameLocal@@UAEXPBD@Z 20118c30 f   Game_network.obj
 0001:001180c0       ?RemoveGuidFromBanList@idGameLocal@@UAEXPBD@Z 201190c0 f   Game_network.obj
 0001:001181c0       ?RegisterClientGuid@idGameLocal@@UAEXHPBD@Z 201191c0 f   Game_network.obj
 0001:00118200       ?GetBanListCount@idGameLocal@@QAEHXZ 20119200 f   Game_network.obj
 0001:00118220       ?GetBanListEntry@idGameLocal@@QAEPBUmpBanInfo_s@@H@Z 20119220 f   Game_network.obj
 0001:00118260       ?GetGuidByClientNum@idGameLocal@@UAEPBDH@Z 20119260 f   Game_network.obj
 0001:00118280       ?GetClientNumByGuid@idGameLocal@@QAEHPBD@Z 20119280 f   Game_network.obj
 0001:001182d0       ?ServerSendBanList@idGameLocal@@QAEXH@Z 201192d0 f   Game_network.obj
 0001:00118380       ??0element_s@?$idBlockAlloc@UentityState_s@@$0BAA@$0BL@@@QAE@XZ 20119380 f i Game_network.obj
 0001:00118390       ??1voteStruct_t@@QAE@XZ    20119390 f i Game_network.obj
 0001:001183d0       ?Alloc@?$idBlockAlloc@UentityNetEvent_s@@$0CA@$0BE@@@QAEPAUentityNetEvent_s@@XZ 201193d0 f i Game_network.obj
 0001:00118470       ?Alloc@?$idBlockAlloc@UentityState_s@@$0BAA@$0BL@@@QAEPAUentityState_s@@XZ 20119470 f i Game_network.obj
 0001:00118570       ?Alloc@?$idBlockAlloc@Usnapshot_s@@$0EA@$0BL@@@QAEPAUsnapshot_s@@XZ 20119570 f i Game_network.obj
 0001:00118610       ?RegisterClassA@rvHealingStation@@SAXXZ 20119610 f   Healing_Station.obj
 0001:001186d0       ?CreateInstance@rvHealingStation@@SAPAVidClass@@XZ 201196d0 f   Healing_Station.obj
 0001:00118790       ?GetClassType@rvHealingStation@@SAAAVidTypeInfo@@XZ 20119790 f   Healing_Station.obj
 0001:001187a0       ?GetType@rvHealingStation@@UBEPAVidTypeInfo@@XZ 201197a0 f   Healing_Station.obj
 0001:001187b0       ?Think@rvHealingStation@@UAEXXZ 201197b0 f   Healing_Station.obj
 0001:00118810       ?Spawn@rvHealingStation@@QAEXXZ 20119810 f   Healing_Station.obj
 0001:00118980       ?Save@rvHealingStation@@QBEXPAVidSaveGame@@@Z 20119980 f   Healing_Station.obj
 0001:00118a20       ?Restore@rvHealingStation@@QAEXPAVidRestoreGame@@@Z 20119a20 f   Healing_Station.obj
 0001:00118ac0       ?BeginHealing@rvHealingStation@@QAEXPAVidEntity@@@Z 20119ac0 f   Healing_Station.obj
 0001:00118b00       ?EndHealing@rvHealingStation@@QAEXXZ 20119b00 f   Healing_Station.obj
 0001:00118b10       ?CreateFrame@rvHealingStation@@IAEXM@Z 20119b10 f   Healing_Station.obj
 0001:00118bd0       ?State_Healing@rvHealingStation@@IAE?AW4stateResult_t@@ABUstateParms_t@@@Z 20119bd0 f   Healing_Station.obj
 0001:00118d50       ?IsPlaying@rvHealingStation@@AAE_NXZ 20119d50 f   Healing_Station.obj
 0001:00118d80       ?Register_rvHealingStation@@YAXXZ 20119d80 f   Healing_Station.obj
 0001:00118d90       ??_ErvHealingStation@@UAEPAXI@Z 20119d90 f i Healing_Station.obj
 0001:00118d90       ??_GrvHealingStation@@UAEPAXI@Z 20119d90 f i Healing_Station.obj
 0001:00118de0       ??0rvIcon@@QAE@XZ          20119de0 f   Icon.obj
 0001:00118df0       ??1rvIcon@@QAE@XZ          20119df0 f   Icon.obj
 0001:00118e20       ?UpdateIcon@rvIcon@@QAEXABVidVec3@@ABVidMat3@@@Z 20119e20 f   Icon.obj
 0001:00118e90       ?CreateIcon@rvIcon@@QAEHPBDH@Z 20119e90 f   Icon.obj
 0001:00119030       ?FreeIcon@rvIcon@@QAEXXZ   2011a030 f   Icon.obj
 0001:00119060       ?GetHeight@rvIcon@@QBEHXZ  2011a060 f   Icon.obj
 0001:00119070       ?GetWidth@rvIcon@@QBEHXZ   2011a070 f   Icon.obj
 0001:00119080       ?AddIcon@rvIconManager@@QAEXHPBD@Z 2011a080 f   IconManager.obj
 0001:00119350       ?UpdateIcons@rvIconManager@@QAEXXZ 2011a350 f   IconManager.obj
 0001:00119700       ?UpdateTeamIcons@rvIconManager@@QAEXXZ 2011a700 f   IconManager.obj
 0001:00119930       ?UpdateChatIcons@rvIconManager@@QAEXXZ 2011a930 f   IconManager.obj
 0001:00119bd0       ?Shutdown@rvIconManager@@QAEXXZ 2011abd0 f   IconManager.obj
 0001:00119cb0       ??0idIK@@QAE@XZ            2011acb0 f   IK.obj
 0001:00119cf0       ??1idIK@@UAE@XZ            2011acf0 f   IK.obj
 0001:00119d00       ?Save@idIK@@QBEXPAVidSaveGame@@@Z 2011ad00 f   IK.obj
 0001:00119d80       ?Restore@idIK@@QAEXPAVidRestoreGame@@@Z 2011ad80 f   IK.obj
 0001:00119ed0       ?IsInitialized@idIK@@QBE_NXZ 2011aed0 f   IK.obj
 0001:00119ef0       ?Init@idIK@@UAE_NPAVidEntity@@PBDABVidVec3@@@Z 2011aef0 f   IK.obj
 0001:0011a000       ?Evaluate@idIK@@UAEXXZ     2011b000 f   IK.obj
 0001:0011a010       ?ClearJointMods@idIK@@UAEXXZ 2011b010 f   IK.obj
 0001:0011a020       ?SolveTwoBones@idIK@@QAE_NABVidVec3@@00MMAAV2@@Z 2011b020 f   IK.obj
 0001:0011a360       ?GetBoneAxis@idIK@@QAEMABVidVec3@@00AAVidMat3@@@Z 2011b360 f   IK.obj
 0001:0011a5a0       ??0idIK_Walk@@QAE@XZ       2011b5a0 f   IK.obj
 0001:0011a800       ??1idIK_Walk@@UAE@XZ       2011b800 f   IK.obj
 0001:0011a830       ?Save@idIK_Walk@@QBEXPAVidSaveGame@@@Z 2011b830 f   IK.obj
 0001:0011aa60       ?Restore@idIK_Walk@@QAEXPAVidRestoreGame@@@Z 2011ba60 f   IK.obj
 0001:0011ac50       ?Init@idIK_Walk@@UAE_NPAVidEntity@@PBDABVidVec3@@@Z 2011bc50 f   IK.obj
 0001:0011b9e0       ?Evaluate@idIK_Walk@@UAEXXZ 2011c9e0 f   IK.obj
 0001:0011d6f0       ?ClearJointMods@idIK_Walk@@UAEXXZ 2011e6f0 f   IK.obj
 0001:0011d790       ?EnableAll@idIK_Walk@@QAEXXZ 2011e790 f   IK.obj
 0001:0011d7b0       ?DisableAll@idIK_Walk@@QAEXXZ 2011e7b0 f   IK.obj
 0001:0011d7c0       ?EnableLeg@idIK_Walk@@QAEXH@Z 2011e7c0 f   IK.obj
 0001:0011d7e0       ?DisableLeg@idIK_Walk@@QAEXH@Z 2011e7e0 f   IK.obj
 0001:0011d800       ??0idIK_Reach@@QAE@XZ      2011e800 f   IK.obj
 0001:0011d9a0       ??1idIK_Reach@@UAE@XZ      2011e9a0 f   IK.obj
 0001:0011d9b0       ?Save@idIK_Reach@@QBEXPAVidSaveGame@@@Z 2011e9b0 f   IK.obj
 0001:0011da70       ?Restore@idIK_Reach@@QAEXPAVidRestoreGame@@@Z 2011ea70 f   IK.obj
 0001:0011db30       ?Init@idIK_Reach@@UAE_NPAVidEntity@@PBDABVidVec3@@@Z 2011eb30 f   IK.obj
 0001:0011e470       ?Evaluate@idIK_Reach@@UAEXXZ 2011f470 f   IK.obj
 0001:0011f190       ?ClearJointMods@idIK_Reach@@UAEXXZ 20120190 f   IK.obj
 0001:0011f200       ??_EidIK@@UAEPAXI@Z        20120200 f i IK.obj
 0001:0011f200       ??_GidIK@@UAEPAXI@Z        20120200 f i IK.obj
 0001:0011f230       ??_EidIK_Reach@@UAEPAXI@Z  20120230 f i IK.obj
 0001:0011f230       ??_GidIK_Reach@@UAEPAXI@Z  20120230 f i IK.obj
 0001:0011f260       ??_EidIK_Walk@@UAEPAXI@Z   20120260 f i IK.obj
 0001:0011f260       ??_GidIK_Walk@@UAEPAXI@Z   20120260 f i IK.obj
 0001:0011f290       ??0rvInstance@@QAE@H_N@Z   20120290 f   Instance.obj
 0001:0011f2e0       ??1rvInstance@@QAE@XZ      201202e0 f   Instance.obj
 0001:0011f360       ?Populate@rvInstance@@QAEXH@Z 20120360 f   Instance.obj
 0001:0011f6a0       ?PopulateFromMessage@rvInstance@@QAEXABVidBitMsg@@@Z 201206a0 f   Instance.obj
 0001:0011f7f0       ?Restart@rvInstance@@QAEXXZ 201207f0 f   Instance.obj
 0001:0011f820       ?JoinInstance@rvInstance@@QAEXPAVidPlayer@@@Z 20120820 f   Instance.obj
 0001:0011f870       ?SetSpawnInstanceID@rvInstance@@QAEXH@Z 20120870 f   Instance.obj
 0001:0011f880       ?PrintMapNumbers@rvInstance@@QAEXXZ 20120880 f   Instance.obj
 0001:0011f8e0       ?BuildInstanceMessage@rvInstance@@AAEXXZ 201208e0 f   Instance.obj
 0001:0011f970       ?RegisterClassA@idItem@@SAXXZ 20120970 f   Item.obj
 0001:0011fa30       ?CreateInstance@idItem@@SAPAVidClass@@XZ 20120a30 f   Item.obj
 0001:0011fad0       ?GetClassType@idItem@@SAAAVidTypeInfo@@XZ 20120ad0 f   Item.obj
 0001:0011fae0       ?GetType@idItem@@UBEPAVidTypeInfo@@XZ 20120ae0 f   Item.obj
 0001:0011faf0       ??0idItem@@QAE@XZ          20120af0 f   Item.obj
 0001:0011fc10       ??1idItem@@UAE@XZ          20120c10 f   Item.obj
 0001:0011fca0       ?Save@idItem@@QBEXPAVidSaveGame@@@Z 20120ca0 f   Item.obj
 0001:0011fd70       ?Restore@idItem@@QAEXPAVidRestoreGame@@@Z 20120d70 f   Item.obj
 0001:0011fe60       ?Spawn@idItem@@QAEXXZ      20120e60 f   Item.obj
 0001:00120880       ?GetAttributes@idItem@@QAEXAAVidDict@@@Z 20121880 f   Item.obj
 0001:001209c0       ?GiveToPlayer@idItem@@UAE_NPAVidPlayer@@@Z 201219c0 f   Item.obj
 0001:00120ab0       ?Pickup@idItem@@UAE_NPAVidPlayer@@@Z 20121ab0 f   Item.obj
 0001:00121130       ?Think@idItem@@UAEXXZ      20122130 f   Item.obj
 0001:00121190       ?Present@idItem@@UAEXXZ    20122190 f   Item.obj
 0001:001213a0       ?InstanceJoin@idItem@@UAEXXZ 201223a0 f   Item.obj
 0001:00121410       ?InstanceLeave@idItem@@UAEXXZ 20122410 f   Item.obj
 0001:00121430       ?GetPhysicsToVisualTransform@idItem@@UAE_NAAVidVec3@@AAVidMat3@@@Z 20122430 f   Item.obj
 0001:00121850       ?Collide@idItem@@UAE_NABUtrace_t@@ABVidVec3@@@Z 20122850 f   Item.obj
 0001:001218c0       ?ClientPredictionThink@idItem@@UAEXXZ 201228c0 f   Item.obj
 0001:001218d0       ?ClientReceiveEvent@idItem@@UAE_NHHABVidBitMsg@@@Z 201228d0 f   Item.obj
 0001:00121930       ?WriteToSnapshot@idItem@@UBEXAAVidBitMsgDelta@@@Z 20122930 f   Item.obj
 0001:00121970       ?ReadFromSnapshot@idItem@@UAEXABVidBitMsgDelta@@@Z 20122970 f   Item.obj
 0001:00121b90       ?Hide@idItem@@UAEXXZ       20122b90 f   Item.obj
 0001:00121bc0       ?Show@idItem@@UAEXXZ       20122bc0 f   Item.obj
 0001:00121bf0       ?ClientStale@idItem@@UAE_NXZ 20122bf0 f   Item.obj
 0001:00121c10       ?ClientUnstale@idItem@@UAEXXZ 20122c10 f   Item.obj
 0001:00121c80       ?Event_DropToFloor@idItem@@QAEXXZ 20122c80 f   Item.obj
 0001:00121cb0       ?UpdateTrigger@idItem@@IAEXXZ 20122cb0 f   Item.obj
 0001:00121ce0       ?SendPickupMsg@idItem@@IAEXH@Z 20122ce0 f   Item.obj
 0001:00121d70       ?UpdateRenderEntity@idItem@@ABE_NPAUrenderEntity_s@@PBUrenderView_s@@@Z 20122d70 f   Item.obj
 0001:00121fd0       ?ModelCallback@idItem@@CA_NPAUrenderEntity_s@@PBUrenderView_s@@@Z 20122fd0 f   Item.obj
 0001:00122020       ?Event_Touch@idItem@@AAEXPAVidEntity@@PAUtrace_t@@@Z 20123020 f   Item.obj
 0001:00122060       ?Event_Trigger@idItem@@AAEXPAVidEntity@@@Z 20123060 f   Item.obj
 0001:001220e0       ?Event_Respawn@idItem@@AAEXXZ 201230e0 f   Item.obj
 0001:00122210       ?Event_RespawnFx@idItem@@AAEXXZ 20123210 f   Item.obj
 0001:00122330       ?Event_Pickup@idItem@@AAEXH@Z 20123330 f   Item.obj
 0001:001223a0       ?Event_SetGravity@idItem@@AAEXXZ 201233a0 f   Item.obj
 0001:00122420       ?RegisterClassA@idItemPowerup@@SAXXZ 20123420 f   Item.obj
 0001:001224e0       ?CreateInstance@idItemPowerup@@SAPAVidClass@@XZ 201234e0 f   Item.obj
 0001:00122580       ?GetClassType@idItemPowerup@@SAAAVidTypeInfo@@XZ 20123580 f   Item.obj
 0001:00122590       ?GetType@idItemPowerup@@UBEPAVidTypeInfo@@XZ 20123590 f   Item.obj
 0001:001225a0       ??0idItemPowerup@@QAE@XZ   201235a0 f   Item.obj
 0001:001225f0       ?Save@idItemPowerup@@QBEXPAVidSaveGame@@@Z 201235f0 f   Item.obj
 0001:00122630       ?Restore@idItemPowerup@@QAEXPAVidRestoreGame@@@Z 20123630 f   Item.obj
 0001:00122670       ?Spawn@idItemPowerup@@QAEXXZ 20123670 f   Item.obj
 0001:00122850       ?GiveToPlayer@idItemPowerup@@UAE_NPAVidPlayer@@@Z 20123850 f   Item.obj
 0001:00122910       ?Think@idItemPowerup@@UAEXXZ 20123910 f   Item.obj
 0001:001229c0       ?Pickup@idItemPowerup@@UAE_NPAVidPlayer@@@Z 201239c0 f   Item.obj
 0001:00122a00       ?RegisterClassA@riDeadZonePowerup@@SAXXZ 20123a00 f   Item.obj
 0001:00122ac0       ?CreateInstance@riDeadZonePowerup@@SAPAVidClass@@XZ 20123ac0 f   Item.obj
 0001:00122b60       ?GetClassType@riDeadZonePowerup@@SAAAVidTypeInfo@@XZ 20123b60 f   Item.obj
 0001:00122b70       ?GetType@riDeadZonePowerup@@UBEPAVidTypeInfo@@XZ 20123b70 f   Item.obj
 0001:00122b80       ??0riDeadZonePowerup@@QAE@XZ 20123b80 f   Item.obj
 0001:00122ba0       ?Save@riDeadZonePowerup@@QBEXPAVidSaveGame@@@Z 20123ba0 f   Item.obj
 0001:00122bb0       ?Restore@riDeadZonePowerup@@QAEXPAVidRestoreGame@@@Z 20123bb0 f   Item.obj
 0001:00122bc0       ?Pickup@riDeadZonePowerup@@UAE_NPAVidPlayer@@@Z 20123bc0 f   Item.obj
 0001:00122c40       ?Spawn@riDeadZonePowerup@@QAEXXZ 20123c40 f   Item.obj
 0001:00122db0       ?Show@riDeadZonePowerup@@UAEXXZ 20123db0 f   Item.obj
 0001:00122dc0       ?Collide@riDeadZonePowerup@@UAE_NABUtrace_t@@ABVidVec3@@@Z 20123dc0 f   Item.obj
 0001:00122e30       ?ResetSpawn@riDeadZonePowerup@@IAEXH@Z 20123e30 f   Item.obj
 0001:00122f90       ?Event_ResetSpawn@riDeadZonePowerup@@AAEXXZ 20123f90 f   Item.obj
 0001:00122fa0       ?RegisterClassA@rvItemCTFFlag@@SAXXZ 20123fa0 f   Item.obj
 0001:00123060       ?CreateInstance@rvItemCTFFlag@@SAPAVidClass@@XZ 20124060 f   Item.obj
 0001:00123100       ?GetClassType@rvItemCTFFlag@@SAAAVidTypeInfo@@XZ 20124100 f   Item.obj
 0001:00123110       ?GetType@rvItemCTFFlag@@UBEPAVidTypeInfo@@XZ 20124110 f   Item.obj
 0001:00123120       ??0rvItemCTFFlag@@QAE@XZ   20124120 f   Item.obj
 0001:00123140       ?Spawn@rvItemCTFFlag@@QAEXXZ 20124140 f   Item.obj
 0001:001232c0       ?GiveToPlayer@rvItemCTFFlag@@UAE_NPAVidPlayer@@@Z 201242c0 f   Item.obj
 0001:00123470       ?Pickup@rvItemCTFFlag@@UAE_NPAVidPlayer@@@Z 20124470 f   Item.obj
 0001:00123600       ?ResetFlag@rvItemCTFFlag@@SAXH@Z 20124600 f   Item.obj
 0001:00123710       ?Think@rvItemCTFFlag@@UAEXXZ 20124710 f   Item.obj
 0001:00123720       ?Collide@rvItemCTFFlag@@UAE_NABUtrace_t@@ABVidVec3@@@Z 20124720 f   Item.obj
 0001:00123790       ?Event_ResetFlag@rvItemCTFFlag@@AAEXXZ 20124790 f   Item.obj
 0001:001237a0       ?Event_LinkTrigger@rvItemCTFFlag@@AAEXXZ 201247a0 f   Item.obj
 0001:001237c0       ?RegisterClassA@idObjective@@SAXXZ 201247c0 f   Item.obj
 0001:00123880       ?CreateInstance@idObjective@@SAPAVidClass@@XZ 20124880 f   Item.obj
 0001:00123920       ?GetClassType@idObjective@@SAAAVidTypeInfo@@XZ 20124920 f   Item.obj
 0001:00123930       ?GetType@idObjective@@UBEPAVidTypeInfo@@XZ 20124930 f   Item.obj
 0001:00123940       ??0idObjective@@QAE@XZ     20124940 f   Item.obj
 0001:00123990       ?Save@idObjective@@QBEXPAVidSaveGame@@@Z 20124990 f   Item.obj
 0001:001239b0       ?Restore@idObjective@@QAEXPAVidRestoreGame@@@Z 201249b0 f   Item.obj
 0001:001239e0       ?Spawn@idObjective@@QAEXXZ 201249e0 f   Item.obj
 0001:00123a50       ?Event_Trigger@idObjective@@AAEXPAVidEntity@@@Z 20124a50 f   Item.obj
 0001:00123d50       ?Event_HideObjective@idObjective@@AAEXPAVidEntity@@@Z 20124d50 f   Item.obj
 0001:00123e30       ?Event_GetPlayerPos@idObjective@@AAEXXZ 20124e30 f   Item.obj
 0001:00123e90       ?Event_CamShot@idObjective@@AAEXXZ 20124e90 f   Item.obj
 0001:00124050       ?RegisterClassA@idMoveableItem@@SAXXZ 20125050 f   Item.obj
 0001:00124110       ?CreateInstance@idMoveableItem@@SAPAVidClass@@XZ 20125110 f   Item.obj
 0001:001241b0       ?GetClassType@idMoveableItem@@SAAAVidTypeInfo@@XZ 201251b0 f   Item.obj
 0001:001241c0       ?GetType@idMoveableItem@@UBEPAVidTypeInfo@@XZ 201251c0 f   Item.obj
 0001:001241d0       ??0idMoveableItem@@QAE@XZ  201251d0 f   Item.obj
 0001:00124220       ??1idMoveableItem@@UAE@XZ  20125220 f   Item.obj
 0001:00124270       ?Save@idMoveableItem@@QBEXPAVidSaveGame@@@Z 20125270 f   Item.obj
 0001:00124290       ?Restore@idMoveableItem@@QAEXPAVidRestoreGame@@@Z 20125290 f   Item.obj
 0001:001242c0       ?Spawn@idMoveableItem@@QAEXXZ 201252c0 f   Item.obj
 0001:001246f0       ?Think@idMoveableItem@@UAEXXZ 201256f0 f   Item.obj
 0001:00124710       ?DropItems@idMoveableItem@@SAXPAVidAnimatedEntity@@PBDPAV?$idList@PAVidEntity@@@@@Z 20125710 f   Item.obj
 0001:00125070       ?DropItem@idMoveableItem@@SAPAVidEntity@@PBDABVidVec3@@ABVidMat3@@1HH@Z 20126070 f   Item.obj
 0001:00125370       ?WriteToSnapshot@idMoveableItem@@UBEXAAVidBitMsgDelta@@@Z 20126370 f   Item.obj
 0001:00125390       ?ReadFromSnapshot@idMoveableItem@@UAEXABVidBitMsgDelta@@@Z 20126390 f   Item.obj
 0001:001253c0       ?Gib@idMoveableItem@@AAEXABVidVec3@@PBD@Z 201263c0 f   Item.obj
 0001:001253d0       ?Event_Gib@idMoveableItem@@AAEXPBD@Z 201263d0 f   Item.obj
 0001:001253f0       ?RegisterClassA@idItemRemover@@SAXXZ 201263f0 f   Item.obj
 0001:001254b0       ?CreateInstance@idItemRemover@@SAPAVidClass@@XZ 201264b0 f   Item.obj
 0001:00125560       ?GetClassType@idItemRemover@@SAAAVidTypeInfo@@XZ 20126560 f   Item.obj
 0001:00125570       ?GetType@idItemRemover@@UBEPAVidTypeInfo@@XZ 20126570 f   Item.obj
 0001:00125580       ?Spawn@idItemRemover@@QAEXXZ 20126580 f   Item.obj
 0001:00125590       ?RemoveItem@idItemRemover@@QAEXPAVidPlayer@@@Z 20126590 f   Item.obj
 0001:001255d0       ?Event_Trigger@idItemRemover@@AAEXPAVidEntity@@@Z 201265d0 f   Item.obj
 0001:00125610       ?RegisterClassA@idObjectiveComplete@@SAXXZ 20126610 f   Item.obj
 0001:001256d0       ?CreateInstance@idObjectiveComplete@@SAPAVidClass@@XZ 201266d0 f   Item.obj
 0001:00125770       ?GetClassType@idObjectiveComplete@@SAAAVidTypeInfo@@XZ 20126770 f   Item.obj
 0001:00125780       ?GetType@idObjectiveComplete@@UBEPAVidTypeInfo@@XZ 20126780 f   Item.obj
 0001:00125790       ??0idObjectiveComplete@@QAE@XZ 20126790 f   Item.obj
 0001:001257e0       ?Save@idObjectiveComplete@@QBEXPAVidSaveGame@@@Z 201267e0 f   Item.obj
 0001:00125800       ?Restore@idObjectiveComplete@@QAEXPAVidRestoreGame@@@Z 20126800 f   Item.obj
 0001:00125820       ?Spawn@idObjectiveComplete@@QAEXXZ 20126820 f   Item.obj
 0001:00125850       ?Event_Trigger@idObjectiveComplete@@AAEXPAVidEntity@@@Z 20126850 f   Item.obj
 0001:001259c0       ?Event_HideObjective@idObjectiveComplete@@AAEXPAVidEntity@@@Z 201269c0 f   Item.obj
 0001:00125ad0       ?Event_GetPlayerPos@idObjectiveComplete@@AAEXXZ 20126ad0 f   Item.obj
 0001:00125b30       ?RegisterClassA@rvObjectiveFailed@@SAXXZ 20126b30 f   Item.obj
 0001:00125bf0       ?CreateInstance@rvObjectiveFailed@@SAPAVidClass@@XZ 20126bf0 f   Item.obj
 0001:00125c90       ?GetClassType@rvObjectiveFailed@@SAAAVidTypeInfo@@XZ 20126c90 f   Item.obj
 0001:00125ca0       ?GetType@rvObjectiveFailed@@UBEPAVidTypeInfo@@XZ 20126ca0 f   Item.obj
 0001:00125cb0       ??0rvObjectiveFailed@@QAE@XZ 20126cb0 f   Item.obj
 0001:00125cd0       ?Event_Trigger@rvObjectiveFailed@@AAEXPAVidEntity@@@Z 20126cd0 f   Item.obj
 0001:00125e00       ?Register_idItem@@YAXXZ    20126e00 f   Item.obj
 0001:00125e10       ?Register_idItemPowerup@@YAXXZ 20126e10 f   Item.obj
 0001:00125e20       ?Register_idObjective@@YAXXZ 20126e20 f   Item.obj
 0001:00125e30       ?Register_idMoveableItem@@YAXXZ 20126e30 f   Item.obj
 0001:00125e40       ?Register_idItemRemover@@YAXXZ 20126e40 f   Item.obj
 0001:00125e50       ?Register_idObjectiveComplete@@YAXXZ 20126e50 f   Item.obj
 0001:00125e60       ?Register_rvObjectiveFailed@@YAXXZ 20126e60 f   Item.obj
 0001:00125e70       ?Register_rvItemCTFFlag@@YAXXZ 20126e70 f   Item.obj
 0001:00125e80       ?Register_riDeadZonePowerup@@YAXXZ 20126e80 f   Item.obj
 0001:00125e90       ??_EidItem@@UAEPAXI@Z      20126e90 f i Item.obj
 0001:00125e90       ??_GidItem@@UAEPAXI@Z      20126e90 f i Item.obj
 0001:00125ed0       ??_EidItemPowerup@@UAEPAXI@Z 20126ed0 f i Item.obj
 0001:00125ed0       ??_GidItemPowerup@@UAEPAXI@Z 20126ed0 f i Item.obj
 0001:00125f10       ??_EidMoveableItem@@UAEPAXI@Z 20126f10 f i Item.obj
 0001:00125f10       ??_GidMoveableItem@@UAEPAXI@Z 20126f10 f i Item.obj
 0001:00125f50       ??_EidObjective@@UAEPAXI@Z 20126f50 f i Item.obj
 0001:00125f50       ??_GidObjective@@UAEPAXI@Z 20126f50 f i Item.obj
 0001:00125f90       ??_EidObjectiveComplete@@UAEPAXI@Z 20126f90 f i Item.obj
 0001:00125f90       ??_ErvConveyor@@UAEPAXI@Z  20126f90 f i Mover.obj
 0001:00125f90       ??_ErvGravityArea_Static@@UAEPAXI@Z 20126f90 f i Misc.obj
 0001:00125f90       ??_GidObjectiveComplete@@UAEPAXI@Z 20126f90 f i Item.obj
 0001:00125f90       ??_GrvConveyor@@UAEPAXI@Z  20126f90 f i Mover.obj
 0001:00125f90       ??_GrvGravityArea_Static@@UAEPAXI@Z 20126f90 f i Misc.obj
 0001:00125fd0       ??_EriDeadZonePowerup@@UAEPAXI@Z 20126fd0 f i Item.obj
 0001:00125fd0       ??_GriDeadZonePowerup@@UAEPAXI@Z 20126fd0 f i Item.obj
 0001:00126010       ??_ErvItemCTFFlag@@UAEPAXI@Z 20127010 f i Item.obj
 0001:00126010       ??_GrvItemCTFFlag@@UAEPAXI@Z 20127010 f i Item.obj
 0001:00126050       ?ParseSpawnArgsToRenderLight@idGameEdit@@UAE_NPBVidDict@@PAUrenderLight_s@@@Z 20127050 f   Light.obj
 0001:00126a00       ?RegisterClassA@idLight@@SAXXZ 20127a00 f   Light.obj
 0001:00126ac0       ?CreateInstance@idLight@@SAPAVidClass@@XZ 20127ac0 f   Light.obj
 0001:00126b60       ?GetClassType@idLight@@SAAAVidTypeInfo@@XZ 20127b60 f   Light.obj
 0001:00126b70       ?GetType@idLight@@UBEPAVidTypeInfo@@XZ 20127b70 f   Light.obj
 0001:00126b80       ??0idLight@@QAE@XZ         20127b80 f   Light.obj
 0001:00126db0       ??1idLight@@UAE@XZ         20127db0 f   Light.obj
 0001:00126e20       ?Spawn@idLight@@QAEXXZ     20127e20 f   Light.obj
 0001:00127930       ?Save@idLight@@QBEXPAVidSaveGame@@@Z 20128930 f   Light.obj
 0001:00127a40       ?Restore@idLight@@QAEXPAVidRestoreGame@@@Z 20128a40 f   Light.obj
 0001:00127c20       ?UpdateChangeableSpawnArgs@idLight@@UAEXPBVidDict@@@Z 20128c20 f   Light.obj
 0001:00127cc0       ?Think@idLight@@UAEXXZ     20128cc0 f   Light.obj
 0001:00127e70       ?FreeLightDef@idLight@@UAEXXZ 20128e70 f   Light.obj
 0001:00127ea0       ?GetPhysicsToSoundTransform@idLight@@UAE_NAAVidVec3@@AAVidMat3@@@Z 20128ea0 f   Light.obj
 0001:00128110       ?Present@idLight@@UAEXXZ   20129110 f   Light.obj
 0001:001284b0       ?SaveState@idLight@@QAEXPAVidDict@@@Z 201294b0 f   Light.obj
 0001:00128530       ?SetColor@idLight@@UAEXMMM@Z 20129530 f   Light.obj
 0001:00128570       ?SetColor@idLight@@UAEXABVidVec4@@@Z 20129570 f   Light.obj
 0001:001285b0       ?GetColor@idLight@@UBEXAAVidVec3@@@Z 201295b0 f   Light.obj
 0001:001285e0       ?GetColor@idLight@@UBEXAAVidVec4@@@Z 201295e0 f   Light.obj
 0001:00128610       ?SetShader@idLight@@QAEXPBD@Z 20129610 f   Light.obj
 0001:00128640       ?SetLightParm@idLight@@QAEXHM@Z 20129640 f   Light.obj
 0001:00128690       ?SetLightParms@idLight@@QAEXMMMM@Z 20129690 f   Light.obj
 0001:00128720       ?SetRadiusXYZ@idLight@@QAEXMMM@Z 20129720 f   Light.obj
 0001:00128760       ?SetRadius@idLight@@QAEXM@Z 20129760 f   Light.obj
 0001:00128790       ?On@idLight@@QAEXXZ        20129790 f   Light.obj
 0001:001289b0       ?Off@idLight@@QAEXXZ       201299b0 f   Light.obj
 0001:00128ba0       ?Fade@idLight@@QAEXABVidVec4@@M@Z 20129ba0 f   Light.obj
 0001:00128c00       ?FadeOut@idLight@@QAEXM@Z  20129c00 f   Light.obj
 0001:00128c20       ?FadeIn@idLight@@QAEXM@Z   20129c20 f   Light.obj
 0001:00128c90       ?Killed@idLight@@UAEXPAVidEntity@@0HABVidVec3@@H@Z 20129c90 f   Light.obj
 0001:00128ca0       ?BecomeBroken@idLight@@QAEXPAVidEntity@@@Z 20129ca0 f   Light.obj
 0001:00129070       ?SetLightLevel@idLight@@QAEXXZ 2012a070 f   Light.obj
 0001:001290f0       ?ShowEditingDialog@idLight@@UAEXXZ 2012a0f0 f   Light.obj
 0001:00129120       ?ClientPredictionThink@idLight@@UAEXXZ 2012a120 f   Light.obj
 0001:00129130       ?WriteToSnapshot@idLight@@UBEXAAVidBitMsgDelta@@@Z 2012a130 f   Light.obj
 0001:00129270       ?ReadFromSnapshot@idLight@@UAEXABVidBitMsgDelta@@@Z 2012a270 f   Light.obj
 0001:00129430       ?ClientReceiveEvent@idLight@@UAE_NHHABVidBitMsg@@@Z 2012a430 f   Light.obj
 0001:00129460       ?PresentLightDefChange@idLight@@AAEXXZ 2012a460 f   Light.obj
 0001:001294a0       ?PresentModelDefChange@idLight@@AAEXXZ 2012a4a0 f   Light.obj
 0001:001294f0       ?Event_SetCurrentLightLevel@idLight@@AAEXH@Z 2012a4f0 f   Light.obj
 0001:00129510       ?Event_SetMaxLightLevel@idLight@@AAEXH@Z 2012a510 f   Light.obj
 0001:00129530       ?Event_IsOn@idLight@@AAEXXZ 2012a530 f   Light.obj
 0001:00129560       ?Event_Break@idLight@@AAEXPAVidEntity@@M@Z 2012a560 f   Light.obj
 0001:00129590       ?Event_DoneBlinking@idLight@@AAEXXZ 2012a590 f   Light.obj
 0001:00129780       ?Event_DoneBlinkingOff@idLight@@AAEXXZ 2012a780 f   Light.obj
 0001:001297d0       ?Event_EarthQuake@idLight@@AAEXM@Z 2012a7d0 f   Light.obj
 0001:00129910       ?Event_Timer@idLight@@AAEXXZ 2012a910 f   Light.obj
 0001:00129990       ?Event_SetShader@idLight@@AAEXPBD@Z 2012a990 f   Light.obj
 0001:001299a0       ?Event_GetLightParm@idLight@@AAEXH@Z 2012a9a0 f   Light.obj
 0001:001299f0       ?Event_SetLightParm@idLight@@AAEXHM@Z 2012a9f0 f   Light.obj
 0001:00129a10       ?Event_SetLightParms@idLight@@AAEXMMMM@Z 2012aa10 f   Light.obj
 0001:00129a50       ?Event_SetRadiusXYZ@idLight@@AAEXMMM@Z 2012aa50 f   Light.obj
 0001:00129a80       ?Event_SetRadius@idLight@@AAEXM@Z 2012aa80 f   Light.obj
 0001:00129aa0       ?Event_Hide@idLight@@AAEXXZ 2012aaa0 f   Light.obj
 0001:00129ac0       ?Event_Show@idLight@@AAEXXZ 2012aac0 f   Light.obj
 0001:00129ae0       ?Event_On@idLight@@AAEXXZ  2012aae0 f   Light.obj
 0001:00129af0       ?Event_Off@idLight@@AAEXXZ 2012aaf0 f   Light.obj
 0001:00129b00       ?Event_ToggleOnOff@idLight@@AAEXPAVidEntity@@@Z 2012ab00 f   Light.obj
 0001:00129bb0       ?Event_SetSoundHandles@idLight@@AAEXXZ 2012abb0 f   Light.obj
 0001:00129cc0       ?Event_FadeOut@idLight@@AAEXM@Z 2012acc0 f   Light.obj
 0001:00129ce0       ?Event_FadeIn@idLight@@AAEXM@Z 2012ace0 f   Light.obj
 0001:00129d00       ?Event_SetLightGUI@idLight@@AAEXPBD@Z 2012ad00 f   Light.obj
 0001:00129d80       ?Register_idLight@@YAXXZ   2012ad80 f   Light.obj
 0001:00129d90       ??_EidLight@@UAEPAXI@Z     2012ad90 f i Light.obj
 0001:00129d90       ??_GidLight@@UAEPAXI@Z     2012ad90 f i Light.obj
 0001:00129dd0       ?StartLipSyncing@idAFAttachment@@QAEHPBD@Z 2012add0 f   LipSync.obj
 0001:00129ff0       ?HandleLipSync@idAFAttachment@@QAEXXZ 2012aff0 f   LipSync.obj
 0001:0012a260       ?EndLipSyncing@idAFAttachment@@QAEXXZ 2012b260 f   LipSync.obj
 0001:0012a320       ?Init@rvViseme@@QAEXAAVidStr@@HH@Z 2012b320 f   LipSync.obj
 0001:0012a370       ??0rvLipSyncData@@QAE@PBVrvDeclLipSync@@H@Z 2012b370 f   LipSync.obj
 0001:0012a490       ?SetFrame@rvLipSyncData@@QAEXH@Z 2012b490 f   LipSync.obj
 0001:0012a4b0       ?GetFrontLerp@rvLipSyncData@@QAEMXZ 2012b4b0 f   LipSync.obj
 0001:0012a510       ?FAS_Init@@YA_NPBD@Z       2012b510 f   LipSync.obj
 0001:0012a540       ?FAS_Shutdown@@YAXXZ       2012b540 f   LipSync.obj
 0001:0012a800       ?FAS_ExtractViseme@@YAXPAVrvLipSyncData@@H@Z 2012b800 f   LipSync.obj
 0001:0012ad50       ?FAS_StartVisemeExtraction@@YAPAVrvLipSyncData@@PBVrvDeclLipSync@@H@Z 2012bd50 f   LipSync.obj
 0001:0012add0       ?FAS_EndVisemeExtraction@@YAXPAVrvLipSyncData@@@Z 2012bdd0 f   LipSync.obj
 0001:0012ae40       ?FAS_LoadPhonemes@@YA_NPBD@Z 2012be40 f   LipSync.obj
 0001:0012b700       ?FAS_Reload_f@@YAXABVidCmdArgs@@@Z 2012c700 f   LipSync.obj
 0001:0012b730       ??0hashnode_s@?$idHashTable@VrvViseme@@@@QAE@PBDVrvViseme@@PAU01@@Z 2012c730 f i LipSync.obj
 0001:0012b810       ??0rvViseme@@QAE@ABV0@@Z   2012c810 f i LipSync.obj
 0001:0012b880       ??1rvViseme@@QAE@XZ        2012c880 f i LipSync.obj
 0001:0012b8e0       ?RegisterClassA@idSpawnableEntity@@SAXXZ 2012c8e0 f   Misc.obj
 0001:0012b9a0       ?CreateInstance@idSpawnableEntity@@SAPAVidClass@@XZ 2012c9a0 f   Misc.obj
 0001:0012ba50       ?GetClassType@idSpawnableEntity@@SAAAVidTypeInfo@@XZ 2012ca50 f   Misc.obj
 0001:0012ba60       ?GetType@idSpawnableEntity@@UBEPAVidTypeInfo@@XZ 2012ca60 f   Misc.obj
 0001:0012ba70       ?Spawn@idSpawnableEntity@@QAEXXZ 2012ca70 f   Misc.obj
 0001:0012ba80       ?RegisterClassA@idPlayerStart@@SAXXZ 2012ca80 f   Misc.obj
 0001:0012bb40       ?CreateInstance@idPlayerStart@@SAPAVidClass@@XZ 2012cb40 f   Misc.obj
 0001:0012bbe0       ?GetClassType@idPlayerStart@@SAAAVidTypeInfo@@XZ 2012cbe0 f   Misc.obj
 0001:0012bbf0       ?GetType@idPlayerStart@@UBEPAVidTypeInfo@@XZ 2012cbf0 f   Misc.obj
 0001:0012bc00       ??0idPlayerStart@@QAE@XZ   2012cc00 f   Misc.obj
 0001:0012bc30       ?Spawn@idPlayerStart@@QAEXXZ 2012cc30 f   Misc.obj
 0001:0012bc40       ?Save@idPlayerStart@@QBEXPAVidSaveGame@@@Z 2012cc40 f   Misc.obj
 0001:0012bc60       ?Restore@idPlayerStart@@QAEXPAVidRestoreGame@@@Z 2012cc60 f   Misc.obj
 0001:0012bc80       ?ClientReceiveEvent@idPlayerStart@@UAE_NHHABVidBitMsg@@@Z 2012cc80 f   Misc.obj
 0001:0012bd70       ?Event_TeleportEntity@idPlayerStart@@AAEXPAVidEntity@@_NAAVidVec3@@@Z 2012cd70 f   Misc.obj
 0001:0012c150       ?Event_Teleport@idPlayerStart@@AAEXPAVidEntity@@@Z 2012d150 f   Misc.obj
 0001:0012c170       ?Teleport@idPlayerStart@@AAEXPAVidEntity@@@Z 2012d170 f   Misc.obj
 0001:0012c260       ?Event_TeleportStage@idPlayerStart@@AAEXPAVidPlayer@@@Z 2012d260 f   Misc.obj
 0001:0012c3f0       ?TeleportPlayer@idPlayerStart@@AAEXPAVidPlayer@@@Z 2012d3f0 f   Misc.obj
 0001:0012c610       ?RegisterClassA@idActivator@@SAXXZ 2012d610 f   Misc.obj
 0001:0012c6d0       ?CreateInstance@idActivator@@SAPAVidClass@@XZ 2012d6d0 f   Misc.obj
 0001:0012c780       ?GetClassType@idActivator@@SAAAVidTypeInfo@@XZ 2012d780 f   Misc.obj
 0001:0012c790       ?GetType@idActivator@@UBEPAVidTypeInfo@@XZ 2012d790 f   Misc.obj
 0001:0012c7a0       ?Spawn@idActivator@@QAEXXZ 2012d7a0 f   Misc.obj
 0001:0012c920       ?Save@idActivator@@QBEXPAVidSaveGame@@@Z 2012d920 f   Misc.obj
 0001:0012c940       ?Restore@idActivator@@QAEXPAVidRestoreGame@@@Z 2012d940 f   Misc.obj
 0001:0012c970       ?Think@idActivator@@UAEXXZ 2012d970 f   Misc.obj
 0001:0012c9b0       ?Event_Activate@idActivator@@AAEXPAVidEntity@@@Z 2012d9b0 f   Misc.obj
 0001:0012c9d0       ?RegisterClassA@idPathCorner@@SAXXZ 2012d9d0 f   Misc.obj
 0001:0012ca90       ?CreateInstance@idPathCorner@@SAPAVidClass@@XZ 2012da90 f   Misc.obj
 0001:0012cb40       ?GetClassType@idPathCorner@@SAAAVidTypeInfo@@XZ 2012db40 f   Misc.obj
 0001:0012cb50       ?GetType@idPathCorner@@UBEPAVidTypeInfo@@XZ 2012db50 f   Misc.obj
 0001:0012cb60       ?Spawn@idPathCorner@@QAEXXZ 2012db60 f   Misc.obj
 0001:0012cb70       ?DrawDebugInfo@idPathCorner@@SAXXZ 2012db70 f   Misc.obj
 0001:0012cc20       ?RandomPath@idPathCorner@@SAPAV1@PBVidEntity@@0@Z 2012dc20 f   Misc.obj
 0001:0012cce0       ?Event_RandomPath@idPathCorner@@AAEXXZ 2012dce0 f   Misc.obj
 0001:0012cd00       ?RegisterClassA@rvDebugJumpPoint@@SAXXZ 2012dd00 f   Misc.obj
 0001:0012cdc0       ?CreateInstance@rvDebugJumpPoint@@SAPAVidClass@@XZ 2012ddc0 f   Misc.obj
 0001:0012ce70       ?GetClassType@rvDebugJumpPoint@@SAAAVidTypeInfo@@XZ 2012de70 f   Misc.obj
 0001:0012ce80       ?GetType@rvDebugJumpPoint@@UBEPAVidTypeInfo@@XZ 2012de80 f   Misc.obj
 0001:0012ce90       ?Spawn@rvDebugJumpPoint@@QAEXXZ 2012de90 f   Misc.obj
 0001:0012cef0       ?RegisterClassA@idDamagable@@SAXXZ 2012def0 f   Misc.obj
 0001:0012cfb0       ?CreateInstance@idDamagable@@SAPAVidClass@@XZ 2012dfb0 f   Misc.obj
 0001:0012d050       ?GetClassType@idDamagable@@SAAAVidTypeInfo@@XZ 2012e050 f   Misc.obj
 0001:0012d060       ?GetType@idDamagable@@UBEPAVidTypeInfo@@XZ 2012e060 f   Misc.obj
 0001:0012d070       ??0idDamagable@@QAE@XZ     2012e070 f   Misc.obj
 0001:0012d0b0       ?Save@idDamagable@@QBEXPAVidSaveGame@@@Z 2012e0b0 f   Misc.obj
 0001:0012d150       ?Restore@idDamagable@@QAEXPAVidRestoreGame@@@Z 2012e150 f   Misc.obj
 0001:0012d240       ?Spawn@idDamagable@@QAEXXZ 2012e240 f   Misc.obj
 0001:0012d4c0       ?Killed@idDamagable@@UAEXPAVidEntity@@0HABVidVec3@@H@Z 2012e4c0 f   Misc.obj
 0001:0012d4f0       ?Damage@idDamagable@@UAEXPAVidEntity@@0ABVidVec3@@PBDMH@Z 2012e4f0 f   Misc.obj
 0001:0012d650       ?ExecuteStage@idDamagable@@MAEXXZ 2012e650 f   Misc.obj
 0001:0012e0e0       ?UpdateStage@idDamagable@@IAEXXZ 2012f0e0 f   Misc.obj
 0001:0012e290       ?GetStageVector@idDamagable@@IBE?AVidVec3@@PBD0@Z 2012f290 f   Misc.obj
 0001:0012e390       ?GetStageFloat@idDamagable@@IBEMPBD0@Z 2012f390 f   Misc.obj
 0001:0012e490       ?GetStageInt@idDamagable@@IBEHPBD0@Z 2012f490 f   Misc.obj
 0001:0012e590       ?BecomeBroken@idDamagable@@IAEXPAVidEntity@@@Z 2012f590 f   Misc.obj
 0001:0012e860       ?Event_BecomeBroken@idDamagable@@IAEXPAVidEntity@@@Z 2012f860 f   Misc.obj
 0001:0012e880       ?Event_RestoreDamagable@idDamagable@@IAEXXZ 2012f880 f   Misc.obj
 0001:0012e8c0       ?RegisterClassA@idExplodable@@SAXXZ 2012f8c0 f   Misc.obj
 0001:0012e980       ?CreateInstance@idExplodable@@SAPAVidClass@@XZ 2012f980 f   Misc.obj
 0001:0012ea30       ?GetClassType@idExplodable@@SAAAVidTypeInfo@@XZ 2012fa30 f   Misc.obj
 0001:0012ea40       ?GetType@idExplodable@@UBEPAVidTypeInfo@@XZ 2012fa40 f   Misc.obj
 0001:0012ea50       ?Spawn@idExplodable@@QAEXXZ 2012fa50 f   Misc.obj
 0001:0012ea60       ?Event_Explode@idExplodable@@AAEXPAVidEntity@@@Z 2012fa60 f   Misc.obj
 0001:0012eb40       ?RegisterClassA@idSpring@@SAXXZ 2012fb40 f   Misc.obj
 0001:0012ec00       ?CreateInstance@idSpring@@SAPAVidClass@@XZ 2012fc00 f   Misc.obj
 0001:0012ecd0       ?GetClassType@idSpring@@SAAAVidTypeInfo@@XZ 2012fcd0 f   Misc.obj
 0001:0012ece0       ?GetType@idSpring@@UBEPAVidTypeInfo@@XZ 2012fce0 f   Misc.obj
 0001:0012ecf0       ?Spawn@idSpring@@QAEXXZ    2012fcf0 f   Misc.obj
 0001:0012ee20       ?Save@idSpring@@QBEXPAVidSaveGame@@@Z 2012fe20 f   Misc.obj
 0001:0012ee80       ?Restore@idSpring@@QAEXPAVidRestoreGame@@@Z 2012fe80 f   Misc.obj
 0001:0012eee0       ?Think@idSpring@@UAEXXZ    2012fee0 f   Misc.obj
 0001:0012f1d0       ?Event_LinkSpring@idSpring@@AAEXXZ 201301d0 f   Misc.obj
 0001:0012f4e0       ?RegisterClassA@idForceField@@SAXXZ 201304e0 f   Misc.obj
 0001:0012f5a0       ?CreateInstance@idForceField@@SAPAVidClass@@XZ 201305a0 f   Misc.obj
 0001:0012f660       ?GetClassType@idForceField@@SAAAVidTypeInfo@@XZ 20130660 f   Misc.obj
 0001:0012f670       ?GetType@idForceField@@UBEPAVidTypeInfo@@XZ 20130670 f   Misc.obj
 0001:0012f680       ?Save@idForceField@@QBEXPAVidSaveGame@@@Z 20130680 f   Misc.obj
 0001:0012f6a0       ?Restore@idForceField@@QAEXPAVidRestoreGame@@@Z 201306a0 f   Misc.obj
 0001:0012f6c0       ?Spawn@idForceField@@QAEXXZ 201306c0 f   Misc.obj
 0001:0012f940       ?Think@idForceField@@UAEXXZ 20130940 f   Misc.obj
 0001:0012f970       ?Toggle@idForceField@@AAEXXZ 20130970 f   Misc.obj
 0001:0012f990       ?Event_Activate@idForceField@@AAEXPAVidEntity@@@Z 20130990 f   Misc.obj
 0001:0012f9e0       ?Event_Toggle@idForceField@@AAEXXZ 201309e0 f   Misc.obj
 0001:0012f9f0       ?Event_FindTargets@idForceField@@AAEXXZ 201309f0 f   Misc.obj
 0001:0012fab0       ?RegisterClassA@rvJumpPad@@SAXXZ 20130ab0 f   Misc.obj
 0001:0012fb70       ?CreateInstance@rvJumpPad@@SAPAVidClass@@XZ 20130b70 f   Misc.obj
 0001:0012fc10       ?GetClassType@rvJumpPad@@SAAAVidTypeInfo@@XZ 20130c10 f   Misc.obj
 0001:0012fc20       ?GetType@rvJumpPad@@UBEPAVidTypeInfo@@XZ 20130c20 f   Misc.obj
 0001:0012fc30       ??0rvJumpPad@@QAE@XZ       20130c30 f   Misc.obj
 0001:0012fc90       ?Spawn@rvJumpPad@@QAEXXZ   20130c90 f   Misc.obj
 0001:0012fcb0       ?Think@rvJumpPad@@UAEXXZ   20130cb0 f   Misc.obj
 0001:0012fe00       ?Event_FindTargets@rvJumpPad@@AAEXXZ 20130e00 f   Misc.obj
 0001:001302e0       ?ClientReceiveEvent@rvJumpPad@@EAE_NHHABVidBitMsg@@@Z 201312e0 f   Misc.obj
 0001:00130380       ?RegisterClassA@idAnimated@@SAXXZ 20131380 f   Misc.obj
 0001:00130440       ?CreateInstance@idAnimated@@SAPAVidClass@@XZ 20131440 f   Misc.obj
 0001:001304e0       ?GetClassType@idAnimated@@SAAAVidTypeInfo@@XZ 201314e0 f   Misc.obj
 0001:001304f0       ?GetType@idAnimated@@UBEPAVidTypeInfo@@XZ 201314f0 f   Misc.obj
 0001:00130500       ??0idAnimated@@QAE@XZ      20131500 f   Misc.obj
 0001:00130600       ??1idAnimated@@UAE@XZ      20131600 f   Misc.obj
 0001:001306a0       ?Save@idAnimated@@QBEXPAVidSaveGame@@@Z 201316a0 f   Misc.obj
 0001:00130760       ?Restore@idAnimated@@QAEXPAVidRestoreGame@@@Z 20131760 f   Misc.obj
 0001:00130820       ?Spawn@idAnimated@@QAEXXZ  20131820 f   Misc.obj
 0001:00130cf0       ?LoadAF@idAnimated@@UAE_NPBD@Z 20131cf0 f   Misc.obj
 0001:00130de0       ?StartRagdoll@idAnimated@@QAE_NXZ 20131de0 f   Misc.obj
 0001:00130e50       ?GetPhysicsToSoundTransform@idAnimated@@UAE_NAAVidVec3@@AAVidMat3@@@Z 20131e50 f   Misc.obj
 0001:00130ed0       ?Think@idAnimated@@UAEXXZ  20131ed0 f   Misc.obj
 0001:00130ee0       ?Damage@idAnimated@@UAEXPAVidEntity@@0ABVidVec3@@PBDMH@Z 20131ee0 f   Misc.obj
 0001:00130f00       ?ShouldConstructScriptObjectAtSpawn@idAnimated@@UBE_NXZ 20131f00 f   Misc.obj
 0001:00130f10       ?UpdateScript@idAnimated@@AAEXXZ 20131f10 f   Misc.obj
 0001:00130fb0       ?SetState@idAnimated@@AAEXPBDH@Z 20131fb0 f   Misc.obj
 0001:00131030       ?CallHandler@idAnimated@@AAEXPBD@Z 20132030 f   Misc.obj
 0001:00131070       ?PlayNextAnim@idAnimated@@AAEXXZ 20132070 f   Misc.obj
 0001:001312d0       ?Event_Activate@idAnimated@@AAEXPAVidEntity@@@Z 201322d0 f   Misc.obj
 0001:00131370       ?Event_Start@idAnimated@@AAEXXZ 20132370 f   Misc.obj
 0001:001314d0       ?Event_StartRagdoll@idAnimated@@AAEXXZ 201324d0 f   Misc.obj
 0001:001314e0       ?Event_AnimDone@idAnimated@@AAEXH@Z 201324e0 f   Misc.obj
 0001:00131610       ?Event_Footstep@idAnimated@@AAEXXZ 20132610 f   Misc.obj
 0001:00131630       ?Event_LaunchMissiles@idAnimated@@AAEXPBD000HH@Z 20132630 f   Misc.obj
 0001:00131790       ?Event_LaunchMissilesUpdate@idAnimated@@AAEXHHHH@Z 20132790 f   Misc.obj
 0001:00131d90       ?Event_SetAnimState@idAnimated@@AAEXPBDH@Z 20132d90 f   Misc.obj
 0001:00131e00       ?Event_PlayAnim@idAnimated@@AAEXHPBD@Z 20132e00 f   Misc.obj
 0001:00131f00       ?Event_PlayCycle@idAnimated@@AAEXHPBD@Z 20132f00 f   Misc.obj
 0001:00132000       ?Event_AnimDone2@idAnimated@@AAEXHH@Z 20133000 f   Misc.obj
 0001:00132050       ?RegisterClassA@idStaticEntity@@SAXXZ 20133050 f   Misc.obj
 0001:00132110       ?CreateInstance@idStaticEntity@@SAPAVidClass@@XZ 20133110 f   Misc.obj
 0001:001321b0       ?GetClassType@idStaticEntity@@SAAAVidTypeInfo@@XZ 201331b0 f   Misc.obj
 0001:001321c0       ?GetType@idStaticEntity@@UBEPAVidTypeInfo@@XZ 201331c0 f   Misc.obj
 0001:001321d0       ??0idStaticEntity@@QAE@XZ  201331d0 f   Misc.obj
 0001:00132270       ?Save@idStaticEntity@@QBEXPAVidSaveGame@@@Z 20133270 f   Misc.obj
 0001:001322f0       ?Restore@idStaticEntity@@QAEXPAVidRestoreGame@@@Z 201332f0 f   Misc.obj
 0001:00132370       ?Spawn@idStaticEntity@@QAEXXZ 20133370 f   Misc.obj
 0001:00132690       ?ShowEditingDialog@idStaticEntity@@UAEXXZ 20133690 f   Misc.obj
 0001:001326a0       ?Hide@idStaticEntity@@UAEXXZ 201336a0 f   Misc.obj
 0001:001326c0       ?Show@idStaticEntity@@UAEXXZ 201336c0 f   Misc.obj
 0001:00132710       ?Fade@idStaticEntity@@QAEXABVidVec4@@M@Z 20133710 f   Misc.obj
 0001:00132770       ?Think@idStaticEntity@@UAEXXZ 20133770 f   Misc.obj
 0001:00132950       ?WriteToSnapshot@idStaticEntity@@UBEXAAVidBitMsgDelta@@@Z 20133950 f   Misc.obj
 0001:001329a0       ?ReadFromSnapshot@idStaticEntity@@UAEXABVidBitMsgDelta@@@Z 201339a0 f   Misc.obj
 0001:00132a20       ?Event_Activate@idStaticEntity@@AAEXPAVidEntity@@@Z 20133a20 f   Misc.obj
 0001:00132b30       ?RegisterClassA@idFuncEmitter@@SAXXZ 20133b30 f   Misc.obj
 0001:00132bf0       ?CreateInstance@idFuncEmitter@@SAPAVidClass@@XZ 20133bf0 f   Misc.obj
 0001:00132c90       ?GetClassType@idFuncEmitter@@SAAAVidTypeInfo@@XZ 20133c90 f   Misc.obj
 0001:00132ca0       ?GetType@idFuncEmitter@@UBEPAVidTypeInfo@@XZ 20133ca0 f   Misc.obj
 0001:00132cb0       ??0idFuncEmitter@@QAE@XZ   20133cb0 f   Misc.obj
 0001:00132ce0       ?Save@idFuncEmitter@@QBEXPAVidSaveGame@@@Z 20133ce0 f   Misc.obj
 0001:00132d00       ?Restore@idFuncEmitter@@QAEXPAVidRestoreGame@@@Z 20133d00 f   Misc.obj
 0001:00132d20       ?Spawn@idFuncEmitter@@QAEXXZ 20133d20 f   Misc.obj
 0001:00132d80       ?Event_Activate@idFuncEmitter@@QAEXPAVidEntity@@@Z 20133d80 f   Misc.obj
 0001:00132e30       ?WriteToSnapshot@idFuncEmitter@@UBEXAAVidBitMsgDelta@@@Z 20133e30 f   Misc.obj
 0001:00132e90       ?ReadFromSnapshot@idFuncEmitter@@UAEXABVidBitMsgDelta@@@Z 20133e90 f   Misc.obj
 0001:00132f00       ?RegisterClassA@idFuncSplat@@SAXXZ 20133f00 f   Misc.obj
 0001:00132fc0       ?CreateInstance@idFuncSplat@@SAPAVidClass@@XZ 20133fc0 f   Misc.obj
 0001:00133060       ?GetClassType@idFuncSplat@@SAAAVidTypeInfo@@XZ 20134060 f   Misc.obj
 0001:00133070       ?GetType@idFuncSplat@@UBEPAVidTypeInfo@@XZ 20134070 f   Misc.obj
 0001:00133080       ??0idFuncSplat@@QAE@XZ     20134080 f   Misc.obj
 0001:001330a0       ?Spawn@idFuncSplat@@QAEXXZ 201340a0 f   Misc.obj
 0001:001330b0       ?Event_Activate@idFuncSplat@@AAEXPAVidEntity@@@Z 201340b0 f   Misc.obj
 0001:00133120       ?Event_Splat@idFuncSplat@@AAEXXZ 20134120 f   Misc.obj
 0001:001332a0       ?RegisterClassA@idTextEntity@@SAXXZ 201342a0 f   Misc.obj
 0001:00133360       ?CreateInstance@idTextEntity@@SAPAVidClass@@XZ 20134360 f   Misc.obj
 0001:00133430       ?GetClassType@idTextEntity@@SAAAVidTypeInfo@@XZ 20134430 f   Misc.obj
 0001:00133440       ?GetType@idTextEntity@@UBEPAVidTypeInfo@@XZ 20134440 f   Misc.obj
 0001:00133450       ?Spawn@idTextEntity@@QAEXXZ 20134450 f   Misc.obj
 0001:00133500       ?Save@idTextEntity@@QBEXPAVidSaveGame@@@Z 20134500 f   Misc.obj
 0001:00133530       ?Restore@idTextEntity@@QAEXPAVidRestoreGame@@@Z 20134530 f   Misc.obj
 0001:00133560       ?Think@idTextEntity@@UAEXXZ 20134560 f   Misc.obj
 0001:00133710       ?ClientPredictionThink@idTextEntity@@UAEXXZ 20134710 f   Misc.obj
 0001:001338c0       ?RegisterClassA@idLocationEntity@@SAXXZ 201348c0 f   Misc.obj
 0001:00133980       ?CreateInstance@idLocationEntity@@SAPAVidClass@@XZ 20134980 f   Misc.obj
 0001:00133a30       ?GetClassType@idLocationEntity@@SAAAVidTypeInfo@@XZ 20134a30 f   Misc.obj
 0001:00133a40       ?GetType@idLocationEntity@@UBEPAVidTypeInfo@@XZ 20134a40 f   Misc.obj
 0001:00133a50       ?Spawn@idLocationEntity@@QAEXXZ 20134a50 f   Misc.obj
 0001:00133b10       ?GetLocation@idLocationEntity@@QBEPBDXZ 20134b10 f   Misc.obj
 0001:00133b30       ?RegisterClassA@idLocationSeparatorEntity@@SAXXZ 20134b30 f   Misc.obj
 0001:00133bf0       ?CreateInstance@idLocationSeparatorEntity@@SAPAVidClass@@XZ 20134bf0 f   Misc.obj
 0001:00133ca0       ?GetClassType@idLocationSeparatorEntity@@SAAAVidTypeInfo@@XZ 20134ca0 f   Misc.obj
 0001:00133cb0       ?GetType@idLocationSeparatorEntity@@UBEPAVidTypeInfo@@XZ 20134cb0 f   Misc.obj
 0001:00133cc0       ?Spawn@idLocationSeparatorEntity@@QAEXXZ 20134cc0 f   Misc.obj
 0001:00133d90       ?RegisterClassA@idVacuumSeparatorEntity@@SAXXZ 20134d90 f   Misc.obj
 0001:00133e50       ?CreateInstance@idVacuumSeparatorEntity@@SAPAVidClass@@XZ 20134e50 f   Misc.obj
 0001:00133ef0       ?GetClassType@idVacuumSeparatorEntity@@SAAAVidTypeInfo@@XZ 20134ef0 f   Misc.obj
 0001:00133f00       ?GetType@idVacuumSeparatorEntity@@UBEPAVidTypeInfo@@XZ 20134f00 f   Misc.obj
 0001:00133f10       ??0idVacuumSeparatorEntity@@QAE@XZ 20134f10 f   Misc.obj
 0001:00133f40       ?Spawn@idVacuumSeparatorEntity@@QAEXXZ 20134f40 f   Misc.obj
 0001:00134020       ?Save@idVacuumSeparatorEntity@@QBEXPAVidSaveGame@@@Z 20135020 f   Misc.obj
 0001:00134060       ?Restore@idVacuumSeparatorEntity@@QAEXPAVidRestoreGame@@@Z 20135060 f   Misc.obj
 0001:001340a0       ?Event_Activate@idVacuumSeparatorEntity@@QAEXPAVidEntity@@@Z 201350a0 f   Misc.obj
 0001:001340c0       ?RegisterClassA@idVacuumEntity@@SAXXZ 201350c0 f   Misc.obj
 0001:00134180       ?CreateInstance@idVacuumEntity@@SAPAVidClass@@XZ 20135180 f   Misc.obj
 0001:00134230       ?GetClassType@idVacuumEntity@@SAAAVidTypeInfo@@XZ 20135230 f   Misc.obj
 0001:00134240       ?GetType@idVacuumEntity@@UBEPAVidTypeInfo@@XZ 20135240 f   Misc.obj
 0001:00134250       ?Spawn@idVacuumEntity@@QAEXXZ 20135250 f   Misc.obj
 0001:001342b0       ?RegisterClassA@rvGravitySeparatorEntity@@SAXXZ 201352b0 f   Misc.obj
 0001:00134370       ?CreateInstance@rvGravitySeparatorEntity@@SAPAVidClass@@XZ 20135370 f   Misc.obj
 0001:00134410       ?GetClassType@rvGravitySeparatorEntity@@SAAAVidTypeInfo@@XZ 20135410 f   Misc.obj
 0001:00134420       ?GetType@rvGravitySeparatorEntity@@UBEPAVidTypeInfo@@XZ 20135420 f   Misc.obj
 0001:00134430       ??0rvGravitySeparatorEntity@@QAE@XZ 20135430 f   Misc.obj
 0001:00134460       ?Spawn@rvGravitySeparatorEntity@@QAEXXZ 20135460 f   Misc.obj
 0001:00134560       ?Save@rvGravitySeparatorEntity@@QBEXPAVidSaveGame@@@Z 20135560 f   Misc.obj
 0001:001345a0       ?Restore@rvGravitySeparatorEntity@@QAEXPAVidRestoreGame@@@Z 201355a0 f   Misc.obj
 0001:001345e0       ?Event_Activate@rvGravitySeparatorEntity@@QAEXPAVidEntity@@@Z 201355e0 f   Misc.obj
 0001:00134630       ?RegisterClassA@rvGravityArea@@SAXXZ 20135630 f   Misc.obj
 0001:001346f0       ?CreateInstance@rvGravityArea@@SAPAVidClass@@XZ 201356f0 f   Misc.obj
 0001:00134710       ?GetClassType@rvGravityArea@@SAAAVidTypeInfo@@XZ 20135710 f   Misc.obj
 0001:00134720       ?GetType@rvGravityArea@@UBEPAVidTypeInfo@@XZ 20135720 f   Misc.obj
 0001:00134730       ?Spawn@rvGravityArea@@QAEXXZ 20135730 f   Misc.obj
 0001:00134780       ?Save@rvGravityArea@@QBEXPAVidSaveGame@@@Z 20135780 f   Misc.obj
 0001:001347a0       ?Restore@rvGravityArea@@QAEXPAVidRestoreGame@@@Z 201357a0 f   Misc.obj
 0001:001347c0       ?IsEqualTo@rvGravityArea@@QBE_NPBV1@@Z 201357c0 f   Misc.obj
 0001:001347f0       ??8rvGravityArea@@QBE_NPBV0@@Z 201357f0 f   Misc.obj
 0001:00134800       ??8rvGravityArea@@QBE_NABV0@@Z 20135800 f   Misc.obj
 0001:00134810       ??9rvGravityArea@@QBE_NPBV0@@Z 20135810 f   Misc.obj
 0001:00134830       ??9rvGravityArea@@QBE_NABV0@@Z 20135830 f   Misc.obj
 0001:00134850       ?RegisterClassA@rvGravityArea_Static@@SAXXZ 20135850 f   Misc.obj
 0001:00134910       ?CreateInstance@rvGravityArea_Static@@SAPAVidClass@@XZ 20135910 f   Misc.obj
 0001:001349c0       ?GetClassType@rvGravityArea_Static@@SAAAVidTypeInfo@@XZ 201359c0 f   Misc.obj
 0001:001349d0       ?GetType@rvGravityArea_Static@@UBEPAVidTypeInfo@@XZ 201359d0 f   Misc.obj
 0001:001349e0       ?Spawn@rvGravityArea_Static@@QAEXXZ 201359e0 f   Misc.obj
 0001:00134a30       ?Save@rvGravityArea_Static@@QBEXPAVidSaveGame@@@Z 20135a30 f   Misc.obj
 0001:00134a50       ?Restore@rvGravityArea_Static@@QAEXPAVidRestoreGame@@@Z 20135a50 f   Misc.obj
 0001:00134a70       ?RegisterClassA@rvGravityArea_SurfaceNormal@@SAXXZ 20135a70 f   Misc.obj
 0001:00134b30       ?CreateInstance@rvGravityArea_SurfaceNormal@@SAPAVidClass@@XZ 20135b30 f   Misc.obj
 0001:00134be0       ?GetClassType@rvGravityArea_SurfaceNormal@@SAAAVidTypeInfo@@XZ 20135be0 f   Misc.obj
 0001:00134bf0       ?GetType@rvGravityArea_SurfaceNormal@@UBEPAVidTypeInfo@@XZ 20135bf0 f   Misc.obj
 0001:00134c00       ?GetGravity@rvGravityArea_SurfaceNormal@@UBE?BVidVec3@@ABV2@ABVidMat3@@HPAVidEntity@@@Z 20135c00 f   Misc.obj
 0001:00134d30       ?GetGravity@rvGravityArea_SurfaceNormal@@UBE?BVidVec3@@PBVidEntity@@@Z 20135d30 f   Misc.obj
 0001:00134d50       ?GetGravity@rvGravityArea_SurfaceNormal@@UBE?BVidVec3@@PBVrvClientEntity@@@Z 20135d50 f   Misc.obj
 0001:00134d80       ?GetGravity@rvGravityArea_SurfaceNormal@@MBE?BVidVec3@@PBVidPhysics@@@Z 20135d80 f   Misc.obj
 0001:00134de0       ?RegisterClassA@idBeam@@SAXXZ 20135de0 f   Misc.obj
 0001:00134ea0       ?CreateInstance@idBeam@@SAPAVidClass@@XZ 20135ea0 f   Misc.obj
 0001:00134f40       ?GetClassType@idBeam@@SAAAVidTypeInfo@@XZ 20135f40 f   Misc.obj
 0001:00134f50       ?GetType@idBeam@@UBEPAVidTypeInfo@@XZ 20135f50 f   Misc.obj
 0001:00134f60       ??0idBeam@@QAE@XZ          20135f60 f   Misc.obj
 0001:00134fb0       ?Spawn@idBeam@@QAEXXZ      20135fb0 f   Misc.obj
 0001:00135010       ?Save@idBeam@@QBEXPAVidSaveGame@@@Z 20136010 f   Misc.obj
 0001:00135040       ?Restore@idBeam@@QAEXPAVidRestoreGame@@@Z 20136040 f   Misc.obj
 0001:00135070       ?Think@idBeam@@UAEXXZ      20136070 f   Misc.obj
 0001:00135100       ?SetMaster@idBeam@@QAEXPAV1@@Z 20136100 f   Misc.obj
 0001:00135130       ?SetBeamTarget@idBeam@@QAEXABVidVec3@@@Z 20136130 f   Misc.obj
 0001:001351a0       ?Show@idBeam@@UAEXXZ       201361a0 f   Misc.obj
 0001:001351f0       ?WriteToSnapshot@idBeam@@UBEXAAVidBitMsgDelta@@@Z 201361f0 f   Misc.obj
 0001:00135270       ?ReadFromSnapshot@idBeam@@UAEXABVidBitMsgDelta@@@Z 20136270 f   Misc.obj
 0001:00135300       ?Event_MatchTarget@idBeam@@AAEXXZ 20136300 f   Misc.obj
 0001:00135400       ?Event_Activate@idBeam@@AAEXPAVidEntity@@@Z 20136400 f   Misc.obj
 0001:00135420       ?RegisterClassA@idLiquid@@SAXXZ 20136420 f   Misc.obj
 0001:001354e0       ?CreateInstance@idLiquid@@SAPAVidClass@@XZ 201364e0 f   Misc.obj
 0001:00135590       ?GetClassType@idLiquid@@SAAAVidTypeInfo@@XZ 20136590 f   Misc.obj
 0001:001355a0       ?GetType@idLiquid@@UBEPAVidTypeInfo@@XZ 201365a0 f   Misc.obj
 0001:001355b0       ?Spawn@idLiquid@@QAEXXZ    201365b0 f   Misc.obj
 0001:001355c0       ?Save@idLiquid@@QBEXPAVidSaveGame@@@Z 201365c0 f   Misc.obj
 0001:001355d0       ?Restore@idLiquid@@QAEXPAVidRestoreGame@@@Z 201365d0 f   Misc.obj
 0001:001355e0       ?Event_Touch@idLiquid@@AAEXPAVidEntity@@PAUtrace_t@@@Z 201365e0 f   Misc.obj
 0001:001355f0       ?RegisterClassA@idShaking@@SAXXZ 201365f0 f   Misc.obj
 0001:001356b0       ?CreateInstance@idShaking@@SAPAVidClass@@XZ 201366b0 f   Misc.obj
 0001:00135750       ?GetClassType@idShaking@@SAAAVidTypeInfo@@XZ 20136750 f   Misc.obj
 0001:00135760       ?GetType@idShaking@@UBEPAVidTypeInfo@@XZ 20136760 f   Misc.obj
 0001:00135770       ??0idShaking@@QAE@XZ       20136770 f   Misc.obj
 0001:001357d0       ??1idShaking@@UAE@XZ       201367d0 f   Misc.obj
 0001:00135820       ?Spawn@idShaking@@QAEXXZ   20136820 f   Misc.obj
 0001:00135960       ?Save@idShaking@@QBEXPAVidSaveGame@@@Z 20136960 f   Misc.obj
 0001:00135990       ?Restore@idShaking@@QAEXPAVidRestoreGame@@@Z 20136990 f   Misc.obj
 0001:001359d0       ?BeginShaking@idShaking@@AAEXXZ 201369d0 f   Misc.obj
 0001:00135ac0       ?Event_Activate@idShaking@@AAEXPAVidEntity@@@Z 20136ac0 f   Misc.obj
 0001:00135b20       ?RegisterClassA@idEarthQuake@@SAXXZ 20136b20 f   Misc.obj
 0001:00135be0       ?CreateInstance@idEarthQuake@@SAPAVidClass@@XZ 20136be0 f   Misc.obj
 0001:00135c80       ?GetClassType@idEarthQuake@@SAAAVidTypeInfo@@XZ 20136c80 f   Misc.obj
 0001:00135c90       ?GetType@idEarthQuake@@UBEPAVidTypeInfo@@XZ 20136c90 f   Misc.obj
 0001:00135ca0       ??0idEarthQuake@@QAE@XZ    20136ca0 f   Misc.obj
 0001:00135d00       ?Spawn@idEarthQuake@@QAEXXZ 20136d00 f   Misc.obj
 0001:00135e80       ?Save@idEarthQuake@@QBEXPAVidSaveGame@@@Z 20136e80 f   Misc.obj
 0001:00135f20       ?Restore@idEarthQuake@@QAEXPAVidRestoreGame@@@Z 20136f20 f   Misc.obj
 0001:00135fc0       ?Think@idEarthQuake@@UAEXXZ 20136fc0 f   Misc.obj
 0001:00136090       ?AffectNearbyEntities@idEarthQuake@@IAEXM@Z 20137090 f   Misc.obj
 0001:00136240       ?Event_Activate@idEarthQuake@@AAEXPAVidEntity@@@Z 20137240 f   Misc.obj
 0001:001364f0       ?RegisterClassA@idFuncPortal@@SAXXZ 201374f0 f   Misc.obj
 0001:001365b0       ?CreateInstance@idFuncPortal@@SAPAVidClass@@XZ 201375b0 f   Misc.obj
 0001:00136650       ?GetClassType@idFuncPortal@@SAAAVidTypeInfo@@XZ 20137650 f   Misc.obj
 0001:00136660       ?GetType@idFuncPortal@@UBEPAVidTypeInfo@@XZ 20137660 f   Misc.obj
 0001:00136670       ??0idFuncPortal@@QAE@XZ    20137670 f   Misc.obj
 0001:001366a0       ?Spawn@idFuncPortal@@QAEXXZ 201376a0 f   Misc.obj
 0001:00136780       ?Save@idFuncPortal@@QBEXPAVidSaveGame@@@Z 20137780 f   Misc.obj
 0001:001367b0       ?Restore@idFuncPortal@@QAEXPAVidRestoreGame@@@Z 201377b0 f   Misc.obj
 0001:00136800       ?Event_Activate@idFuncPortal@@AAEXPAVidEntity@@@Z 20137800 f   Misc.obj
 0001:00136840       ?RegisterClassA@idFuncAASPortal@@SAXXZ 20137840 f   Misc.obj
 0001:00136900       ?CreateInstance@idFuncAASPortal@@SAPAVidClass@@XZ 20137900 f   Misc.obj
 0001:001369a0       ?GetClassType@idFuncAASPortal@@SAAAVidTypeInfo@@XZ 201379a0 f   Misc.obj
 0001:001369b0       ?GetType@idFuncAASPortal@@UBEPAVidTypeInfo@@XZ 201379b0 f   Misc.obj
 0001:001369c0       ??0idFuncAASPortal@@QAE@XZ 201379c0 f   Misc.obj
 0001:001369f0       ?Spawn@idFuncAASPortal@@QAEXXZ 201379f0 f   Misc.obj
 0001:00136a50       ?Save@idFuncAASPortal@@QBEXPAVidSaveGame@@@Z 20137a50 f   Misc.obj
 0001:00136a70       ?Restore@idFuncAASPortal@@QAEXPAVidRestoreGame@@@Z 20137a70 f   Misc.obj
 0001:00136ab0       ?Event_Activate@idFuncAASPortal@@AAEXPAVidEntity@@@Z 20137ab0 f   Misc.obj
 0001:00136ae0       ?RegisterClassA@idFuncAASObstacle@@SAXXZ 20137ae0 f   Misc.obj
 0001:00136ba0       ?CreateInstance@idFuncAASObstacle@@SAPAVidClass@@XZ 20137ba0 f   Misc.obj
 0001:00136c40       ?GetClassType@idFuncAASObstacle@@SAAAVidTypeInfo@@XZ 20137c40 f   Misc.obj
 0001:00136c50       ?GetType@idFuncAASObstacle@@UBEPAVidTypeInfo@@XZ 20137c50 f   Misc.obj
 0001:00136c60       ??0idFuncAASObstacle@@QAE@XZ 20137c60 f   Misc.obj
 0001:00136c90       ?Spawn@idFuncAASObstacle@@QAEXXZ 20137c90 f   Misc.obj
 0001:00136cf0       ?Save@idFuncAASObstacle@@QBEXPAVidSaveGame@@@Z 20137cf0 f   Misc.obj
 0001:00136d10       ?Restore@idFuncAASObstacle@@QAEXPAVidRestoreGame@@@Z 20137d10 f   Misc.obj
 0001:00136d50       ?SetState@idFuncAASObstacle@@QAEX_N@Z 20137d50 f   Misc.obj
 0001:00136d80       ?Event_Activate@idFuncAASObstacle@@AAEXPAVidEntity@@@Z 20137d80 f   Misc.obj
 0001:00136db0       ?RegisterClassA@idFuncRadioChatter@@SAXXZ 20137db0 f   Misc.obj
 0001:00136e70       ?CreateInstance@idFuncRadioChatter@@SAPAVidClass@@XZ 20137e70 f   Misc.obj
 0001:00136f10       ?GetClassType@idFuncRadioChatter@@SAAAVidTypeInfo@@XZ 20137f10 f   Misc.obj
 0001:00136f20       ?GetType@idFuncRadioChatter@@UBEPAVidTypeInfo@@XZ 20137f20 f   Misc.obj
 0001:00136f30       ??0idFuncRadioChatter@@QAE@XZ 20137f30 f   Misc.obj
 0001:00136f60       ?Spawn@idFuncRadioChatter@@QAEXXZ 20137f60 f   Misc.obj
 0001:00136fb0       ?Save@idFuncRadioChatter@@QBEXPAVidSaveGame@@@Z 20137fb0 f   Misc.obj
 0001:00137000       ?Restore@idFuncRadioChatter@@QAEXPAVidRestoreGame@@@Z 20138000 f   Misc.obj
 0001:00137040       ?RepeatLast@idFuncRadioChatter@@SAXXZ 20138040 f   Misc.obj
 0001:00137080       ?Event_Activate@idFuncRadioChatter@@AAEXPAVidEntity@@@Z 20138080 f   Misc.obj
 0001:00137210       ?Event_ResetRadioHud@idFuncRadioChatter@@AAEXPAVidEntity@@@Z 20138210 f   Misc.obj
 0001:00137270       ?Event_IsActive@idFuncRadioChatter@@AAEXXZ 20138270 f   Misc.obj
 0001:00137290       ?RegisterClassA@idPhantomObjects@@SAXXZ 20138290 f   Misc.obj
 0001:00137350       ?CreateInstance@idPhantomObjects@@SAPAVidClass@@XZ 20138350 f   Misc.obj
 0001:001373f0       ?GetClassType@idPhantomObjects@@SAAAVidTypeInfo@@XZ 201383f0 f   Misc.obj
 0001:00137400       ?GetType@idPhantomObjects@@UBEPAVidTypeInfo@@XZ 20138400 f   Misc.obj
 0001:00137410       ??0idPhantomObjects@@QAE@XZ 20138410 f   Misc.obj
 0001:00137500       ?Spawn@idPhantomObjects@@QAEXXZ 20138500 f   Misc.obj
 0001:001376b0       ?Save@idPhantomObjects@@QBEXPAVidSaveGame@@@Z 201386b0 f   Misc.obj
 0001:001377c0       ?Restore@idPhantomObjects@@QAEXPAVidRestoreGame@@@Z 201387c0 f   Misc.obj
 0001:00137df0       ?Think@idPhantomObjects@@UAEXXZ 20138df0 f   Misc.obj
 0001:00138240       ?Event_Activate@idPhantomObjects@@AAEXPAVidEntity@@@Z 20139240 f   Misc.obj
 0001:00138770       ?RegisterClassA@rvFuncSaveGame@@SAXXZ 20139770 f   Misc.obj
 0001:00138830       ?CreateInstance@rvFuncSaveGame@@SAPAVidClass@@XZ 20139830 f   Misc.obj
 0001:001388e0       ?GetClassType@rvFuncSaveGame@@SAAAVidTypeInfo@@XZ 201398e0 f   Misc.obj
 0001:001388f0       ?GetType@rvFuncSaveGame@@UBEPAVidTypeInfo@@XZ 201398f0 f   Misc.obj
 0001:00138900       ?Spawn@rvFuncSaveGame@@QAEXXZ 20139900 f   Misc.obj
 0001:00138910       ?Event_Activate@rvFuncSaveGame@@QAEXPAVidEntity@@@Z 20139910 f   Misc.obj
 0001:00138930       ?Register_idSpawnableEntity@@YAXXZ 20139930 f   Misc.obj
 0001:00138940       ?Register_idPlayerStart@@YAXXZ 20139940 f   Misc.obj
 0001:00138950       ?Register_idActivator@@YAXXZ 20139950 f   Misc.obj
 0001:00138960       ?Register_idPathCorner@@YAXXZ 20139960 f   Misc.obj
 0001:00138970       ?Register_idDamagable@@YAXXZ 20139970 f   Misc.obj
 0001:00138980       ?Register_idExplodable@@YAXXZ 20139980 f   Misc.obj
 0001:00138990       ?Register_idSpring@@YAXXZ  20139990 f   Misc.obj
 0001:001389a0       ?Register_idForceField@@YAXXZ 201399a0 f   Misc.obj
 0001:001389b0       ?Register_rvJumpPad@@YAXXZ 201399b0 f   Misc.obj
 0001:001389c0       ?Register_idAnimated@@YAXXZ 201399c0 f   Misc.obj
 0001:001389d0       ?Register_idStaticEntity@@YAXXZ 201399d0 f   Misc.obj
 0001:001389e0       ?Register_idFuncEmitter@@YAXXZ 201399e0 f   Misc.obj
 0001:001389f0       ?Register_idFuncSplat@@YAXXZ 201399f0 f   Misc.obj
 0001:00138a00       ?Register_idTextEntity@@YAXXZ 20139a00 f   Misc.obj
 0001:00138a10       ?Register_idVacuumSeparatorEntity@@YAXXZ 20139a10 f   Misc.obj
 0001:00138a20       ?Register_idLocationSeparatorEntity@@YAXXZ 20139a20 f   Misc.obj
 0001:00138a30       ?Register_idVacuumEntity@@YAXXZ 20139a30 f   Misc.obj
 0001:00138a40       ?Register_rvGravitySeparatorEntity@@YAXXZ 20139a40 f   Misc.obj
 0001:00138a50       ?Register_rvGravityArea@@YAXXZ 20139a50 f   Misc.obj
 0001:00138a60       ?Register_rvGravityArea_Static@@YAXXZ 20139a60 f   Misc.obj
 0001:00138a70       ?Register_rvGravityArea_SurfaceNormal@@YAXXZ 20139a70 f   Misc.obj
 0001:00138a80       ?Register_idLocationEntity@@YAXXZ 20139a80 f   Misc.obj
 0001:00138a90       ?Register_idBeam@@YAXXZ    20139a90 f   Misc.obj
 0001:00138aa0       ?Register_idLiquid@@YAXXZ  20139aa0 f   Misc.obj
 0001:00138ab0       ?Register_idShaking@@YAXXZ 20139ab0 f   Misc.obj
 0001:00138ac0       ?Register_idEarthQuake@@YAXXZ 20139ac0 f   Misc.obj
 0001:00138ad0       ?Register_idFuncPortal@@YAXXZ 20139ad0 f   Misc.obj
 0001:00138ae0       ?Register_idFuncAASPortal@@YAXXZ 20139ae0 f   Misc.obj
 0001:00138af0       ?Register_idFuncAASObstacle@@YAXXZ 20139af0 f   Misc.obj
 0001:00138b00       ?Register_idFuncRadioChatter@@YAXXZ 20139b00 f   Misc.obj
 0001:00138b10       ?Register_idPhantomObjects@@YAXXZ 20139b10 f   Misc.obj
 0001:00138b20       ?Register_rvDebugJumpPoint@@YAXXZ 20139b20 f   Misc.obj
 0001:00138b30       ?Register_rvFuncSaveGame@@YAXXZ 20139b30 f   Misc.obj
 0001:00138b40       ??_EidActivator@@UAEPAXI@Z 20139b40 f i Misc.obj
 0001:00138b40       ??_EidFuncAASObstacle@@UAEPAXI@Z 20139b40 f i Misc.obj
 0001:00138b40       ??_EidFuncAASPortal@@UAEPAXI@Z 20139b40 f i Misc.obj
 0001:00138b40       ??_EidLiquid@@UAEPAXI@Z    20139b40 f i Misc.obj
 0001:00138b40       ??_EidPlayerStart@@UAEPAXI@Z 20139b40 f i Misc.obj
 0001:00138b40       ??_EidVacuumSeparatorEntity@@UAEPAXI@Z 20139b40 f i Misc.obj
 0001:00138b40       ??_ErvGravityArea_SurfaceNormal@@UAEPAXI@Z 20139b40 f i Misc.obj
 0001:00138b40       ??_ErvGravitySeparatorEntity@@UAEPAXI@Z 20139b40 f i Misc.obj
 0001:00138b40       ??_GidActivator@@UAEPAXI@Z 20139b40 f i Misc.obj
 0001:00138b40       ??_GidFuncAASObstacle@@UAEPAXI@Z 20139b40 f i Misc.obj
 0001:00138b40       ??_GidFuncAASPortal@@UAEPAXI@Z 20139b40 f i Misc.obj
 0001:00138b40       ??_GidLiquid@@UAEPAXI@Z    20139b40 f i Misc.obj
 0001:00138b40       ??_GidPlayerStart@@UAEPAXI@Z 20139b40 f i Misc.obj
 0001:00138b40       ??_GidVacuumSeparatorEntity@@UAEPAXI@Z 20139b40 f i Misc.obj
 0001:00138b40       ??_GrvGravityArea_SurfaceNormal@@UAEPAXI@Z 20139b40 f i Misc.obj
 0001:00138b40       ??_GrvGravitySeparatorEntity@@UAEPAXI@Z 20139b40 f i Misc.obj
 0001:00138b80       ??_EidAnimated@@UAEPAXI@Z  20139b80 f i Misc.obj
 0001:00138b80       ??_GidAnimated@@UAEPAXI@Z  20139b80 f i Misc.obj
 0001:00138bc0       ??_EidBeam@@UAEPAXI@Z      20139bc0 f i Misc.obj
 0001:00138bc0       ??_EidFuncPortal@@UAEPAXI@Z 20139bc0 f i Misc.obj
 0001:00138bc0       ??_EidFuncRadioChatter@@UAEPAXI@Z 20139bc0 f i Misc.obj
 0001:00138bc0       ??_ErvCTFAssaultPlayerStart@@UAEPAXI@Z 20139bc0 f i CTF.obj
 0001:00138bc0       ??_GidBeam@@UAEPAXI@Z      20139bc0 f i Misc.obj
 0001:00138bc0       ??_GidFuncPortal@@UAEPAXI@Z 20139bc0 f i Misc.obj
 0001:00138bc0       ??_GidFuncRadioChatter@@UAEPAXI@Z 20139bc0 f i Misc.obj
 0001:00138bc0       ??_GrvCTFAssaultPlayerStart@@UAEPAXI@Z 20139bc0 f i CTF.obj
 0001:00138c00       ??_EidDamagable@@UAEPAXI@Z 20139c00 f i Misc.obj
 0001:00138c00       ??_GidDamagable@@UAEPAXI@Z 20139c00 f i Misc.obj
 0001:00138c40       ??_EidForceField@@UAEPAXI@Z 20139c40 f i Misc.obj
 0001:00138c40       ??_GidForceField@@UAEPAXI@Z 20139c40 f i Misc.obj
 0001:00138c90       ??_EidFuncEmitter@@UAEPAXI@Z 20139c90 f i Misc.obj
 0001:00138c90       ??_EidFuncSplat@@UAEPAXI@Z 20139c90 f i Misc.obj
 0001:00138c90       ??_GidFuncEmitter@@UAEPAXI@Z 20139c90 f i Misc.obj
 0001:00138c90       ??_GidFuncSplat@@UAEPAXI@Z 20139c90 f i Misc.obj
 0001:00138cd0       ??_EidPhantomObjects@@UAEPAXI@Z 20139cd0 f i Misc.obj
 0001:00138cd0       ??_GidPhantomObjects@@UAEPAXI@Z 20139cd0 f i Misc.obj
 0001:00138df0       ??_EidShaking@@UAEPAXI@Z   20139df0 f i Misc.obj
 0001:00138df0       ??_GidShaking@@UAEPAXI@Z   20139df0 f i Misc.obj
 0001:00138e30       ??_EidSpring@@UAEPAXI@Z    20139e30 f i Misc.obj
 0001:00138e30       ??_GidSpring@@UAEPAXI@Z    20139e30 f i Misc.obj
 0001:00138e80       ??_EidStaticEntity@@UAEPAXI@Z 20139e80 f i Misc.obj
 0001:00138e80       ??_GidStaticEntity@@UAEPAXI@Z 20139e80 f i Misc.obj
 0001:00138ec0       ??_EidTextEntity@@UAEPAXI@Z 20139ec0 f i Misc.obj
 0001:00138ec0       ??_GidTextEntity@@UAEPAXI@Z 20139ec0 f i Misc.obj
 0001:00138f50       ??_ErvJumpPad@@UAEPAXI@Z   20139f50 f i Misc.obj
 0001:00138f50       ??_GrvJumpPad@@UAEPAXI@Z   20139f50 f i Misc.obj
 0001:00138fa0       ?GetArea@rvGravityArea@@UBEHXZ 20139fa0 f i Misc.obj
 0001:00138fb0       ?GetGravity@rvGravityArea_Static@@UBE?BVidVec3@@ABV2@ABVidMat3@@HPAVidEntity@@@Z 20139fb0 f i Misc.obj
 0001:00138fd0       ?GetGravity@rvGravityArea_Static@@UBE?BVidVec3@@PBVidEntity@@@Z 20139fd0 f i Misc.obj
 0001:00138fd0       ?GetGravity@rvGravityArea_Static@@UBE?BVidVec3@@PBVrvClientEntity@@@Z 20139fd0 f i Misc.obj
 0001:00138ff0       ?RegisterClassA@idMoveable@@SAXXZ 20139ff0 f   Moveable.obj
 0001:001390b0       ?CreateInstance@idMoveable@@SAPAVidClass@@XZ 2013a0b0 f   Moveable.obj
 0001:00139150       ?GetClassType@idMoveable@@SAAAVidTypeInfo@@XZ 2013a150 f   Moveable.obj
 0001:00139160       ?GetType@idMoveable@@UBEPAVidTypeInfo@@XZ 2013a160 f   Moveable.obj
 0001:00139170       ??0idMoveable@@QAE@XZ      2013a170 f   Moveable.obj
 0001:00139280       ??1idMoveable@@UAE@XZ      2013a280 f   Moveable.obj
 0001:00139310       ?Spawn@idMoveable@@QAEXXZ  2013a310 f   Moveable.obj
 0001:00139b20       ?Save@idMoveable@@QBEXPAVidSaveGame@@@Z 2013ab20 f   Moveable.obj
 0001:00139c00       ?Restore@idMoveable@@QAEXPAVidRestoreGame@@@Z 2013ac00 f   Moveable.obj
 0001:00139ce0       ?Think@idMoveable@@UAEXXZ  2013ace0 f   Moveable.obj
 0001:00139d20       ?Hide@idMoveable@@UAEXXZ   2013ad20 f   Moveable.obj
 0001:00139d40       ?Show@idMoveable@@UAEXXZ   2013ad40 f   Moveable.obj
 0001:00139d90       ?AllowStep@idMoveable@@QBE_NXZ 2013ad90 f   Moveable.obj
 0001:00139da0       ?EnableDamage@idMoveable@@QAEX_NM@Z 2013ada0 f   Moveable.obj
 0001:00139e00       ?Collide@idMoveable@@UAE_NABUtrace_t@@ABVidVec3@@@Z 2013ae00 f   Moveable.obj
 0001:0013a0a0       ?Damage@idMoveable@@UAEXPAVidEntity@@0ABVidVec3@@PBDMH@Z 2013b0a0 f   Moveable.obj
 0001:0013a100       ?Killed@idMoveable@@UAEXPAVidEntity@@0HABVidVec3@@H@Z 2013b100 f   Moveable.obj
 0001:0013a110       ?WriteToSnapshot@idMoveable@@UBEXAAVidBitMsgDelta@@@Z 2013b110 f   Moveable.obj
 0001:0013a130       ?ReadFromSnapshot@idMoveable@@UAEXABVidBitMsgDelta@@@Z 2013b130 f   Moveable.obj
 0001:0013a160       ?AddDamageEffect@idMoveable@@UAEXABUtrace_t@@ABVidVec3@@PBDPAVidEntity@@@Z 2013b160 f   Moveable.obj
 0001:0013a1c0       ?ExecuteStage@idMoveable@@MAEXXZ 2013b1c0 f   Moveable.obj
 0001:0013a240       ?GetRenderModelMaterial@idMoveable@@IBEPBVidMaterial@@XZ 2013b240 f   Moveable.obj
 0001:0013a280       ?BecomeNonSolid@idMoveable@@IAEXXZ 2013b280 f   Moveable.obj
 0001:0013a2b0       ?InitInitialSpline@idMoveable@@IAEXH@Z 2013b2b0 f   Moveable.obj
 0001:0013a5a0       ?FollowInitialSplinePath@idMoveable@@IAE_NXZ 2013b5a0 f   Moveable.obj
 0001:0013aa10       ?Event_Activate@idMoveable@@IAEXPAVidEntity@@@Z 2013ba10 f   Moveable.obj
 0001:0013ab90       ?Event_BecomeNonSolid@idMoveable@@IAEXXZ 2013bb90 f   Moveable.obj
 0001:0013aba0       ?Event_SetOwnerFromSpawnArgs@idMoveable@@IAEXXZ 2013bba0 f   Moveable.obj
 0001:0013ac80       ?Event_IsAtRest@idMoveable@@IAEXXZ 2013bc80 f   Moveable.obj
 0001:0013aca0       ?Event_CanDamage@idMoveable@@IAEXM@Z 2013bca0 f   Moveable.obj
 0001:0013acd0       ?Event_SetHealth@idMoveable@@IAEXM@Z 2013bcd0 f   Moveable.obj
 0001:0013acf0       ?Event_RadiusDamage@idMoveable@@IAEXPAVidEntity@@PBD@Z 2013bcf0 f   Moveable.obj
 0001:0013ad30       ?RegisterClassA@idBarrel@@SAXXZ 2013bd30 f   Moveable.obj
 0001:0013adf0       ?CreateInstance@idBarrel@@SAPAVidClass@@XZ 2013bdf0 f   Moveable.obj
 0001:0013ae90       ?GetClassType@idBarrel@@SAAAVidTypeInfo@@XZ 2013be90 f   Moveable.obj
 0001:0013aea0       ?GetType@idBarrel@@UBEPAVidTypeInfo@@XZ 2013bea0 f   Moveable.obj
 0001:0013aeb0       ??0idBarrel@@QAE@XZ        2013beb0 f   Moveable.obj
 0001:0013b030       ?Spawn@idBarrel@@QAEXXZ    2013c030 f   Moveable.obj
 0001:0013b190       ?Save@idBarrel@@QBEXPAVidSaveGame@@@Z 2013c190 f   Moveable.obj
 0001:0013b210       ?Restore@idBarrel@@QAEXPAVidRestoreGame@@@Z 2013c210 f   Moveable.obj
 0001:0013b280       ?BarrelThink@idBarrel@@QAEXXZ 2013c280 f   Moveable.obj
 0001:0013b830       ?Think@idBarrel@@UAEXXZ    2013c830 f   Moveable.obj
 0001:0013b860       ?GetPhysicsToVisualTransform@idBarrel@@UAE_NAAVidVec3@@AAVidMat3@@@Z 2013c860 f   Moveable.obj
 0001:0013b8f0       ?ClientPredictionThink@idBarrel@@UAEXXZ 2013c8f0 f   Moveable.obj
 0001:0013b900       ?RegisterClassA@idExplodingBarrel@@SAXXZ 2013c900 f   Moveable.obj
 0001:0013b9c0       ?CreateInstance@idExplodingBarrel@@SAPAVidClass@@XZ 2013c9c0 f   Moveable.obj
 0001:0013ba60       ?GetClassType@idExplodingBarrel@@SAAAVidTypeInfo@@XZ 2013ca60 f   Moveable.obj
 0001:0013ba70       ?GetType@idExplodingBarrel@@UBEPAVidTypeInfo@@XZ 2013ca70 f   Moveable.obj
 0001:0013ba80       ??0idExplodingBarrel@@QAE@XZ 2013ca80 f   Moveable.obj
 0001:0013bb50       ??1idExplodingBarrel@@UAE@XZ 2013cb50 f   Moveable.obj
 0001:0013bbc0       ?Spawn@idExplodingBarrel@@QAEXXZ 2013cbc0 f   Moveable.obj
 0001:0013bd50       ?Save@idExplodingBarrel@@QBEXPAVidSaveGame@@@Z 2013cd50 f   Moveable.obj
 0001:0013be00       ?Restore@idExplodingBarrel@@QAEXPAVidRestoreGame@@@Z 2013ce00 f   Moveable.obj
 0001:0013bf30       ?Think@idExplodingBarrel@@UAEXXZ 2013cf30 f   Moveable.obj
 0001:0013c220       ?Damage@idExplodingBarrel@@UAEXPAVidEntity@@0ABVidVec3@@PBDMH@Z 2013d220 f   Moveable.obj
 0001:0013c2c0       ?Killed@idExplodingBarrel@@UAEXPAVidEntity@@0HABVidVec3@@H@Z 2013d2c0 f   Moveable.obj
 0001:0013c560       ?WriteToSnapshot@idExplodingBarrel@@UBEXAAVidBitMsgDelta@@@Z 2013d560 f   Moveable.obj
 0001:0013c5a0       ?ReadFromSnapshot@idExplodingBarrel@@UAEXABVidBitMsgDelta@@@Z 2013d5a0 f   Moveable.obj
 0001:0013c600       ?AddIPS@idExplodingBarrel@@AAEXPBD_N@Z 2013d600 f   Moveable.obj
 0001:0013c7d0       ?AddLight@idExplodingBarrel@@AAEXPBD_N@Z 2013d7d0 f   Moveable.obj
 0001:0013c990       ?ExplodingEffects@idExplodingBarrel@@AAEXXZ 2013d990 f   Moveable.obj
 0001:0013cad0       ?Event_Activate@idExplodingBarrel@@AAEXPAVidEntity@@@Z 2013dad0 f   Moveable.obj
 0001:0013caf0       ?Event_Respawn@idExplodingBarrel@@AAEXXZ 2013daf0 f   Moveable.obj
 0001:0013cbd0       ?Event_Explode@idExplodingBarrel@@AAEXXZ 2013dbd0 f   Moveable.obj
 0001:0013cc00       ?Event_TriggerTargets@idExplodingBarrel@@AAEXXZ 2013dc00 f   Moveable.obj
 0001:0013cc10       ?Register_idMoveable@@YAXXZ 2013dc10 f   Moveable.obj
 0001:0013cc20       ?Register_idBarrel@@YAXXZ  2013dc20 f   Moveable.obj
 0001:0013cc30       ?Register_idExplodingBarrel@@YAXXZ 2013dc30 f   Moveable.obj
 0001:0013cc40       ??1idDamagable@@UAE@XZ     2013dc40 f i Moveable.obj
 0001:0013cc40       ??1idTarget@@UAE@XZ        2013dc40 f i Target.obj
 0001:0013cc50       ??_EidBarrel@@UAEPAXI@Z    2013dc50 f i Moveable.obj
 0001:0013cc50       ??_GidBarrel@@UAEPAXI@Z    2013dc50 f i Moveable.obj
 0001:0013cc90       ??_EidExplodingBarrel@@UAEPAXI@Z 2013dc90 f i Moveable.obj
 0001:0013cc90       ??_GidExplodingBarrel@@UAEPAXI@Z 2013dc90 f i Moveable.obj
 0001:0013ccd0       ??_EidMoveable@@UAEPAXI@Z  2013dcd0 f i Moveable.obj
 0001:0013ccd0       ??_GidMoveable@@UAEPAXI@Z  2013dcd0 f i Moveable.obj
 0001:0013cd10       ?RegisterClassA@idMover@@SAXXZ 2013dd10 f   Mover.obj
 0001:0013cdd0       ?CreateInstance@idMover@@SAPAVidClass@@XZ 2013ddd0 f   Mover.obj
 0001:0013ce70       ?GetClassType@idMover@@SAAAVidTypeInfo@@XZ 2013de70 f   Mover.obj
 0001:0013ce80       ?GetType@idMover@@UBEPAVidTypeInfo@@XZ 2013de80 f   Mover.obj
 0001:0013ce90       ??0idMover@@QAE@XZ         2013de90 f   Mover.obj
 0001:0013d080       ??1idMover@@UAE@XZ         2013e080 f   Mover.obj
 0001:0013d130       ?Spawn@idMover@@QAEXXZ     2013e130 f   Mover.obj
 0001:0013d750       ?Think@idMover@@UAEXXZ     2013e750 f   Mover.obj
 0001:0013d910       ?Save@idMover@@QBEXPAVidSaveGame@@@Z 2013e910 f   Mover.obj
 0001:0013dbd0       ?Restore@idMover@@QAEXPAVidRestoreGame@@@Z 2013ebd0 f   Mover.obj
 0001:0013e0a0       ?Killed@idMover@@UAEXPAVidEntity@@0HABVidVec3@@H@Z 2013f0a0 f   Mover.obj
 0001:0013e0c0       ?WriteToSnapshot@idMover@@UBEXAAVidBitMsgDelta@@@Z 2013f0c0 f   Mover.obj
 0001:0013e130       ?ReadFromSnapshot@idMover@@UAEXABVidBitMsgDelta@@@Z 2013f130 f   Mover.obj
 0001:0013e1f0       ?Hide@idMover@@UAEXXZ      2013f1f0 f   Mover.obj
 0001:0013e210       ?Show@idMover@@UAEXXZ      2013f210 f   Mover.obj
 0001:0013e260       ?SetPortalState@idMover@@QAEX_N@Z 2013f260 f   Mover.obj
 0001:0013e290       ?Event_OpenPortal@idMover@@IAEXXZ 2013f290 f   Mover.obj
 0001:0013e2b0       ?Event_ClosePortal@idMover@@IAEXXZ 2013f2b0 f   Mover.obj
 0001:0013e2d0       ?Event_PartBlocked@idMover@@IAEXPAVidEntity@@@Z 2013f2d0 f   Mover.obj
 0001:0013e340       ?MoveToPos@idMover@@IAEXABVidVec3@@@Z 2013f340 f   Mover.obj
 0001:0013e390       ?UpdateMoveSound@idMover@@IAEXW4moveStage_t@1@@Z 2013f390 f   Mover.obj
 0001:0013e470       ?UpdateRotationSound@idMover@@IAEXW4moveStage_t@1@@Z 2013f470 f   Mover.obj
 0001:0013e520       ?SetGuiStates@idMover@@IAEXPBD@Z 2013f520 f   Mover.obj
 0001:0013e580       ?FindGuiTargets@idMover@@IAEXXZ 2013f580 f   Mover.obj
 0001:0013e5a0       ?SetGuiState@idMover@@IBEXPBD0@Z 2013f5a0 f   Mover.obj
 0001:0013e680       ?DoneMoving@idMover@@MAEXXZ 2013f680 f   Mover.obj
 0001:0013e6f0       ?DoneRotating@idMover@@MAEXXZ 2013f6f0 f   Mover.obj
 0001:0013e730       ?BeginMove@idMover@@MAEXPAVidThread@@@Z 2013f730 f   Mover.obj
 0001:0013e9e0       ?BeginRotation@idMover@@MAEXPAVidThread@@_N@Z 2013f9e0 f   Mover.obj
 0001:0013ec40       ?GetPhysicsToVisualTransform@idMover@@EAE_NAAVidVec3@@AAVidMat3@@@Z 2013fc40 f   Mover.obj
 0001:0013ecc0       ?MoveAlongVector@idMover@@AAEXABVidVec3@@@Z 2013fcc0 f   Mover.obj
 0001:0013ede0       ?VectorForDir@idMover@@AAEXMAAVidVec3@@@Z 2013fde0 f   Mover.obj
 0001:0013f040       ?Event_SetCallback@idMover@@AAEXXZ 20140040 f   Mover.obj
 0001:0013f0d0       ?Event_TeamBlocked@idMover@@AAEXPAVidEntity@@0@Z 201400d0 f   Mover.obj
 0001:0013f2c0       ?Event_StopMoving@idMover@@AAEXXZ 201402c0 f   Mover.obj
 0001:0013f2e0       ?Event_StopRotating@idMover@@AAEXXZ 201402e0 f   Mover.obj
 0001:0013f320       ?Event_UpdateMove@idMover@@AAEXXZ 20140320 f   Mover.obj
 0001:0013f480       ?Event_UpdateRotation@idMover@@AAEXXZ 20140480 f   Mover.obj
 0001:0013f680       ?Event_SetMoveSpeed@idMover@@AAEXM@Z 20140680 f   Mover.obj
 0001:0013f6c0       ?Event_SetMoveTime@idMover@@AAEXM@Z 201406c0 f   Mover.obj
 0001:0013f720       ?Event_SetDecelerationTime@idMover@@AAEXM@Z 20140720 f   Mover.obj
 0001:0013f770       ?Event_SetAccellerationTime@idMover@@AAEXM@Z 20140770 f   Mover.obj
 0001:0013f7c0       ?Event_MoveTo@idMover@@AAEXPAVidEntity@@@Z 201407c0 f   Mover.obj
 0001:0013f840       ?Event_MoveToPos@idMover@@AAEXAAVidVec3@@@Z 20140840 f   Mover.obj
 0001:0013f850       ?Event_MoveDir@idMover@@AAEXMM@Z 20140850 f   Mover.obj
 0001:0013f8e0       ?Event_MoveAccelerateTo@idMover@@AAEXMM@Z 201408e0 f   Mover.obj
 0001:0013fb30       ?Event_MoveDecelerateTo@idMover@@AAEXMM@Z 20140b30 f   Mover.obj
 0001:0013fd80       ?Event_RotateDownTo@idMover@@AAEXHM@Z 20140d80 f   Mover.obj
 0001:0013fe00       ?Event_RotateUpTo@idMover@@AAEXHM@Z 20140e00 f   Mover.obj
 0001:0013fe80       ?Event_RotateTo@idMover@@AAEXAAVidAngles@@@Z 20140e80 f   Mover.obj
 0001:0013fec0       ?Event_Rotate@idMover@@AAEXAAVidAngles@@@Z 20140ec0 f   Mover.obj
 0001:0013ff80       ?Event_RotateOnce@idMover@@AAEXAAVidAngles@@@Z 20140f80 f   Mover.obj
 0001:00140000       ?Event_Bob@idMover@@AAEXMMAAVidVec3@@@Z 20141000 f   Mover.obj
 0001:00140090       ?Event_Sway@idMover@@AAEXMMAAVidAngles@@@Z 20141090 f   Mover.obj
 0001:00140170       ?Event_SetAccelSound@idMover@@AAEXPBD@Z 20141170 f   Mover.obj
 0001:00140180       ?Event_SetDecelSound@idMover@@AAEXPBD@Z 20141180 f   Mover.obj
 0001:00140190       ?Event_SetStoppedSound@idMover@@AAEXPBD@Z 20141190 f   Mover.obj
 0001:001401a0       ?Event_SetMoveSound@idMover@@AAEXPBD@Z 201411a0 f   Mover.obj
 0001:001401b0       ?Event_FindGuiTargets@idMover@@AAEXXZ 201411b0 f   Mover.obj
 0001:001401c0       ?Event_InitGuiTargets@idMover@@AAEXXZ 201411c0 f   Mover.obj
 0001:001401d0       ?Event_EnableSplineAngles@idMover@@AAEXXZ 201411d0 f   Mover.obj
 0001:001401e0       ?Event_DisableSplineAngles@idMover@@AAEXXZ 201411e0 f   Mover.obj
 0001:001401f0       ?Event_RemoveInitialSplineAngles@idMover@@AAEXXZ 201411f0 f   Mover.obj
 0001:00140280       ?Event_StartSpline@idMover@@AAEXPAVidEntity@@@Z 20141280 f   Mover.obj
 0001:00141280       ?Event_StopSpline@idMover@@AAEXXZ 20142280 f   Mover.obj
 0001:001412b0       ?Event_Activate@idMover@@AAEXPAVidEntity@@@Z 201422b0 f   Mover.obj
 0001:001412d0       ?Event_PostRestoreExt@idMover@@AAEXHHHH_N@Z 201422d0 f   Mover.obj
 0001:001414a0       ?Event_IsMoving@idMover@@AAEXXZ 201424a0 f   Mover.obj
 0001:001414c0       ?Event_IsRotating@idMover@@AAEXXZ 201424c0 f   Mover.obj
 0001:001414e0       ?Event_GetSplineEntity@idMover@@AAEXXZ 201424e0 f   Mover.obj
 0001:00141520       ?Event_MoveAlongVector@idMover@@AAEXABVidVec3@@@Z 20142520 f   Mover.obj
 0001:00141530       ?State_Accel@idMover@@IAE?AW4stateResult_t@@ABUstateParms_t@@@Z 20142530 f   Mover.obj
 0001:001415d0       ?State_Linear@idMover@@IAE?AW4stateResult_t@@ABUstateParms_t@@@Z 201425d0 f   Mover.obj
 0001:00141660       ?State_Decel@idMover@@IAE?AW4stateResult_t@@ABUstateParms_t@@@Z 20142660 f   Mover.obj
 0001:001416e0       ?RegisterClassA@idSplinePath@@SAXXZ 201426e0 f   Mover.obj
 0001:001417a0       ?CreateInstance@idSplinePath@@SAPAVidClass@@XZ 201427a0 f   Mover.obj
 0001:00141840       ?GetClassType@idSplinePath@@SAAAVidTypeInfo@@XZ 20142840 f   Mover.obj
 0001:00141850       ?GetType@idSplinePath@@UBEPAVidTypeInfo@@XZ 20142850 f   Mover.obj
 0001:00141860       ??0idSplinePath@@QAE@XZ    20142860 f   Mover.obj
 0001:001418c0       ??1idSplinePath@@UAE@XZ    201428c0 f   Mover.obj
 0001:001419a0       ?Spawn@idSplinePath@@QAEXXZ 201429a0 f   Mover.obj
 0001:001419e0       ?SortTargets@idSplinePath@@QAEHXZ 201429e0 f   Mover.obj
 0001:001419f0       ?SortBackwardsTargets@idSplinePath@@QAEHXZ 201429f0 f   Mover.obj
 0001:00141a00       ?SortTargets@idSplinePath@@QAEHAAV?$idList@V?$idEntityPtr@VidEntity@@@@@@@Z 20142a00 f   Mover.obj
 0001:00141a80       ?RemoveNullTargets@idSplinePath@@UAEXXZ 20142a80 f   Mover.obj
 0001:00141aa0       ?ActivateTargets@idSplinePath@@UBEXPAVidEntity@@@Z 20142aa0 f   Mover.obj
 0001:00141ad0       ?RemoveNullTargets@idSplinePath@@QAEXAAV?$idList@V?$idEntityPtr@VidEntity@@@@@@@Z 20142ad0 f   Mover.obj
 0001:00141b90       ?ActivateTargets@idSplinePath@@QBEXPAVidEntity@@ABV?$idList@V?$idEntityPtr@VidEntity@@@@@@@Z 20142b90 f   Mover.obj
 0001:00141c70       ?Save@idSplinePath@@QBEXPAVidSaveGame@@@Z 20142c70 f   Mover.obj
 0001:00141c90       ?Restore@idSplinePath@@QAEXPAVidRestoreGame@@@Z 20142c90 f   Mover.obj
 0001:00141cb0       ?GetSampledTime@idSplinePath@@QBEMM@Z 20142cb0 f   Mover.obj
 0001:00141d80       ?FindTargets@idSplinePath@@MAEXXZ 20142d80 f   Mover.obj
 0001:00141ec0       ?Event_IsActive@idSplinePath@@IAEXXZ 20142ec0 f   Mover.obj
 0001:00141ed0       ?SampleSpline@idSplinePath@@IAEXXZ 20142ed0 f   Mover.obj
 0001:00143090       ?RegisterClassA@idElevator@@SAXXZ 20144090 f   Mover.obj
 0001:00143150       ?CreateInstance@idElevator@@SAPAVidClass@@XZ 20144150 f   Mover.obj
 0001:001431f0       ?GetClassType@idElevator@@SAAAVidTypeInfo@@XZ 201441f0 f   Mover.obj
 0001:00143200       ?GetType@idElevator@@UBEPAVidTypeInfo@@XZ 20144200 f   Mover.obj
 0001:00143210       ??0idElevator@@QAE@XZ      20144210 f   Mover.obj
 0001:00143320       ?Spawn@idElevator@@QAEXXZ  20144320 f   Mover.obj
 0001:00143420       ?Save@idElevator@@QBEXPAVidSaveGame@@@Z 20144420 f   Mover.obj
 0001:00143510       ?Restore@idElevator@@QAEXPAVidRestoreGame@@@Z 20144510 f   Mover.obj
 0001:00143a20       ?HandleSingleGuiCommand@idElevator@@UAE_NPAVidEntity@@PAVidLexer@@@Z 20144a20 f   Mover.obj
 0001:00143bf0       ?GetFloorInfo@idElevator@@QAEPAUfloorInfo_s@@H@Z 20144bf0 f   Mover.obj
 0001:00143c40       ?DoneMoving@idElevator@@MAEXXZ 20144c40 f   Mover.obj
 0001:00143db0       ?BeginMove@idElevator@@MAEXPAVidThread@@@Z 20144db0 f   Mover.obj
 0001:00143e10       ?Event_Touch@idElevator@@IAEXPAVidEntity@@PAUtrace_t@@@Z 20144e10 f   Mover.obj
 0001:00143ef0       ?SetAASAreaState@idElevator@@IAEX_N@Z 20144ef0 f   Mover.obj
 0001:00143f70       ?InitStatusGui@idElevator@@IAEXPAVidUserInterface@@@Z 20144f70 f   Mover.obj
 0001:00144270       ?UpdateStatusGui@idElevator@@IAEXPAVidUserInterface@@@Z 20145270 f   Mover.obj
 0001:001443b0       ?UpdateStatusGuis@idElevator@@IAEXXZ 201453b0 f   Mover.obj
 0001:00144470       ?UpdateFloorInfo@idElevator@@IAEXXZ 20145470 f   Mover.obj
 0001:00144ab0       ?GetDoor@idElevator@@AAEPAVidDoor@@PBD@Z 20145ab0 f   Mover.obj
 0001:00144b40       ?Think@idElevator@@EAEXXZ  20145b40 f   Mover.obj
 0001:00144d50       ?OpenInnerDoor@idElevator@@AAEXXZ 20145d50 f   Mover.obj
 0001:00144d90       ?OpenFloorDoor@idElevator@@AAEXH@Z 20145d90 f   Mover.obj
 0001:00144dc0       ?CloseAllDoors@idElevator@@AAEXXZ 20145dc0 f   Mover.obj
 0001:00144e30       ?DisableAllDoors@idElevator@@AAEXXZ 20145e30 f   Mover.obj
 0001:00144eb0       ?EnableProperDoors@idElevator@@AAEXXZ 20145eb0 f   Mover.obj
 0001:00144f40       ?Event_TeamBlocked@idElevator@@AAEXPAVidEntity@@0@Z 20145f40 f   Mover.obj
 0001:00145190       ?Event_Activate@idElevator@@AAEXPAVidEntity@@@Z 20146190 f   Mover.obj
 0001:00145200       ?Event_PostFloorArrival@idElevator@@AAEXXZ 20146200 f   Mover.obj
 0001:00145280       ?Event_GotoFloor@idElevator@@AAEXH@Z 20146280 f   Mover.obj
 0001:00145330       ?Event_UpdateFloorInfo@idElevator@@AAEXXZ 20146330 f   Mover.obj
 0001:00145340       ?RegisterClassA@idMover_Binary@@SAXXZ 20146340 f   Mover.obj
 0001:00145400       ?CreateInstance@idMover_Binary@@SAPAVidClass@@XZ 20146400 f   Mover.obj
 0001:001454a0       ?GetClassType@idMover_Binary@@SAAAVidTypeInfo@@XZ 201464a0 f   Mover.obj
 0001:001454b0       ?GetType@idMover_Binary@@UBEPAVidTypeInfo@@XZ 201464b0 f   Mover.obj
 0001:001454c0       ??0idMover_Binary@@QAE@XZ  201464c0 f   Mover.obj
 0001:001456c0       ??1idMover_Binary@@UAE@XZ  201466c0 f   Mover.obj
 0001:00145820       ?Spawn@idMover_Binary@@QAEXXZ 20146820 f   Mover.obj
 0001:001460b0       ?Save@idMover_Binary@@QBEXPAVidSaveGame@@@Z 201470b0 f   Mover.obj
 0001:001462d0       ?Restore@idMover_Binary@@QAEXPAVidRestoreGame@@@Z 201472d0 f   Mover.obj
 0001:00146a40       ?PreBind@idMover_Binary@@UAEXXZ 20147a40 f   Mover.obj
 0001:00146aa0       ?PostBind@idMover_Binary@@UAEXXZ 20147aa0 f   Mover.obj
 0001:00146b00       ?Enable@idMover_Binary@@QAEX_N@Z 20147b00 f   Mover.obj
 0001:00146b10       ?InitSpeed@idMover_Binary@@QAEXAAVidVec3@@0MMM@Z 20147b10 f   Mover.obj
 0001:00146cc0       ?InitTime@idMover_Binary@@QAEXAAVidVec3@@0MMM@Z 20147cc0 f   Mover.obj
 0001:00146df0       ?GotoPosition1@idMover_Binary@@QAEXXZ 20147df0 f   Mover.obj
 0001:00146ee0       ?GotoPosition2@idMover_Binary@@QAEXXZ 20147ee0 f   Mover.obj
 0001:00146fa0       ?Use_BinaryMover@idMover_Binary@@QAEXPAVidEntity@@@Z 20147fa0 f   Mover.obj
 0001:001471f0       ?SetGuiStates@idMover_Binary@@QAEXPBD@Z 201481f0 f   Mover.obj
 0001:00147250       ?UpdateBuddies@idMover_Binary@@QAEXH@Z 20148250 f   Mover.obj
 0001:001472e0       ?BindTeam@idMover_Binary@@QAEXPAVidEntity@@@Z 201482e0 f   Mover.obj
 0001:00147310       ?SetBlocked@idMover_Binary@@QAEX_N@Z 20148310 f   Mover.obj
 0001:001473e0       ?IsBlocked@idMover_Binary@@QAE_NXZ 201483e0 f   Mover.obj
 0001:001473f0       ?GetActivator@idMover_Binary@@QBEPAVidEntity@@XZ 201483f0 f   Mover.obj
 0001:00147420       ?WriteToSnapshot@idMover_Binary@@UBEXAAVidBitMsgDelta@@@Z 20148420 f   Mover.obj
 0001:00147460       ?ReadFromSnapshot@idMover_Binary@@UAEXABVidBitMsgDelta@@@Z 20148460 f   Mover.obj
 0001:001474d0       ?SetPortalState@idMover_Binary@@QAEX_N@Z 201484d0 f   Mover.obj
 0001:00147500       ?MatchActivateTeam@idMover_Binary@@IAEXW4moverState_t@@H@Z 20148500 f   Mover.obj
 0001:00147530       ?JoinActivateTeam@idMover_Binary@@IAEXPAV1@@Z 20148530 f   Mover.obj
 0001:00147550       ?UpdateMoverSound@idMover_Binary@@IAEXW4moverState_t@@@Z 20148550 f   Mover.obj
 0001:00147590       ?SetMoverState@idMover_Binary@@IAEXW4moverState_t@@H@Z 20148590 f   Mover.obj
 0001:00147830       ?FindGuiTargets@idMover_Binary@@IAEXXZ 20148830 f   Mover.obj
 0001:00147850       ?SetGuiState@idMover_Binary@@IBEXPBD0@Z 20148850 f   Mover.obj
 0001:00147910       ?Event_SetCallback@idMover_Binary@@IAEXXZ 20148910 f   Mover.obj
 0001:00147950       ?Event_ReturnToPos1@idMover_Binary@@IAEXXZ 20148950 f   Mover.obj
 0001:00147960       ?Event_Use_BinaryMover@idMover_Binary@@IAEXPAVidEntity@@@Z 20148960 f   Mover.obj
 0001:00147970       ?Event_Reached_BinaryMover@idMover_Binary@@IAEXXZ 20148970 f   Mover.obj
 0001:00147b50       ?Event_MatchActivateTeam@idMover_Binary@@IAEXW4moverState_t@@H@Z 20148b50 f   Mover.obj
 0001:00147b60       ?Event_Enable@idMover_Binary@@IAEXXZ 20148b60 f   Mover.obj
 0001:00147b90       ?Event_Disable@idMover_Binary@@IAEXXZ 20148b90 f   Mover.obj
 0001:00147bc0       ?Event_OpenPortal@idMover_Binary@@IAEXXZ 20148bc0 f   Mover.obj
 0001:00147bf0       ?Event_ClosePortal@idMover_Binary@@IAEXXZ 20148bf0 f   Mover.obj
 0001:00147c30       ?Event_FindGuiTargets@idMover_Binary@@IAEXXZ 20148c30 f   Mover.obj
 0001:00147c40       ?Event_InitGuiTargets@idMover_Binary@@IAEXXZ 20148c40 f   Mover.obj
 0001:00147c60       ?GetMovedir@idMover_Binary@@KAXMAAVidVec3@@@Z 20148c60 f   Mover.obj
 0001:00147d00       ?RegisterClassA@idDoor@@SAXXZ 20148d00 f   Mover.obj
 0001:00147dc0       ?CreateInstance@idDoor@@SAPAVidClass@@XZ 20148dc0 f   Mover.obj
 0001:00147e60       ?GetClassType@idDoor@@SAAAVidTypeInfo@@XZ 20148e60 f   Mover.obj
 0001:00147e70       ?GetType@idDoor@@UBEPAVidTypeInfo@@XZ 20148e70 f   Mover.obj
 0001:00147e80       ??0idDoor@@QAE@XZ          20148e80 f   Mover.obj
 0001:001480b0       ??1idDoor@@UAE@XZ          201490b0 f   Mover.obj
 0001:00148170       ?Spawn@idDoor@@QAEXXZ      20149170 f   Mover.obj
 0001:00148a50       ?Save@idDoor@@QBEXPAVidSaveGame@@@Z 20149a50 f   Mover.obj
 0001:00148b40       ?Restore@idDoor@@QAEXPAVidRestoreGame@@@Z 20149b40 f   Mover.obj
 0001:00148c40       ?Think@idDoor@@UAEXXZ      20149c40 f   Mover.obj
 0001:001490d0       ?PreBind@idDoor@@UAEXXZ    2014a0d0 f   Mover.obj
 0001:001490e0       ?PostBind@idDoor@@UAEXXZ   2014a0e0 f   Mover.obj
 0001:00149110       ?Hide@idDoor@@UAEXXZ       2014a110 f   Mover.obj
 0001:001491d0       ?Show@idDoor@@UAEXXZ       2014a1d0 f   Mover.obj
 0001:001492b0       ?IsOpen@idDoor@@QAE_NXZ    2014a2b0 f   Mover.obj
 0001:001492c0       ?IsNoTouch@idDoor@@QAE_NXZ 2014a2c0 f   Mover.obj
 0001:001492d0       ?IsLocked@idDoor@@QAEHXZ   2014a2d0 f   Mover.obj
 0001:00149300       ?Lock@idDoor@@QAEXH@Z      2014a300 f   Mover.obj
 0001:00149450       ?Use@idDoor@@QAEXPAVidEntity@@0@Z 2014a450 f   Mover.obj
 0001:001494e0       ?Close@idDoor@@QAEXXZ      2014a4e0 f   Mover.obj
 0001:001494f0       ?Open@idDoor@@QAEXXZ       2014a4f0 f   Mover.obj
 0001:00149500       ?SetCompanion@idDoor@@QAEXPAV1@@Z 2014a500 f   Mover.obj
 0001:00149510       ?SetDoorFrameController@idDoor@@QAEXPAVidEntity@@@Z 2014a510 f   Mover.obj
 0001:00149540       ?ActivateTargets@idDoor@@UBEXPAVidEntity@@@Z 2014a540 f   Mover.obj
 0001:001495a0       ?SetAASAreaState@idDoor@@AAEX_N@Z 2014a5a0 f   Mover.obj
 0001:001495d0       ?GetLocalTriggerPosition@idDoor@@AAEXPBVidClipModel@@@Z 2014a5d0 f   Mover.obj
 0001:00149850       ?CalcTriggerBounds@idDoor@@AAEXMAAVidBounds@@@Z 2014a850 f   Mover.obj
 0001:00149a50       ?Event_Reached_BinaryMover@idDoor@@AAEXXZ 2014aa50 f   Mover.obj
 0001:00149b50       ?Event_TeamBlocked@idDoor@@AAEXPAVidEntity@@0@Z 2014ab50 f   Mover.obj
 0001:00149d70       ?Event_PartBlocked@idDoor@@AAEXPAVidEntity@@@Z 2014ad70 f   Mover.obj
 0001:00149db0       ?Event_Touch@idDoor@@AAEXPAVidEntity@@PAUtrace_t@@@Z 2014adb0 f   Mover.obj
 0001:00149f20       ?Event_Activate@idDoor@@AAEXPAVidEntity@@@Z 2014af20 f   Mover.obj
 0001:0014a0a0       ?Event_StartOpen@idDoor@@AAEXXZ 2014b0a0 f   Mover.obj
 0001:0014a170       ?Event_SpawnDoorTrigger@idDoor@@AAEXXZ 2014b170 f   Mover.obj
 0001:0014a3b0       ?Event_SpawnSoundTrigger@idDoor@@AAEXXZ 2014b3b0 f   Mover.obj
 0001:0014a4d0       ?Event_Close@idDoor@@AAEXXZ 2014b4d0 f   Mover.obj
 0001:0014a4e0       ?Event_Open@idDoor@@AAEXXZ 2014b4e0 f   Mover.obj
 0001:0014a4f0       ?Event_Lock@idDoor@@AAEXH@Z 2014b4f0 f   Mover.obj
 0001:0014a500       ?Event_IsOpen@idDoor@@AAEXXZ 2014b500 f   Mover.obj
 0001:0014a520       ?Event_Locked@idDoor@@AAEXXZ 2014b520 f   Mover.obj
 0001:0014a560       ?Event_SpectatorTouch@idDoor@@AAEXPAVidEntity@@PAUtrace_t@@@Z 2014b560 f   Mover.obj
 0001:0014a6b0       ?Event_OpenPortal@idDoor@@AAEXXZ 2014b6b0 f   Mover.obj
 0001:0014a710       ?Event_ClosePortal@idDoor@@AAEXXZ 2014b710 f   Mover.obj
 0001:0014a790       ?Event_ReturnToPos1@idDoor@@AAEXXZ 2014b790 f   Mover.obj
 0001:0014a7d0       ?RegisterClassA@idPlat@@SAXXZ 2014b7d0 f   Mover.obj
 0001:0014a890       ?CreateInstance@idPlat@@SAPAVidClass@@XZ 2014b890 f   Mover.obj
 0001:0014a930       ?GetClassType@idPlat@@SAAAVidTypeInfo@@XZ 2014b930 f   Mover.obj
 0001:0014a940       ?GetType@idPlat@@UBEPAVidTypeInfo@@XZ 2014b940 f   Mover.obj
 0001:0014a950       ??0idPlat@@QAE@XZ          2014b950 f   Mover.obj
 0001:0014aa30       ??1idPlat@@UAE@XZ          2014ba30 f   Mover.obj
 0001:0014aa70       ?Spawn@idPlat@@QAEXXZ      2014ba70 f   Mover.obj
 0001:0014ac60       ?Save@idPlat@@QBEXPAVidSaveGame@@@Z 2014bc60 f   Mover.obj
 0001:0014aca0       ?Restore@idPlat@@QAEXPAVidRestoreGame@@@Z 2014bca0 f   Mover.obj
 0001:0014ace0       ?Think@idPlat@@UAEXXZ      2014bce0 f   Mover.obj
 0001:0014af60       ?PreBind@idPlat@@UAEXXZ    2014bf60 f   Mover.obj
 0001:0014af70       ?PostBind@idPlat@@UAEXXZ   2014bf70 f   Mover.obj
 0001:0014af90       ?GetLocalTriggerPosition@idPlat@@AAEXPBVidClipModel@@@Z 2014bf90 f   Mover.obj
 0001:0014b210       ?SpawnPlatTrigger@idPlat@@AAEXAAVidVec3@@@Z 2014c210 f   Mover.obj
 0001:0014b400       ?Event_TeamBlocked@idPlat@@AAEXPAVidEntity@@0@Z 2014c400 f   Mover.obj
 0001:0014b450       ?Event_PartBlocked@idPlat@@AAEXPAVidEntity@@@Z 2014c450 f   Mover.obj
 0001:0014b490       ?Event_Touch@idPlat@@AAEXPAVidEntity@@PAUtrace_t@@@Z 2014c490 f   Mover.obj
 0001:0014b4f0       ?RegisterClassA@idMover_Periodic@@SAXXZ 2014c4f0 f   Mover.obj
 0001:0014b5b0       ?CreateInstance@idMover_Periodic@@SAPAVidClass@@XZ 2014c5b0 f   Mover.obj
 0001:0014b650       ?GetClassType@idMover_Periodic@@SAAAVidTypeInfo@@XZ 2014c650 f   Mover.obj
 0001:0014b660       ?GetType@idMover_Periodic@@UBEPAVidTypeInfo@@XZ 2014c660 f   Mover.obj
 0001:0014b670       ??0idMover_Periodic@@QAE@XZ 2014c670 f   Mover.obj
 0001:0014b6d0       ??1idMover_Periodic@@UAE@XZ 2014c6d0 f   Mover.obj
 0001:0014b720       ?Spawn@idMover_Periodic@@QAEXXZ 2014c720 f   Mover.obj
 0001:0014b780       ?Save@idMover_Periodic@@QBEXPAVidSaveGame@@@Z 2014c780 f   Mover.obj
 0001:0014b7b0       ?Restore@idMover_Periodic@@QAEXPAVidRestoreGame@@@Z 2014c7b0 f   Mover.obj
 0001:0014b7f0       ?Think@idMover_Periodic@@UAEXXZ 2014c7f0 f   Mover.obj
 0001:0014b810       ?WriteToSnapshot@idMover_Periodic@@UBEXAAVidBitMsgDelta@@@Z 2014c810 f   Mover.obj
 0001:0014b840       ?ReadFromSnapshot@idMover_Periodic@@UAEXABVidBitMsgDelta@@@Z 2014c840 f   Mover.obj
 0001:0014b880       ?Event_TeamBlocked@idMover_Periodic@@IAEXPAVidEntity@@0@Z 2014c880 f   Mover.obj
 0001:0014ba20       ?Event_PartBlocked@idMover_Periodic@@IAEXPAVidEntity@@@Z 2014ca20 f   Mover.obj
 0001:0014ba60       ?RegisterClassA@idRotater@@SAXXZ 2014ca60 f   Mover.obj
 0001:0014bb20       ?CreateInstance@idRotater@@SAPAVidClass@@XZ 2014cb20 f   Mover.obj
 0001:0014bbc0       ?GetClassType@idRotater@@SAAAVidTypeInfo@@XZ 2014cbc0 f   Mover.obj
 0001:0014bbd0       ?GetType@idRotater@@UBEPAVidTypeInfo@@XZ 2014cbd0 f   Mover.obj
 0001:0014bbe0       ??0idRotater@@QAE@XZ       2014cbe0 f   Mover.obj
 0001:0014bc20       ?Spawn@idRotater@@QAEXXZ   2014cc20 f   Mover.obj
 0001:0014be00       ?Save@idRotater@@QBEXPAVidSaveGame@@@Z 2014ce00 f   Mover.obj
 0001:0014be20       ?Restore@idRotater@@QAEXPAVidRestoreGame@@@Z 2014ce20 f   Mover.obj
 0001:0014be40       ?Event_Activate@idRotater@@AAEXPAVidEntity@@@Z 2014ce40 f   Mover.obj
 0001:0014bf80       ?RegisterClassA@idBobber@@SAXXZ 2014cf80 f   Mover.obj
 0001:0014c040       ?CreateInstance@idBobber@@SAPAVidClass@@XZ 2014d040 f   Mover.obj
 0001:0014c0e0       ?GetClassType@idBobber@@SAAAVidTypeInfo@@XZ 2014d0e0 f   Mover.obj
 0001:0014c0f0       ?GetType@idBobber@@UBEPAVidTypeInfo@@XZ 2014d0f0 f   Mover.obj
 0001:0014c100       ??0idBobber@@QAE@XZ        2014d100 f   Mover.obj
 0001:0014c120       ?Spawn@idBobber@@QAEXXZ    2014d120 f   Mover.obj
 0001:0014c380       ?RegisterClassA@idPendulum@@SAXXZ 2014d380 f   Mover.obj
 0001:0014c440       ?CreateInstance@idPendulum@@SAPAVidClass@@XZ 2014d440 f   Mover.obj
 0001:0014c4e0       ?GetClassType@idPendulum@@SAAAVidTypeInfo@@XZ 2014d4e0 f   Mover.obj
 0001:0014c4f0       ?GetType@idPendulum@@UBEPAVidTypeInfo@@XZ 2014d4f0 f   Mover.obj
 0001:0014c500       ??0idPendulum@@QAE@XZ      2014d500 f   Mover.obj
 0001:0014c520       ?Spawn@idPendulum@@QAEXXZ  2014d520 f   Mover.obj
 0001:0014c800       ?RegisterClassA@idRiser@@SAXXZ 2014d800 f   Mover.obj
 0001:0014c8c0       ?CreateInstance@idRiser@@SAPAVidClass@@XZ 2014d8c0 f   Mover.obj
 0001:0014c960       ?GetClassType@idRiser@@SAAAVidTypeInfo@@XZ 2014d960 f   Mover.obj
 0001:0014c970       ?GetType@idRiser@@UBEPAVidTypeInfo@@XZ 2014d970 f   Mover.obj
 0001:0014c980       ??0idRiser@@QAE@XZ         2014d980 f   Mover.obj
 0001:0014c9a0       ?Spawn@idRiser@@QAEXXZ     2014d9a0 f   Mover.obj
 0001:0014cb40       ?Event_Activate@idRiser@@AAEXPAVidEntity@@@Z 2014db40 f   Mover.obj
 0001:0014cc30       ?RegisterClassA@rvConveyor@@SAXXZ 2014dc30 f   Mover.obj
 0001:0014ccf0       ?CreateInstance@rvConveyor@@SAPAVidClass@@XZ 2014dcf0 f   Mover.obj
 0001:0014cd90       ?GetClassType@rvConveyor@@SAAAVidTypeInfo@@XZ 2014dd90 f   Mover.obj
 0001:0014cda0       ?GetType@rvConveyor@@UBEPAVidTypeInfo@@XZ 2014dda0 f   Mover.obj
 0001:0014cdb0       ??0rvConveyor@@QAE@XZ      2014ddb0 f   Mover.obj
 0001:0014cdd0       ?Spawn@rvConveyor@@QAEXXZ  2014ddd0 f   Mover.obj
 0001:0014cea0       ?Think@rvConveyor@@UAEXXZ  2014dea0 f   Mover.obj
 0001:0014d080       ?Save@rvConveyor@@QBEXPAVidSaveGame@@@Z 2014e080 f   Mover.obj
 0001:0014d0b0       ?Restore@rvConveyor@@QAEXPAVidRestoreGame@@@Z 2014e0b0 f   Mover.obj
 0001:0014d0e0       ?Event_FindTargets@rvConveyor@@AAEXXZ 2014e0e0 f   Mover.obj
 0001:0014d2a0       ?RegisterClassA@rvPusher@@SAXXZ 2014e2a0 f   Mover.obj
 0001:0014d360       ?CreateInstance@rvPusher@@SAPAVidClass@@XZ 2014e360 f   Mover.obj
 0001:0014d400       ?GetClassType@rvPusher@@SAAAVidTypeInfo@@XZ 2014e400 f   Mover.obj
 0001:0014d410       ?GetType@rvPusher@@UBEPAVidTypeInfo@@XZ 2014e410 f   Mover.obj
 0001:0014d420       ??0rvPusher@@QAE@XZ        2014e420 f   Mover.obj
 0001:0014d450       ??1rvPusher@@UAE@XZ        2014e450 f   Mover.obj
 0001:0014d460       ?Spawn@rvPusher@@UAEXXZ    2014e460 f   Mover.obj
 0001:0014d470       ?Think@rvPusher@@UAEXXZ    2014e470 f   Mover.obj
 0001:0014d960       ?Register_idMover@@YAXXZ   2014e960 f   Mover.obj
 0001:0014d970       ?Register_idSplinePath@@YAXXZ 2014e970 f   Mover.obj
 0001:0014d980       ?rvSortByActiveState@@YAHPBX0@Z 2014e980 f   Mover.obj
 0001:0014da60       ?Register_idElevator@@YAXXZ 2014ea60 f   Mover.obj
 0001:0014da70       ?Register_idMover_Binary@@YAXXZ 2014ea70 f   Mover.obj
 0001:0014da80       ?Register_idDoor@@YAXXZ    2014ea80 f   Mover.obj
 0001:0014da90       ?Register_idPlat@@YAXXZ    2014ea90 f   Mover.obj
 0001:0014daa0       ?Register_idMover_Periodic@@YAXXZ 2014eaa0 f   Mover.obj
 0001:0014dab0       ?Register_idRotater@@YAXXZ 2014eab0 f   Mover.obj
 0001:0014dac0       ?Register_idBobber@@YAXXZ  2014eac0 f   Mover.obj
 0001:0014dad0       ?Register_idPendulum@@YAXXZ 2014ead0 f   Mover.obj
 0001:0014dae0       ?Register_idRiser@@YAXXZ   2014eae0 f   Mover.obj
 0001:0014daf0       ?Register_rvConveyor@@YAXXZ 2014eaf0 f   Mover.obj
 0001:0014db00       ?Register_rvPusher@@YAXXZ  2014eb00 f   Mover.obj
 0001:0014db10       ?Event_Toggle@idSplinePath@@IAEXPAVidEntity@@@Z 2014eb10 f i Mover.obj
 0001:0014db30       ??0floorInfo_s@@QAE@XZ     2014eb30 f i Mover.obj
 0001:0014db60       ??1floorInfo_s@@QAE@XZ     2014eb60 f i Mover.obj
 0001:0014db9a       ??_9rvPusher@@$BBHE@AE     2014eb9a f i Mover.obj
 0001:0014dbb0       ??_EidBobber@@UAEPAXI@Z    2014ebb0 f i Mover.obj
 0001:0014dbb0       ??_EidMover_Periodic@@UAEPAXI@Z 2014ebb0 f i Mover.obj
 0001:0014dbb0       ??_EidPendulum@@UAEPAXI@Z  2014ebb0 f i Mover.obj
 0001:0014dbb0       ??_EidRiser@@UAEPAXI@Z     2014ebb0 f i Mover.obj
 0001:0014dbb0       ??_GidBobber@@UAEPAXI@Z    2014ebb0 f i Mover.obj
 0001:0014dbb0       ??_GidMover_Periodic@@UAEPAXI@Z 2014ebb0 f i Mover.obj
 0001:0014dbb0       ??_GidPendulum@@UAEPAXI@Z  2014ebb0 f i Mover.obj
 0001:0014dbb0       ??_GidRiser@@UAEPAXI@Z     2014ebb0 f i Mover.obj
 0001:0014dbf0       ??_EidDoor@@UAEPAXI@Z      2014ebf0 f i Mover.obj
 0001:0014dbf0       ??_GidDoor@@UAEPAXI@Z      2014ebf0 f i Mover.obj
 0001:0014dc30       ??_EidElevator@@UAEPAXI@Z  2014ec30 f i Mover.obj
 0001:0014dc30       ??_GidElevator@@UAEPAXI@Z  2014ec30 f i Mover.obj
 0001:0014dd00       ??_EidMover@@UAEPAXI@Z     2014ed00 f i Mover.obj
 0001:0014dd00       ??_GidMover@@UAEPAXI@Z     2014ed00 f i Mover.obj
 0001:0014dd40       ??_EidMover_Binary@@UAEPAXI@Z 2014ed40 f i Mover.obj
 0001:0014dd40       ??_GidMover_Binary@@UAEPAXI@Z 2014ed40 f i Mover.obj
 0001:0014dd80       ??_EidPlat@@UAEPAXI@Z      2014ed80 f i Mover.obj
 0001:0014dd80       ??_GidPlat@@UAEPAXI@Z      2014ed80 f i Mover.obj
 0001:0014ddc0       ??_EidRotater@@UAEPAXI@Z   2014edc0 f i Mover.obj
 0001:0014ddc0       ??_GidRotater@@UAEPAXI@Z   2014edc0 f i Mover.obj
 0001:0014de00       ??_EidSplinePath@@UAEPAXI@Z 2014ee00 f i Mover.obj
 0001:0014de00       ??_GidSplinePath@@UAEPAXI@Z 2014ee00 f i Mover.obj
 0001:0014de40       ??_ErvPusher@@UAEPAXI@Z    2014ee40 f i Mover.obj
 0001:0014de40       ??_GrvPusher@@UAEPAXI@Z    2014ee40 f i Mover.obj
 0001:0014de80       ??0riBuyingManager@@QAE@XZ 2014ee80 f   Buying.obj
 0001:0014dea0       ??1riBuyingManager@@QAE@XZ 2014eea0 f   Buying.obj
 0001:0014deb0       ?GetIntValueForKey@riBuyingManager@@QAEHPBDH@Z 2014eeb0 f   Buying.obj
 0001:0014df40       ?GetOpponentKillCashAward@riBuyingManager@@QAEHXZ 2014ef40 f   Buying.obj
 0001:0014e090       ?RegisterClassA@rvCTF_AssaultPoint@@SAXXZ 2014f090 f   CTF.obj
 0001:0014e150       ?CreateInstance@rvCTF_AssaultPoint@@SAPAVidClass@@XZ 2014f150 f   CTF.obj
 0001:0014e1f0       ?GetClassType@rvCTF_AssaultPoint@@SAAAVidTypeInfo@@XZ 2014f1f0 f   CTF.obj
 0001:0014e200       ?GetType@rvCTF_AssaultPoint@@UBEPAVidTypeInfo@@XZ 2014f200 f   CTF.obj
 0001:0014e210       ?Spawn@rvCTF_AssaultPoint@@QAEXXZ 2014f210 f   CTF.obj
 0001:0014e220       ??0rvCTF_AssaultPoint@@QAE@XZ 2014f220 f   CTF.obj
 0001:0014e270       ??1rvCTF_AssaultPoint@@UAE@XZ 2014f270 f   CTF.obj
 0001:0014e2b0       ?SetOwnerColor@rvCTF_AssaultPoint@@QAEXXZ 2014f2b0 f   CTF.obj
 0001:0014e300       ?SetOwner@rvCTF_AssaultPoint@@QAEXH@Z 2014f300 f   CTF.obj
 0001:0014e320       ?Reset@rvCTF_AssaultPoint@@QAEXXZ 2014f320 f   CTF.obj
 0001:0014e330       ?Event_Touch@rvCTF_AssaultPoint@@AAEXPAVidEntity@@PAUtrace_t@@@Z 2014f330 f   CTF.obj
 0001:0014e710       ?Event_InitializeLinks@rvCTF_AssaultPoint@@AAEXXZ 2014f710 f   CTF.obj
 0001:0014e920       ?ResetSpawns@rvCTF_AssaultPoint@@AAEXH@Z 2014f920 f   CTF.obj
 0001:0014ea10       ?ResetIndices@rvCTF_AssaultPoint@@AAEXXZ 2014fa10 f   CTF.obj
 0001:0014f1d0       ?RegisterClassA@rvCTFAssaultPlayerStart@@SAXXZ 201501d0 f   CTF.obj
 0001:0014f290       ?CreateInstance@rvCTFAssaultPlayerStart@@SAPAVidClass@@XZ 20150290 f   CTF.obj
 0001:0014f340       ?GetClassType@rvCTFAssaultPlayerStart@@SAAAVidTypeInfo@@XZ 20150340 f   CTF.obj
 0001:0014f350       ?GetType@rvCTFAssaultPlayerStart@@UBEPAVidTypeInfo@@XZ 20150350 f   CTF.obj
